(lp0
(dp1
S'index'
p2
S'0'
p3
sS'picture'
p4
S'jpg'
p5
sS'age'
p6
S'1978'
p7
sS'sex'
p8
S'M'
p9
sS'Job'
p10
S'Actor'
p11
sS'full_name'
p12
S'A.J._Buckley'
p13
sS'nationality'
p14
S'Ireland'
p15
sS'Height'
p16
S''
p17
sa(dp18
g2
S'1'
p19
sg4
S'jpg'
p20
sg6
S'1967'
p21
sg8
g9
sg10
S'Musician'
p22
sg12
S'A.R._Rahman'
p23
sg14
S'India'
p24
sg16
g17
sa(dp25
g2
S'2'
p26
sg4
S'jpg'
p27
sg6
S'1965'
p28
sg8
g9
sg10
S'Actor'
p29
sg12
S'Aamir_Khan'
p30
sg14
S'India'
p31
sg16
S'168'
p32
sa(dp33
g2
S'3'
p34
sg4
S'jpg'
p35
sg6
S'1983'
p36
sg8
g9
sg10
S'Actor'
p37
sg12
S'Aaron_Tveit'
p38
sg14
S'USA'
p39
sg16
S'183'
p40
sa(dp41
g2
S'4'
p42
sg4
S'jpg'
p43
sg6
S'1979'
p44
sg8
g9
sg10
S'Actor'
p45
sg12
S'Aaron_Yoo'
p46
sg14
S'USA'
p47
sg16
g17
sa(dp48
g2
S'5'
p49
sg4
S'jpg'
p50
sg6
S'1982'
p51
sg8
S'F'
p52
sg10
S'Actor'
p53
sg12
S'Abbie_Cornish'
p54
sg14
S'Austrailia'
p55
sg16
S'173'
p56
sa(dp57
g2
S'6'
p58
sg4
S'jpg'
p59
sg6
S'1996'
p60
sg8
g52
sg10
S'Actor'
p61
sg12
S'Abigail_Breslin'
p62
sg14
S'USA'
p63
sg16
S'155'
p64
sa(dp65
g2
S'7'
p66
sg4
S'jpg'
p67
sg6
S'1981'
p68
sg8
g52
sg10
S'Actor'
p69
sg12
S'Abigail_Spencer'
p70
sg14
S'USA'
p71
sg16
S'165'
p72
sa(dp73
g2
S'8'
p74
sg4
S'jpg'
p75
sg6
S'1972'
p76
sg8
g9
sg10
S'Actor'
p77
sg12
S'Adam_Beach'
p78
sg14
S'Canada'
p79
sg16
g17
sa(dp80
g2
S'9'
p81
sg4
S'jpg'
p82
sg6
S'1979'
p83
sg8
g9
sg10
S'Actor'
p84
sg12
S'Adam_Brody'
p85
sg14
S'USA'
p86
sg16
S'180'
p87
sa(dp88
g2
S'10'
p89
sg4
S'jpg'
p90
sg6
S'1973'
p91
sg8
g9
sg10
S'Sports'
p92
sg12
S'Adam_Copeland'
p93
sg14
S'Canada'
p94
sg16
S'196'
p95
sa(dp96
g2
S'11'
p97
sg4
S'jpg'
p98
sg6
S'1983'
p99
sg8
g9
sg10
S'Actor'
p100
sg12
S'Adam_Driver'
p101
sg14
S'USA'
p102
sg16
S'189'
p103
sa(dp104
g2
S'12'
p105
sg4
S'jpg'
p106
sg6
S'1982'
p107
sg8
g52
sg10
S'Actor'
p108
sg12
S'Adrianne_Curry'
p109
sg14
S'USA'
p110
sg16
S'179'
p111
sa(dp112
g2
S'13'
p113
sg4
S'jpg'
p114
sg6
S'1983'
p115
sg8
g52
sg10
S'Actor'
p116
sg12
S'Adrianne_Palicki'
p117
sg14
S'USA'
p118
sg16
S'180'
p119
sa(dp120
g2
S'14'
p121
sg4
S'jpg'
p122
sg6
S'1983'
p123
sg8
g52
sg10
S'Model'
p124
sg12
S'Agyness_Deyn'
p125
sg14
S'UK'
p126
sg16
S'173'
p127
sa(dp128
g2
S'15'
p129
sg4
S'jpg'
p130
sg6
S'1983'
p131
sg8
g9
sg10
S'Actor'
p132
sg12
S'Aidan_Turner'
p133
sg14
S'Ireland'
p134
sg16
S'183'
p135
sa(dp136
g2
S'16'
p137
sg4
S'jpg'
p138
sg6
S'1969'
p139
sg8
g9
sg10
S'Actor'
p140
sg12
S'Ajay_Devgn'
p141
sg14
S'India'
p142
sg16
S'175'
p143
sa(dp144
g2
S'17'
p145
sg4
S'jpg'
p146
sg6
S'1967'
p147
sg8
g9
sg10
S'Actor'
p148
sg12
S'Akshay_Kumar'
p149
sg14
S'India'
p150
sg16
g17
sa(dp151
g2
S'18'
p152
sg4
S'jpg'
p153
sg6
S'1935'
p154
sg8
g9
sg10
S'Actor'
p155
sg12
S'Alain_Delon'
p156
sg14
S'France'
p157
sg16
S'177'
p158
sa(dp159
g2
S'19'
p160
sg4
S'jpg'
p161
sg6
S'1936'
p162
sg8
g9
sg10
S'Actor'
p163
sg12
S'Alan_Alda'
p164
sg14
S'USA'
p165
sg16
S'188'
p166
sa(dp167
g2
S'20'
p168
sg4
S'jpg'
p169
sg6
S'1965'
p170
sg8
g9
sg10
S'Actor'
p171
sg12
S'Alan_Cumming'
p172
sg14
S'Scotland'
p173
sg16
S'178'
p174
sa(dp175
g2
S'21'
p176
sg4
S'jpg'
p177
sg6
S'1946'
p178
sg8
g9
sg10
S'Actor'
p179
sg12
S'Alan_Rickman'
p180
sg14
S'UK'
p181
sg16
S'185'
p182
sa(dp183
g2
S'22'
p184
sg4
S'jpg'
p185
sg6
S'1971'
p186
sg8
g9
sg10
S'Actor'
p187
sg12
S'Alan_Tudyk'
p188
sg14
S'USA'
p189
sg16
S'183'
p190
sa(dp191
g2
S'23'
p192
sg4
S'jpg'
p193
sg6
S'1979'
p194
sg8
g52
sg10
S'Actor'
p195
sg12
S'Alba_Rohrwacher'
p196
sg14
S'Italy'
p197
sg16
g17
sa(dp198
g2
S'24'
p199
sg4
S'jpg'
p200
sg6
S'1986'
p201
sg8
g9
sg10
S'Actor'
p202
sg12
S'Aldis_Hodge'
p203
sg14
S'USA'
p204
sg16
g17
sa(dp205
g2
S'25'
p206
sg4
S'jpg'
p207
sg6
S'1971'
p208
sg8
g52
sg10
S'Actor'
p209
sg12
S'Alex_Borstein'
p210
sg14
S'USA'
p211
sg16
S'152'
p212
sa(dp213
g2
S'26'
p214
sg4
S'jpg'
p215
sg6
S'1963'
p216
sg8
g52
sg10
S'Actor'
p217
sg12
S'Alex_Kingston'
p218
sg14
S'UK'
p219
sg16
S'170'
p220
sa(dp221
g2
S'27'
p222
sg4
S'jpg'
p223
sg6
S'1990'
p224
sg8
g9
sg10
S'Actor'
p225
sg12
S'Alex_Pettyfer'
p226
sg14
S'UK'
p227
sg16
S'181'
p228
sa(dp229
g2
S'28'
p230
sg4
S'jpg'
p231
sg6
S'1940'
p232
sg8
g9
sg10
S'Anchor'
p233
sg12
S'Alex_Trebek'
p234
sg14
S'Canada'
p235
sg16
S'173'
p236
sa(dp237
g2
S'29'
p238
sg4
S'jpg'
p239
sg6
S'1982'
p240
sg8
g52
sg10
S'Actor'
p241
sg12
S'Alexa_Davalos'
p242
sg14
S'USA'
p243
sg16
S'170'
p244
sa(dp245
g2
S'30'
p246
sg4
S'jpg'
p247
sg6
S'1965'
p248
sg8
g9
sg10
S'Actor'
p249
sg12
S'Alexander_Siddig'
p250
sg14
S'Sudan'
p251
sg16
S'182'
p252
sa(dp253
g2
S'31'
p254
sg4
S'jpg'
p255
sg6
S'1986'
p256
sg8
g52
sg10
S'Actor'
p257
sg12
S'Alexandra_Daddario'
p258
sg14
S'USA'
p259
sg16
S'173'
p260
sa(dp261
g2
S'32'
p262
sg4
S'jpg'
p263
sg6
S'1987'
p264
sg8
g52
sg10
S'Actor'
p265
sg12
S'Alexandra_Roach'
p266
sg14
S'UK'
p267
sg16
g17
sa(dp268
g2
S'33'
p269
sg4
S'jpg'
p270
sg6
S'1986'
p271
sg8
g52
sg10
S'Musician'
p272
sg12
S'Alexz_Johnson'
p273
sg14
S'Canada'
p274
sg16
g17
sa(dp275
g2
S'34'
p276
sg4
S'jpg'
p277
sg6
S'1952'
p278
sg8
g52
sg10
S'Actor'
p279
sg12
S'Alfre_Woodard'
p280
sg14
S'USA'
p281
sg16
g17
sa(dp282
g2
S'35'
p283
sg4
S'jpg'
p284
sg6
S'1982'
p285
sg8
g52
sg10
S'Actor'
p286
sg12
S'Alice_Eve'
p287
sg14
S'UK'
p288
sg16
S'166'
p289
sa(dp290
g2
S'36'
p291
sg4
S'jpg'
p292
sg6
S'1983'
p293
sg8
g52
sg10
S'Actor'
p294
sg12
S'Alicja_Bachleda'
p295
sg14
S'USA'
p296
sg16
S'168'
p297
sa(dp298
g2
S'37'
p299
sg4
S'jpg'
p300
sg6
S'1962'
p301
sg8
g52
sg10
S'Actor'
p302
sg12
S'Alison_Arngrim'
p303
sg14
S'USA'
p304
sg16
S'162'
p305
sa(dp306
g2
S'38'
p307
sg4
S'jpg'
p308
sg6
S'1985'
p309
sg8
g52
sg10
S'Actor'
p310
sg12
S'Alison_Pill'
p311
sg14
S'Canada'
p312
sg16
S'168'
p313
sa(dp314
g2
S'39'
p315
sg4
S'jpg'
p316
sg6
S'1988'
p317
sg8
g52
sg10
S'Actor'
p318
sg12
S'Allison_Williams'
p319
sg14
S'USA'
p320
sg16
S'167'
p321
sa(dp322
g2
S'40'
p323
sg4
S'jpg'
p324
sg6
S'1985'
p325
sg8
g52
sg10
S'Actor'
p326
sg12
S'Amanda_Seyfried'
p327
sg14
S'USA'
p328
sg16
S'159'
p329
sa(dp330
g2
S'41'
p331
sg4
S'jpg'
p332
sg6
S'1970'
p333
sg8
g9
sg10
S'Actor'
p334
sg12
S'Amaury_Nolasco'
p335
sg14
S'Puertorico'
p336
sg16
S'179'
p337
sa(dp338
g2
S'42'
p339
sg4
S'jpg'
p340
sg6
S'1986'
p341
sg8
g52
sg10
S'Actor'
p342
sg12
S'Amber_Riley'
p343
sg14
S'USA'
p344
sg16
g17
sa(dp345
g2
S'43'
p346
sg4
S'jpg'
p347
sg6
S'1984'
p348
sg8
g52
sg10
S'Actor'
p349
sg12
S'America_Ferrera'
p350
sg14
S'USA'
p351
sg16
S'155'
p352
sa(dp353
g2
S'44'
p354
sg4
S'jpg'
p355
sg6
S'1942'
p356
sg8
g9
sg10
S'Actor'
p357
sg12
S'Amitabh_Bachchan'
p358
sg14
S'India'
p359
sg16
S'188'
p360
sa(dp361
g2
S'45'
p362
sg4
S'jpg'
p363
sg6
S'1971'
p364
sg8
g52
sg10
S'Actor'
p365
sg12
S'Amy_Poehler'
p366
sg14
S'USA'
p367
sg16
S'157'
p368
sa(dp369
g2
S'46'
p370
sg4
S'jpg'
p371
sg6
S'1981'
p372
sg8
g52
sg10
S'Actor'
p373
sg12
S'Amy_Schumer'
p374
sg14
S'USA'
p375
sg16
S'170'
p376
sa(dp377
g2
S'47'
p378
sg4
S'jpg'
p379
sg6
S'1967'
p380
sg8
g52
sg10
S'Actor'
p381
sg12
S'Ana_Gasteyer'
p382
sg14
S'USA'
p383
sg16
g17
sa(dp384
g2
S'48'
p385
sg4
S'jpg'
p386
sg6
S'1962'
p387
sg8
g9
sg10
S'Actor'
p388
sg12
S'Andre_Braugher'
p389
sg14
S'USA'
p390
sg16
S'183'
p391
sa(dp392
g2
S'49'
p393
sg4
S'jpg'
p394
sg6
S'1981'
p395
sg8
g52
sg10
S'Actor'
p396
sg12
S'Andrea_Riseborough'
p397
sg14
S'UK'
p398
sg16
S'170'
p399
sa(dp400
g2
S'50'
p401
sg4
S'jpg'
p402
sg6
S'1957'
p403
sg8
g9
sg10
S'Actor'
p404
sg12
S'Andrew_Dice_Clay'
p405
sg14
S'USA'
p406
sg16
S'180'
p407
sa(dp408
g2
S'51'
p409
sg4
S'jpg'
p410
sg6
S'1983'
p411
sg8
g9
sg10
S'Actor'
p412
sg12
S'Andrew_Garfield'
p413
sg14
S'USA'
p414
sg16
S'179'
p415
sa(dp416
g2
S'52'
p417
sg4
S'jpg'
p418
sg6
S'1979'
p419
sg8
g9
sg10
S'Actor'
p420
sg12
S'Andrew_Lee_Potts'
p421
sg14
S'UK'
p422
sg16
g17
sa(dp423
g2
S'53'
p424
sg4
S'jpg'
p425
sg6
S'1978'
p426
sg8
g9
sg10
S'Actor'
p427
sg12
S'Andrew_Rannells'
p428
sg14
S'USA'
p429
sg16
S'185'
p430
sa(dp431
g2
S'54'
p432
sg4
S'jpg'
p433
sg6
S'1976'
p434
sg8
g9
sg10
S'Actor'
p435
sg12
S'Andrew_Scott'
p436
sg14
S'Ireland'
p437
sg16
S'173'
p438
sa(dp439
g2
S'55'
p440
sg4
S'jpg'
p441
sg6
S'1966'
p442
sg8
g9
sg10
S'Actor'
p443
sg12
S'Andy_Richter'
p444
sg14
S'USA'
p445
sg16
S'188'
p446
sa(dp447
g2
S'56'
p448
sg4
S'jpg'
p449
sg6
S'1978'
p450
sg8
g9
sg10
S'Actor'
p451
sg12
S'Andy_Samberg'
p452
sg14
S'USA'
p453
sg16
S'177'
p454
sa(dp455
g2
S'57'
p456
sg4
S'jpg'
p457
sg6
S'1987'
p458
sg8
g9
sg10
S'Actor'
p459
sg12
S'Aneurin_Barnard'
p460
sg14
S'UK'
p461
sg16
S'175'
p462
sa(dp463
g2
S'58'
p464
sg4
S'jpg'
p465
sg6
S'1954'
p466
sg8
g9
sg10
S'Director'
p467
sg12
S'Ang_Lee'
p468
sg14
S'China'
p469
sg16
g17
sa(dp470
g2
S'59'
p471
sg4
S'jpg'
p472
sg6
S'1971'
p473
sg8
g52
sg10
S'Actor'
p474
sg12
S'Angela_Kinsey'
p475
sg14
S'USA'
p476
sg16
S'155'
p477
sa(dp478
g2
S'60'
p479
sg4
S'jpg'
p480
sg6
S'1982'
p481
sg8
g52
sg10
S'Actor'
p482
sg12
S'Anne_Hathaway'
p483
sg14
S'USA'
p484
sg16
S'173'
p485
sa(dp486
g2
S'61'
p487
sg4
S'jpg'
p488
sg6
S'1994'
p489
sg8
g9
sg10
S'Actor'
p490
sg12
S'Ansel_Elgort'
p491
sg14
S'USA'
p492
sg16
S'191'
p493
sa(dp494
g2
S'62'
p495
sg4
S'jpg'
p496
sg6
S'1970'
p497
sg8
g9
sg10
S'Actor'
p498
sg12
S'Anthony_Anderson'
p499
sg14
S'USA'
p500
sg16
S'178'
p501
sa(dp502
g2
S'63'
p503
sg4
S'jpg'
p504
sg6
S'1978'
p505
sg8
g9
sg10
S'Actor'
p506
sg12
S'Anthony_Mackie'
p507
sg14
S'USA'
p508
sg16
S'178'
p509
sa(dp510
g2
S'64'
p511
sg4
S'jpg'
p512
sg6
S'1971'
p513
sg8
g9
sg10
S'Actor'
p514
sg12
S'Anthony_Rapp'
p515
sg14
S'USA'
p516
sg16
S'173'
p517
sa(dp518
g2
S'65'
p519
sg4
S'jpg'
p520
sg6
S'1989'
p521
sg8
g9
sg10
S'Actor'
p522
sg12
S'Anton_Yelchin'
p523
sg14
S'Russia'
p524
sg16
S'175'
p525
sa(dp526
g2
S'66'
p527
sg4
S'jpg'
p528
sg6
S'1978'
p529
sg8
g9
sg10
S'Actor'
p530
sg12
S'Antonio_Cupo'
p531
sg14
S'Canada'
p532
sg16
S'185'
p533
sa(dp534
g2
S'67'
p535
sg4
S'jpg'
p536
sg6
S'1985'
p537
sg8
g52
sg10
S'Actor'
p538
sg12
S'Arden_Cho'
p539
sg14
S'USA'
p540
sg16
S'163'
p541
sa(dp542
g2
S'68'
p543
sg4
S'jpg'
p544
sg6
S'1949'
p545
sg8
g9
sg10
S'Actor'
p546
sg12
S'Armand_Assante'
p547
sg14
S'USA'
p548
sg16
S'178'
p549
sa(dp550
g2
S'69'
p551
sg4
S'jpg'
p552
sg6
S'1986'
p553
sg8
g9
sg10
S'Actor'
p554
sg12
S'Armie_Hammer'
p555
sg14
S'USA'
p556
sg16
S'196'
p557
sa(dp558
g2
S'70'
p559
sg4
S'jpg'
p560
sg6
S'1997'
p561
sg8
g9
sg10
S'Actor'
p562
sg12
S'Asa_Butterfield'
p563
sg14
S'UK'
p564
sg16
S'183'
p565
sa(dp566
g2
S'71'
p567
sg4
S'jpg'
p568
sg6
S'1987'
p569
sg8
g52
sg10
S'Actor'
p570
sg12
S'Ashley_Greene'
p571
sg14
S'USA'
p572
sg16
S'165'
p573
sa(dp574
g2
S'72'
p575
sg4
S'jpg'
p576
sg6
S'1969'
p577
sg8
g52
sg10
S'Actor'
p578
sg12
S'Ashley_Jensen'
p579
sg14
S'Scotland'
p580
sg16
g17
sa(dp581
g2
S'73'
p582
sg4
S'jpg'
p583
sg6
S'1970'
p584
sg8
g52
sg10
S'Actor'
p585
sg12
S'Audra_McDonald'
p586
sg14
S'Germany'
p587
sg16
g17
sa(dp588
g2
S'74'
p589
sg4
S'jpg'
p590
sg6
S'1985'
p591
sg8
g52
sg10
S'Actor'
p592
sg12
S'Audrina_Patridge'
p593
sg14
S'USA'
p594
sg16
S'171'
p595
sa(dp596
g2
S'75'
p597
sg4
S'jpg'
p598
sg6
S'1992'
p599
sg8
g9
sg10
S'Actor'
p600
sg12
S'Avan_Jogia'
p601
sg14
S'Canada'
p602
sg16
S'178'
p603
sa(dp604
g2
S'76'
p605
sg4
S'jpg'
p606
sg6
S'1979'
p607
sg8
g9
sg10
S'Actor'
p608
sg12
S'B.J._Novak'
p609
sg14
S'USA'
p610
sg16
S'174'
p611
sa(dp612
g2
S'77'
p613
sg4
S'jpg'
p614
sg6
S'1931'
p615
sg8
g52
sg10
S'Actor'
p616
sg12
S'Barbara_Eden'
p617
sg14
S'USA'
p618
sg16
S'162'
p619
sa(dp620
g2
S'78'
p621
sg4
S'jpg'
p622
sg6
S'1948'
p623
sg8
g52
sg10
S'Actor'
p624
sg12
S'Barbara_Hershey'
p625
sg14
S'USA'
p626
sg16
g17
sa(dp627
g2
S'79'
p628
sg4
S'jpg'
p629
sg6
S'1974'
p630
sg8
g9
sg10
S'Activist'
p631
sg12
S'Bear_Grylls'
p632
sg14
S'UK'
p633
sg16
S'182'
p634
sa(dp635
g2
S'80'
p636
sg4
S'jpg'
p637
sg6
S'1970'
p638
sg8
g52
sg10
S'Actor'
p639
sg12
S'Bellamy_Young'
p640
sg14
S'USA'
p641
sg16
S'170'
p642
sa(dp643
g2
S'81'
p644
sg4
S'jpg'
p645
sg6
S'1980'
p646
sg8
g9
sg10
S'Actor'
p647
sg12
S'Ben_Feldman'
p648
sg14
S'USA'
p649
sg16
S'173'
p650
sa(dp651
g2
S'82'
p652
sg4
S'jpg'
p653
sg6
S'1978'
p654
sg8
g9
sg10
S'Actor'
p655
sg12
S'Ben_McKenzie'
p656
sg14
S'USA'
p657
sg16
S'173'
p658
sa(dp659
g2
S'83'
p660
sg4
S'jpg'
p661
sg6
S'1965'
p662
sg8
g9
sg10
S'Actor'
p663
sg12
S'Ben_Stiller'
p664
sg14
S'USA'
p665
sg16
S'170'
p666
sa(dp667
g2
S'84'
p668
sg4
S'jpg'
p669
sg6
S'1980'
p670
sg8
g9
sg10
S'Actor'
p671
sg12
S'Ben_Whishaw'
p672
sg14
S'UK'
p673
sg16
S'175'
p674
sa(dp675
g2
S'85'
p676
sg4
S'jpg'
p677
sg6
S'1949'
p678
sg8
g52
sg10
S'Actor'
p679
sg12
S'Beth_Grant'
p680
sg14
S'USA'
p681
sg16
g17
sa(dp682
g2
S'86'
p683
sg4
S'jpg'
p684
sg6
S'1995'
p685
sg8
g52
sg10
S'Actor'
p686
sg12
S'Bethany_Mota'
p687
sg14
S'USA'
p688
sg16
S'163'
p689
sa(dp690
g2
S'87'
p691
sg4
S'jpg'
p692
sg6
S'1922'
p693
sg8
g52
sg10
S'Actor'
p694
sg12
S'Betty_White'
p695
sg14
S'USA'
p696
sg16
S'163'
p697
sa(dp698
g2
S'88'
p699
sg4
S'jpg'
p700
sg6
S'1949'
p701
sg8
g9
sg10
S'Actor'
p702
sg12
S'Bill_Nighy'
p703
sg14
S'UK'
p704
sg16
S'188'
p705
sa(dp706
g2
S'89'
p707
sg4
S'jpg'
p708
sg6
S'1953'
p709
sg8
g9
sg10
S'Actor'
p710
sg12
S'Bill_Pullman'
p711
sg14
S'USA'
p712
sg16
S'187'
p713
sa(dp714
g2
S'90'
p715
sg4
S'jpg'
p716
sg6
S'1972'
p717
sg8
g9
sg10
S'Musician'
p718
sg12
S'Billie_Joe_Armstrong'
p719
sg14
S'USA'
p720
sg16
S'170'
p721
sa(dp722
g2
S'91'
p723
sg4
S'jpg'
p724
sg6
S'1973'
p725
sg8
g52
sg10
S'Actor'
p726
sg12
S'Bingbing_Li'
p727
sg14
S'China'
p728
sg16
S'165'
p729
sa(dp730
g2
S'92'
p731
sg4
S'jpg'
p732
sg6
S'1964'
p733
sg8
g9
sg10
S'Actor'
p734
sg12
S'Blair_Underwood'
p735
sg14
S'USA'
p736
sg16
S'180'
p737
sa(dp738
g2
S'93'
p739
sg4
S'jpg'
p740
sg6
S'1996'
p741
sg8
g9
sg10
S'Actor'
p742
sg12
S'Blake_Michael'
p743
sg14
S'USA'
p744
sg16
g17
sa(dp745
g2
S'94'
p746
sg4
S'jpg'
p747
sg6
S'1976'
p748
sg8
g9
sg10
S'Musician'
p749
sg12
S'Blake_Shelton'
p750
sg14
S'USA'
p751
sg16
S'196'
p752
sa(dp753
g2
S'95'
p754
sg4
S'jpg'
p755
sg6
S'1923'
p756
sg8
g9
sg10
S'Anchor'
p757
sg12
S'Bob_Barker'
p758
sg14
S'USA'
p759
sg16
S'185'
p760
sa(dp761
g2
S'96'
p762
sg4
S'jpg'
p763
sg6
S'1970'
p764
sg8
g9
sg10
S'Actor'
p765
sg12
S'Bobby_Cannavale'
p766
sg14
S'USA'
p767
sg16
S'188'
p768
sa(dp769
g2
S'97'
p770
sg4
S'jpg'
p771
sg6
S'1991'
p772
sg8
g52
sg10
S'Actor'
p773
sg12
S'Bonnie_Wright'
p774
sg14
S'UK'
p775
sg16
S'168'
p776
sa(dp777
g2
S'98'
p778
sg4
S'jpg'
p779
sg6
S'1994'
p780
sg8
g9
sg10
S'Actor'
p781
sg12
S'Booboo_Stewart'
p782
sg14
S'USA'
p783
sg16
S'173'
p784
sa(dp785
g2
S'99'
p786
sg4
S'jpg'
p787
sg6
S'1972'
p788
sg8
g9
sg10
S'Musician'
p789
sg12
S'Brad_Paisley'
p790
sg14
S'USA'
p791
sg16
g17
sa(dp792
g2
S'100'
p793
sg4
S'jpg'
p794
sg6
S'1998'
p795
sg8
g9
sg10
S'Actor'
p796
sg12
S'Bradley_Steven_Perry'
p797
sg14
S'USA'
p798
sg16
S'170'
p799
sa(dp800
g2
S'101'
p801
sg4
S'jpg'
p802
sg6
S'1974'
p803
sg8
g9
sg10
S'Actor'
p804
sg12
S'Breckin_Meyer'
p805
sg14
S'USA'
p806
sg16
S'165'
p807
sa(dp808
g2
S'102'
p809
sg4
S'jpg'
p810
sg6
S'1946'
p811
sg8
g52
sg10
S'Actor'
p812
sg12
S'Brenda_Blethyn'
p813
sg14
S'UK'
p814
sg16
g17
sa(dp815
g2
S'103'
p816
sg4
S'png'
p817
sg6
S'1955'
p818
sg8
g9
sg10
S'Actor'
p819
sg12
S'Brendan_Gleeson'
p820
sg14
S'Ireland'
p821
sg16
S'188'
p822
sa(dp823
g2
S'104'
p824
sg4
S'png'
p825
sg6
S'1992'
p826
sg8
g9
sg10
S'Actor'
p827
sg12
S'Brett_Davern'
p828
sg14
S'USA'
p829
sg16
S'175'
p830
sa(dp831
g2
S'105'
p832
sg4
S'png'
p833
sg6
S'1936'
p834
sg8
g9
sg10
S'Actor'
p835
sg12
S'Brian_Blessed'
p836
sg14
S'UK'
p837
sg16
S'175'
p838
sa(dp839
g2
S'106'
p840
sg4
S'png'
p841
sg6
S'1946'
p842
sg8
g9
sg10
S'Actor'
p843
sg12
S'Brian_Cox'
p844
sg14
S'UK'
p845
sg16
S'176'
p846
sa(dp847
g2
S'107'
p848
sg4
S'png'
p849
sg6
S'1938'
p850
sg8
g9
sg10
S'Actor'
p851
sg12
S'Brian_Dennehy'
p852
sg14
S'USA'
p853
sg16
S'190'
p854
sa(dp855
g2
S'108'
p856
sg4
S'png'
p857
sg6
S'1971'
p858
sg8
g52
sg10
S'Actor'
p859
sg12
S'Bridget_Moynahan'
p860
sg14
S'USA'
p861
sg16
S'177'
p862
sa(dp863
g2
S'109'
p864
sg4
S'png'
p865
sg6
S'1982'
p866
sg8
g52
sg10
S'Actor'
p867
sg12
S'Bridget_Regan'
p868
sg14
S'USA'
p869
sg16
S'175'
p870
sa(dp871
g2
S'110'
p872
sg4
S'png'
p873
sg6
S'1982'
p874
sg8
g52
sg10
S'Actor'
p875
sg12
S'Brit_Marling'
p876
sg14
S'USA'
p877
sg16
S'170'
p878
sa(dp879
g2
S'111'
p880
sg4
S'png'
p881
sg6
S'1971'
p882
sg8
g52
sg10
S'Actor'
p883
sg12
S'Brooke_Burke-Charvet'
p884
sg14
S'USA'
p885
sg16
S'170'
p886
sa(dp887
g2
S'112'
p888
sg4
S'png'
p889
sg6
S'1950'
p890
sg8
g9
sg10
S'Actor'
p891
sg12
S'Bruce_Boxleitner'
p892
sg14
S'USA'
p893
sg16
g17
sa(dp894
g2
S'113'
p895
sg4
S'png'
p896
sg6
S'1941'
p897
sg8
g9
sg10
S'Actor'
p898
sg12
S'Bruno_Ganz'
p899
sg14
S'Switzerland'
p900
sg16
S'168'
p901
sa(dp902
g2
S'114'
p903
sg4
S'png'
p904
sg6
S'1985'
p905
sg8
g9
sg10
S'Musician'
p906
sg12
S'Bruno_Mars'
p907
sg14
S'USA'
p908
sg16
S'165'
p909
sa(dp910
g2
S'115'
p911
sg4
S'png'
p912
sg6
S'1936'
p913
sg8
g9
sg10
S'Actor'
p914
sg12
S'Burt_Reynolds'
p915
sg14
S'USA'
p916
sg16
S'180'
p917
sa(dp918
g2
S'116'
p919
sg4
S'png'
p920
sg6
S'1952'
p921
sg8
g52
sg10
S'Actor'
p922
sg12
S'CCH_Pounder'
p923
sg14
S'USA'
p924
sg16
g17
sa(dp925
g2
S'117'
p926
sg4
S'png'
p927
sg6
S'1979'
p928
sg8
g52
sg10
S'Actor'
p929
sg12
S'Caitriona_Balfe'
p930
sg14
S'Ireland'
p931
sg16
S'177'
p932
sa(dp933
g2
S'118'
p934
sg4
S'png'
p935
sg6
S'1986'
p936
sg8
g52
sg10
S'Actor'
p937
sg12
S'Caity_Lotz'
p938
sg14
S'USA'
p939
sg16
S'168'
p940
sa(dp941
g2
S'119'
p942
sg4
S'png'
p943
sg6
S'1995'
p944
sg8
g9
sg10
S'Actor'
p945
sg12
S'Callan_McAuliffe'
p946
sg14
S'Austrailia'
p947
sg16
S'178'
p948
sa(dp949
g2
S'120'
p950
sg4
S'png'
p951
sg6
S'1969'
p952
sg8
g52
sg10
S'Actor'
p953
sg12
S'Callie_Thorne'
p954
sg14
S'USA'
p955
sg16
g17
sa(dp956
g2
S'121'
p957
sg4
S'png'
p958
sg6
S'1999'
p959
sg8
g9
sg10
S'Actor'
p960
sg12
S'Cameron_Boyce'
p961
sg14
S'USA'
p962
sg16
S'168'
p963
sa(dp964
g2
S'122'
p965
sg4
S'png'
p966
sg6
S'1976'
p967
sg8
g52
sg10
S'Actor'
p968
sg12
S'Candace_Cameron_Bure'
p969
sg14
S'USA'
p970
sg16
S'157'
p971
sa(dp972
g2
S'123'
p973
sg4
S'png'
p974
sg6
S'1987'
p975
sg8
g52
sg10
S'Actor'
p976
sg12
S'Candice_Accola'
p977
sg14
S'USA'
p978
sg16
S'173'
p979
sa(dp980
g2
S'124'
p981
sg4
S'png'
p982
sg6
S'1988'
p983
sg8
g52
sg10
S'Actor'
p984
sg12
S'Candice_Patton'
p985
sg14
S'USA'
p986
sg16
g17
sa(dp987
g2
S'125'
p988
sg4
S'png'
p989
sg6
S'1964'
p990
sg8
g52
sg10
S'Actor'
p991
sg12
S'Caroline_Rhea'
p992
sg14
S'Canada'
p993
sg16
g17
sa(dp994
g2
S'126'
p995
sg4
S'png'
p996
sg6
S'1962'
p997
sg8
g52
sg10
S'Actor'
p998
sg12
S'Carolyn_Hennesy'
p999
sg14
S'USA'
p1000
sg16
g17
sa(dp1001
g2
S'127'
p1002
sg4
S'png'
p1003
sg6
S'1968'
p1004
sg8
g52
sg10
S'Actor'
p1005
sg12
S'Carrie_Ann_Inaba'
p1006
sg14
S'USA'
p1007
sg16
g17
sa(dp1008
g2
S'128'
p1009
sg4
S'png'
p1010
sg6
S'1956'
p1011
sg8
g52
sg10
S'Actor'
p1012
sg12
S'Carrie_Fisher'
p1013
sg14
S'USA'
p1014
sg16
S'155'
p1015
sa(dp1016
g2
S'129'
p1017
sg4
S'png'
p1018
sg6
S'1983'
p1019
sg8
g52
sg10
S'Musician'
p1020
sg12
S'Carrie_Underwood'
p1021
sg14
S'USA'
p1022
sg16
S'160'
p1023
sa(dp1024
g2
S'130'
p1025
sg4
S'png'
p1026
sg6
S'1975'
p1027
sg8
g9
sg10
S'Actor'
p1028
sg12
S'Casey_Affleck'
p1029
sg14
S'USA'
p1030
sg16
S'175'
p1031
sa(dp1032
g2
S'131'
p1033
sg4
S'png'
p1034
sg6
S'1980'
p1035
sg8
g52
sg10
S'Actor'
p1036
sg12
S'Casey_Wilson'
p1037
sg14
S'USA'
p1038
sg16
g17
sa(dp1039
g2
S'132'
p1040
sg4
S'png'
p1041
sg6
S'1951'
p1042
sg8
g52
sg10
S'Actor'
p1043
sg12
S'Cassandra_Peterson'
p1044
sg14
S'USA'
p1045
sg16
S'170'
p1046
sa(dp1047
g2
S'133'
p1048
sg4
S'png'
p1049
sg6
S'1977'
p1050
sg8
g52
sg10
S'Actor'
p1051
sg12
S'Caterina_Murino'
p1052
sg14
S'Italy'
p1053
sg16
g17
sa(dp1054
g2
S'134'
p1055
sg4
S'png'
p1056
sg6
S'1981'
p1057
sg8
g52
sg10
S'Actor'
p1058
sg12
S'Caterina_Scorsone'
p1059
sg14
S'Canada'
p1060
sg16
S'162'
p1061
sa(dp1062
g2
S'135'
p1063
sg4
S'png'
p1064
sg6
S'1955'
p1065
sg8
g52
sg10
S'Director'
p1066
sg12
S'Catherine_Hardwicke'
p1067
sg14
S'USA'
p1068
sg16
g17
sa(dp1069
g2
S'136'
p1070
sg4
S'png'
p1071
sg6
S'1964'
p1072
sg8
g9
sg10
S'Actor'
p1073
sg12
S'Cedric_the_Entertainer'
p1074
sg14
S'USA'
p1075
sg16
g17
sa(dp1076
g2
S'137'
p1077
sg4
S'png'
p1078
sg6
S'1952'
p1079
sg8
g52
sg10
S'Actor'
p1080
sg12
S'Celia_Imrie'
p1081
sg14
S'UK'
p1082
sg16
g17
sa(dp1083
g2
S'138'
p1084
sg4
S'png'
p1085
sg6
S'1985'
p1086
sg8
g9
sg10
S'Actor'
p1087
sg12
S'Chace_Crawford'
p1088
sg14
S'USA'
p1089
sg16
S'183'
p1090
sa(dp1091
g2
S'139'
p1092
sg4
S'png'
p1093
sg6
S'1976'
p1094
sg8
g9
sg10
S'Actor'
p1095
sg12
S'Chadwick_Boseman'
p1096
sg14
S'USA'
p1097
sg16
S'183'
p1098
sa(dp1099
g2
S'140'
p1100
sg4
S'png'
p1101
sg6
S'1992'
p1102
sg8
g52
sg10
S'Musician'
p1103
sg12
S'Charice'
p1104
sg14
S'Philippines '
p1105
sg16
S'155'
p1106
sa(dp1107
g2
S'141'
p1108
sg4
S'png'
p1109
sg6
S'1946'
p1110
sg8
g9
sg10
S'Actor'
p1111
sg12
S'Charles_Dance'
p1112
sg14
S'UK'
p1113
sg16
S'191'
p1114
sa(dp1115
g2
S'142'
p1116
sg4
S'png'
p1117
sg6
S'1951'
p1118
sg8
g9
sg10
S'Actor'
p1119
sg12
S'Charles_S._Dutton'
p1120
sg14
S'USA'
p1121
sg16
S'179'
p1122
sa(dp1123
g2
S'143'
p1124
sg4
S'png'
p1125
sg6
S'1976'
p1126
sg8
g9
sg10
S'Actor'
p1127
sg12
S'Charlie_Day'
p1128
sg14
S'USA'
p1129
sg16
S'170'
p1130
sa(dp1131
g2
S'144'
p1132
sg4
S'png'
p1133
sg6
S'1971'
p1134
sg8
g52
sg10
S'Actor'
p1135
sg12
S'Charlotte_Gainsbourg'
p1136
sg14
S'UK'
p1137
sg16
g17
sa(dp1138
g2
S'145'
p1139
sg4
S'png'
p1140
sg6
S'1952'
p1141
sg8
g9
sg10
S'Actor'
p1142
sg12
S'Chazz_Palminteri'
p1143
sg14
S'USA'
p1144
sg16
S'191'
p1145
sa(dp1146
g2
S'146'
p1147
sg4
S'png'
p1148
sg6
S'1975'
p1149
sg8
g52
sg10
S'Actor'
p1150
sg12
S'Chelsea_Handler'
p1151
sg14
S'USA'
p1152
sg16
S'168'
p1153
sa(dp1154
g2
S'147'
p1155
sg4
S'png'
p1156
sg6
S'1946'
p1157
sg8
g52
sg10
S'Musician'
p1158
sg12
S'Cher'
p1159
sg14
S'USA'
p1160
sg16
S'174'
p1161
sa(dp1162
g2
S'148'
p1163
sg4
S'png'
p1164
sg6
S'1951'
p1165
sg8
g52
sg10
S'Actor'
p1166
sg12
S'Cheryl_Ladd'
p1167
sg14
S'USA'
p1168
sg16
S'163'
p1169
sa(dp1170
g2
S'149'
p1171
sg4
S'png'
p1172
sg6
S'1961'
p1173
sg8
g9
sg10
S'Actor'
p1174
sg12
S'Chi_McBride'
p1175
sg14
S'USA'
p1176
sg16
S'194'
p1177
sa(dp1178
g2
S'150'
p1179
sg4
S'png'
p1180
sg6
S'1977'
p1181
sg8
g9
sg10
S'Actor'
p1182
sg12
S'Chiwetel_Ejiofor'
p1183
sg14
S'UK'
p1184
sg16
S'178'
p1185
sa(dp1186
g2
S'151'
p1187
sg4
S'png'
p1188
sg6
S'1992'
p1189
sg8
g52
sg10
S'Actor'
p1190
sg12
S'Chloe_Bennet'
p1191
sg14
S'USA'
p1192
sg16
S'167'
p1193
sa(dp1194
g2
S'152'
p1195
sg4
S'png'
p1196
sg6
S'1988'
p1197
sg8
g52
sg10
S'Actor'
p1198
sg12
S'Chloe_Dykstra'
p1199
sg14
S'USA'
p1200
sg16
g17
sa(dp1201
g2
S'153'
p1202
sg4
S'png'
p1203
sg6
S'1990'
p1204
sg8
g9
sg10
S'Actor'
p1205
sg12
S'Chris_Colfer'
p1206
sg14
S'USA'
p1207
sg16
S'179'
p1208
sa(dp1209
g2
S'154'
p1210
sg4
S'png'
p1211
sg6
S'1983'
p1212
sg8
g9
sg10
S'Actor'
p1213
sg12
S'Chris_Hemsworth'
p1214
sg14
S'Austrailia'
p1215
sg16
S'190'
p1216
sa(dp1217
g2
S'155'
p1218
sg4
S'png'
p1219
sg6
S'1984'
p1220
sg8
g9
sg10
S'Actor'
p1221
sg12
S'Chris_Lowell'
p1222
sg14
S'USA'
p1223
sg16
g17
sa(dp1224
g2
S'156'
p1225
sg4
S'png'
p1226
sg6
S'1977'
p1227
sg8
g9
sg10
S'Musician'
p1228
sg12
S'Chris_Martin'
p1229
sg14
S'UK'
p1230
sg16
S'186'
p1231
sa(dp1232
g2
S'157'
p1233
sg4
S'png'
p1234
sg6
S'1974'
p1235
sg8
g9
sg10
S'Actor'
p1236
sg12
S'Chris_Messina'
p1237
sg14
S'USA'
p1238
sg16
S'175'
p1239
sa(dp1240
g2
S'158'
p1241
sg4
S'png'
p1242
sg6
S'1980'
p1243
sg8
g9
sg10
S'Actor'
p1244
sg12
S'Chris_Pine'
p1245
sg14
S'USA'
p1246
sg16
S'183'
p1247
sa(dp1248
g2
S'159'
p1249
sg4
S'png'
p1250
sg6
S'1972'
p1251
sg8
g9
sg10
S'Actor'
p1252
sg12
S'Christian_Kane'
p1253
sg14
S'USA'
p1254
sg16
S'174'
p1255
sa(dp1256
g2
S'160'
p1257
sg4
S'png'
p1258
sg6
S'1975'
p1259
sg8
g52
sg10
S'Actor'
p1260
sg12
S'Christina_Hendricks'
p1261
sg14
S'USA'
p1262
sg16
S'171'
p1263
sa(dp1264
g2
S'161'
p1265
sg4
S'png'
p1266
sg6
S'1980'
p1267
sg8
g52
sg10
S'Actor'
p1268
sg12
S'Christina_Ricci'
p1269
sg14
S'USA'
p1270
sg16
S'155'
p1271
sa(dp1272
g2
S'162'
p1273
sg4
S'png'
p1274
sg6
S'1989'
p1275
sg8
g9
sg10
S'Actor'
p1276
sg12
S'Christopher_Mintz-Plasse'
p1277
sg14
S'USA'
p1278
sg16
S'173'
p1279
sa(dp1280
g2
S'163'
p1281
sg4
S'png'
p1282
sg6
S'1995'
p1283
sg8
g52
sg10
S'Actor'
p1284
sg12
S'Cierra_Ramirez'
p1285
sg14
S'USA'
p1286
sg16
S'155'
p1287
sa(dp1288
g2
S'164'
p1289
sg4
S'png'
p1290
sg6
S'1943'
p1291
sg8
g52
sg10
S'Musician'
p1292
sg12
S'Cilla_Black'
p1293
sg14
S'UK'
p1294
sg16
g17
sa(dp1295
g2
S'165'
p1296
sg4
S'png'
p1297
sg6
S'1976'
p1298
sg8
g9
sg10
S'Actor'
p1299
sg12
S'Cillian_Murphy'
p1300
sg14
S'Ireland'
p1301
sg16
S'175'
p1302
sa(dp1303
g2
S'166'
p1304
sg4
S'png'
p1305
sg6
S'1947'
p1306
sg8
g52
sg10
S'Actor'
p1307
sg12
S'Cindy_Williams'
p1308
sg14
S'USA'
p1309
sg16
S'163'
p1310
sa(dp1311
g2
S'167'
p1312
sg4
S'png'
p1313
sg6
S'1972'
p1314
sg8
g52
sg10
S'Actor'
p1315
sg12
S'Claudia_Black'
p1316
sg14
S'Austrailia'
p1317
sg16
g17
sa(dp1318
g2
S'168'
p1319
sg4
S'png'
p1320
sg6
S'1996'
p1321
sg8
g52
sg10
S'Actor'
p1322
sg12
S'Claudia_Lee'
p1323
sg14
S'USA'
p1324
sg16
S'168'
p1325
sa(dp1326
g2
S'169'
p1327
sg4
S'png'
p1328
sg6
S'1968'
p1329
sg8
g9
sg10
S'Actor'
p1330
sg12
S'Cliff_Curtis'
p1331
sg14
S'New Zealand '
p1332
sg16
S'184'
p1333
sa(dp1334
g2
S'170'
p1335
sg4
S'png'
p1336
sg6
S'1964'
p1337
sg8
g9
sg10
S'Actor'
p1338
sg12
S'Clive_Owen'
p1339
sg14
S'UK'
p1340
sg16
S'189'
p1341
sa(dp1342
g2
S'171'
p1343
sg4
S'png'
p1344
sg6
S'1982'
p1345
sg8
g9
sg10
S'Actor'
p1346
sg12
S'Colin_Donnell'
p1347
sg14
S'USA'
p1348
sg16
S'179'
p1349
sa(dp1350
g2
S'172'
p1351
sg4
S'png'
p1352
sg6
S'1970'
p1353
sg8
g52
sg10
S'Actor'
p1354
sg12
S'Constance_Zimmer'
p1355
sg14
S'USA'
p1356
sg16
g17
sa(dp1357
g2
S'173'
p1358
sg4
S'png'
p1359
sg6
S'1989'
p1360
sg8
g9
sg10
S'Actor'
p1361
sg12
S'Corbin_Bleu'
p1362
sg14
S'USA'
p1363
sg16
S'174'
p1364
sa(dp1365
g2
S'174'
p1366
sg4
S'png'
p1367
sg6
S'1976'
p1368
sg8
g9
sg10
S'Actor'
p1369
sg12
S'Corey_Stoll'
p1370
sg14
S'USA'
p1371
sg16
S'187'
p1372
sa(dp1373
g2
S'175'
p1374
sg4
S'png'
p1375
sg6
S'1982'
p1376
sg8
g9
sg10
S'Actor'
p1377
sg12
S'Cory_Monteith'
p1378
sg14
S'Canada'
p1379
sg16
S'192'
p1380
sa(dp1381
g2
S'176'
p1382
sg4
S'png'
p1383
sg6
S'1965'
p1384
sg8
g9
sg10
S'Actor'
p1385
sg12
S'Costas_Mandylor'
p1386
sg14
S'Austrailia'
p1387
sg16
g17
sa(dp1388
g2
S'177'
p1389
sg4
S'png'
p1390
sg6
S'1979'
p1391
sg8
g52
sg10
S'Actor'
p1392
sg12
S'Cote_de_Pablo'
p1393
sg14
S'USA'
p1394
sg16
S'169'
p1395
sa(dp1396
g2
S'178'
p1397
sg4
S'png'
p1398
sg6
S'1985'
p1399
sg8
g52
sg10
S'Actor'
p1400
sg12
S'Cristin_Milioti'
p1401
sg14
S'USA'
p1402
sg16
S'158'
p1403
sa(dp1404
g2
S'179'
p1405
sg4
S'png'
p1406
sg6
S'1953'
p1407
sg8
g52
sg10
S'Musician'
p1408
sg12
S'Cyndi_Lauper'
p1409
sg14
S'USA'
p1410
sg16
S'160'
p1411
sa(dp1412
g2
S'180'
p1413
sg4
S'png'
p1414
sg6
S'1994'
p1415
sg8
g52
sg10
S'Actor'
p1416
sg12
S'Dakota_Fanning'
p1417
sg14
S'USA'
p1418
sg16
S'163'
p1419
sa(dp1420
g2
S'181'
p1421
sg4
S'png'
p1422
sg6
S'1971'
p1423
sg8
g9
sg10
S'Actor'
p1424
sg12
S'Damian_Lewis'
p1425
sg14
S'UK'
p1426
sg16
S'185'
p1427
sa(dp1428
g2
S'182'
p1429
sg4
S'png'
p1430
sg6
S'1973'
p1431
sg8
g9
sg10
S'Writer'
p1432
sg12
S'Damon_Lindelof'
p1433
sg14
S'USA'
p1434
sg16
g17
sa(dp1435
g2
S'183'
p1436
sg4
S'png'
p1437
sg6
S'1960'
p1438
sg8
g9
sg10
S'Actor'
p1439
sg12
S'Damon_Wayans'
p1440
sg14
S'USA'
p1441
sg16
S'188'
p1442
sa(dp1443
g2
S'184'
p1444
sg4
S'png'
p1445
sg6
S'1952'
p1446
sg8
g9
sg10
S'Actor'
p1447
sg12
S'Dan_Aykroyd'
p1448
sg14
S'Canada'
p1449
sg16
S'185'
p1450
sa(dp1451
g2
S'185'
p1452
sg4
S'png'
p1453
sg6
S'1976'
p1454
sg8
g9
sg10
S'Actor'
p1455
sg12
S'Dan_Fogler'
p1456
sg14
S'USA'
p1457
sg16
S'170'
p1458
sa(dp1459
g2
S'186'
p1460
sg4
S'png'
p1461
sg6
S'1982'
p1462
sg8
g9
sg10
S'Actor'
p1463
sg12
S'Dan_Stevens'
p1464
sg14
S'UK'
p1465
sg16
S'183'
p1466
sa(dp1467
g2
S'187'
p1468
sg4
S'png'
p1469
sg6
S'1956'
p1470
sg8
g52
sg10
S'Actor'
p1471
sg12
S'Dana_Delany'
p1472
sg14
S'USA'
p1473
sg16
S'167'
p1474
sa(dp1475
g2
S'188'
p1476
sg4
S'png'
p1477
sg6
S'1972'
p1478
sg8
g9
sg10
S'Actor'
p1479
sg12
S'Dane_Cook'
p1480
sg14
S'USA'
p1481
sg16
S'183'
p1482
sa(dp1483
g2
S'189'
p1484
sg4
S'png'
p1485
sg6
S'1975'
p1486
sg8
g52
sg10
S'Actor'
p1487
sg12
S'Danica_McKellar'
p1488
sg14
S'USA'
p1489
sg16
S'163'
p1490
sa(dp1491
g2
S'190'
p1492
sg4
S'png'
p1493
sg6
S'1950'
p1494
sg8
g9
sg10
S'Actor'
p1495
sg12
S'Daniel_Auteuil'
p1496
sg14
S'France'
p1497
sg16
S'170'
p1498
sa(dp1499
g2
S'191'
p1500
sg4
S'png'
p1501
sg6
S'1968'
p1502
sg8
g9
sg10
S'Actor'
p1503
sg12
S'Daniel_Craig'
p1504
sg14
S'UK'
p1505
sg16
S'178'
p1506
sa(dp1507
g2
S'192'
p1508
sg4
S'png'
p1509
sg6
S'1968'
p1510
sg8
g9
sg10
S'Actor'
p1511
sg12
S'Daniel_Dae_Kim'
p1512
sg14
S'Korea'
p1513
sg16
S'175'
p1514
sa(dp1515
g2
S'193'
p1516
sg4
S'png'
p1517
sg6
S'1975'
p1518
sg8
g9
sg10
S'Actor'
p1519
sg12
S'Daniel_Tosh'
p1520
sg14
S'Germany'
p1521
sg16
S'191'
p1522
sa(dp1523
g2
S'194'
p1524
sg4
S'png'
p1525
sg6
S'1995'
p1526
sg8
g52
sg10
S'Actor'
p1527
sg12
S'Danielle_Campbell'
p1528
sg14
S'USA'
p1529
sg16
S'160'
p1530
sa(dp1531
g2
S'195'
p1532
sg4
S'png'
p1533
sg6
S'1987'
p1534
sg8
g52
sg10
S'Actor'
p1535
sg12
S'Danielle_Panabaker'
p1536
sg14
S'USA'
p1537
sg16
S'168'
p1538
sa(dp1539
g2
S'196'
p1540
sg4
S'png'
p1541
sg6
S'1977'
p1542
sg8
g9
sg10
S'Actor'
p1543
sg12
S'Danny_Dyer'
p1544
sg14
S'UK'
p1545
sg16
S'183'
p1546
sa(dp1547
g2
S'197'
p1548
sg4
S'png'
p1549
sg6
S'1976'
p1550
sg8
g9
sg10
S'Actor'
p1551
sg12
S'Danny_McBride'
p1552
sg14
S'USA'
p1553
sg16
S'178'
p1554
sa(dp1555
g2
S'198'
p1556
sg4
S'png'
p1557
sg6
S'1974'
p1558
sg8
g9
sg10
S'Actor'
p1559
sg12
S'Danny_Pino'
p1560
sg14
S'USA'
p1561
sg16
S'183'
p1562
sa(dp1563
g2
S'199'
p1564
sg4
S'png'
p1565
sg6
S'1987'
p1566
sg8
g9
sg10
S'Actor'
p1567
sg12
S'Darren_Criss'
p1568
sg14
S'USA'
p1569
sg16
S'173'
p1570
sa(dp1571
g2
S'200'
p1572
sg4
S'png'
p1573
sg6
S'1969'
p1574
sg8
g9
sg10
S'Actor'
p1575
sg12
S'Dave_Bautista'
p1576
sg14
S'USA'
p1577
sg16
S'190'
p1578
sa(dp1579
g2
S'201'
p1580
sg4
S'png'
p1581
sg6
S'1963'
p1582
sg8
g9
sg10
S'Actor'
p1583
sg12
S'Dave_Foley'
p1584
sg14
S'Canada'
p1585
sg16
g17
sa(dp1586
g2
S'202'
p1587
sg4
S'png'
p1588
sg6
S'1926'
p1589
sg8
g9
sg10
S'Broadcaster '
p1590
sg12
S'David_Attenborough'
p1591
sg14
S'UK'
p1592
sg16
g17
sa(dp1593
g2
S'203'
p1594
sg4
S'png'
p1595
sg6
S'1950'
p1596
sg8
g9
sg10
S'Actor'
p1597
sg12
S'David_Cassidy'
p1598
sg14
S'USA'
p1599
sg16
g17
sa(dp1600
g2
S'204'
p1601
sg4
S'png'
p1602
sg6
S'1974'
p1603
sg8
g9
sg10
S'Actor'
p1604
sg12
S'David_Faustino'
p1605
sg14
S'USA'
p1606
sg16
S'160'
p1607
sa(dp1608
g2
S'205'
p1609
sg4
S'png'
p1610
sg6
S'1980'
p1611
sg8
g9
sg10
S'Actor'
p1612
sg12
S'David_Giuntoli'
p1613
sg14
S'USA'
p1614
sg16
S'180'
p1615
sa(dp1616
g2
S'206'
p1617
sg4
S'png'
p1618
sg6
S'1965'
p1619
sg8
g9
sg10
S'Actor'
p1620
sg12
S'David_Harewood'
p1621
sg14
S'UK'
p1622
sg16
S'183'
p1623
sa(dp1624
g2
S'207'
p1625
sg4
S'png'
p1626
sg6
S'1989'
p1627
sg8
g9
sg10
S'Actor'
p1628
sg12
S'David_Henrie'
p1629
sg14
S'USA'
p1630
sg16
S'180'
p1631
sa(dp1632
g2
S'208'
p1633
sg4
S'png'
p1634
sg6
S'1940'
p1635
sg8
g9
sg10
S'Actor'
p1636
sg12
S'David_Jason'
p1637
sg14
S'UK'
p1638
sg16
S'168'
p1639
sa(dp1640
g2
S'209'
p1641
sg4
S'png'
p1642
sg6
S'1962'
p1643
sg8
g9
sg10
S'Actor'
p1644
sg12
S'David_Koechner'
p1645
sg14
S'USA'
p1646
sg16
S'188'
p1647
sa(dp1648
g2
S'210'
p1649
sg4
S'png'
p1650
sg6
S'1990'
p1651
sg8
g9
sg10
S'Actor'
p1652
sg12
S'David_Kross'
p1653
sg14
S'Germany'
p1654
sg16
S'181'
p1655
sa(dp1656
g2
S'211'
p1657
sg4
S'png'
p1658
sg6
S'1947'
p1659
sg8
g9
sg10
S'Comedian'
p1660
sg12
S'David_Letterman'
p1661
sg14
S'USA'
p1662
sg16
S'188'
p1663
sa(dp1664
g2
S'212'
p1665
sg4
S'png'
p1666
sg6
S'1976'
p1667
sg8
g9
sg10
S'Actor'
p1668
sg12
S'David_Lyons'
p1669
sg14
S'Austrailia'
p1670
sg16
g17
sa(dp1671
g2
S'213'
p1672
sg4
S'png'
p1673
sg6
S'1947'
p1674
sg8
g9
sg10
S'Writer'
p1675
sg12
S'David_Mamet'
p1676
sg14
S'USA'
p1677
sg16
g17
sa(dp1678
g2
S'214'
p1679
sg4
S'png'
p1680
sg6
S'2001'
p1681
sg8
g9
sg10
S'Actor'
p1682
sg12
S'David_Mazouz'
p1683
sg14
S'USA'
p1684
sg16
S'173'
p1685
sa(dp1686
g2
S'215'
p1687
sg4
S'png'
p1688
sg6
S'1964'
p1689
sg8
g9
sg10
S'Actor'
p1690
sg12
S'David_Morrissey'
p1691
sg14
S'UK'
p1692
sg16
S'191'
p1693
sa(dp1694
g2
S'216'
p1695
sg4
S'png'
p1696
sg6
S'1953'
p1697
sg8
g9
sg10
S'Actor'
p1698
sg12
S'David_Morse'
p1699
sg14
S'USA'
p1700
sg16
S'193'
p1701
sa(dp1702
g2
S'217'
p1703
sg4
S'png'
p1704
sg6
S'1976'
p1705
sg8
g9
sg10
S'Actor'
p1706
sg12
S'David_Oyelowo'
p1707
sg14
S'UK'
p1708
sg16
S'175'
p1709
sa(dp1710
g2
S'218'
p1711
sg4
S'png'
p1712
sg6
S'1966'
p1713
sg8
g9
sg10
S'Actor'
p1714
sg12
S'David_Schwimmer'
p1715
sg14
S'USA'
p1716
sg16
S'185'
p1717
sa(dp1718
g2
S'219'
p1719
sg4
S'png'
p1720
sg6
S'1946'
p1721
sg8
g9
sg10
S'Actor'
p1722
sg12
S'David_Suchet'
p1723
sg14
S'UK'
p1724
sg16
S'170'
p1725
sa(dp1726
g2
S'220'
p1727
sg4
S'png'
p1728
sg6
S'1971'
p1729
sg8
g9
sg10
S'Actor'
p1730
sg12
S'David_Tennant'
p1731
sg14
S'UK'
p1732
sg16
S'185'
p1733
sa(dp1734
g2
S'221'
p1735
sg4
S'png'
p1736
sg6
S'1941'
p1737
sg8
g9
sg10
S'Actor'
p1738
sg12
S'David_Warner'
p1739
sg14
S'UK'
p1740
sg16
S'188'
p1741
sa(dp1742
g2
S'222'
p1743
sg4
S'png'
p1744
sg6
S'1965'
p1745
sg8
g9
sg10
S'Actor'
p1746
sg12
S'David_Wenham'
p1747
sg14
S'Austrailia'
p1748
sg16
S'178'
p1749
sa(dp1750
g2
S'223'
p1751
sg4
S'png'
p1752
sg6
S'1962'
p1753
sg8
g9
sg10
S'Actor'
p1754
sg12
S'David_Zayas'
p1755
sg14
S'USA'
p1756
sg16
g17
sa(dp1757
g2
S'224'
p1758
sg4
S'png'
p1759
sg6
S'1957'
p1760
sg8
g52
sg10
S'Actor'
p1761
sg12
S'Dawn_French'
p1762
sg14
S'UK'
p1763
sg16
S'152'
p1764
sa(dp1765
g2
S'225'
p1766
sg4
S'png'
p1767
sg6
S'1938'
p1768
sg8
g52
sg10
S'Actor'
p1769
sg12
S'Dawn_Wells'
p1770
sg14
S'USA'
p1771
sg16
S'163'
p1772
sa(dp1773
g2
S'226'
p1774
sg4
S'png'
p1775
sg6
S'1966'
p1776
sg8
g9
sg10
S'Actor'
p1777
sg12
S'Dean_Cain'
p1778
sg14
S'USA'
p1779
sg16
S'182'
p1780
sa(dp1781
g2
S'227'
p1782
sg4
S'png'
p1783
sg6
S'1964'
p1784
sg8
g52
sg10
S'Actor'
p1785
sg12
S'Debi_Mazar'
p1786
sg14
S'USA'
p1787
sg16
g17
sa(dp1788
g2
S'228'
p1789
sg4
S'png'
p1790
sg6
S'1951'
p1791
sg8
g52
sg10
S'Actor'
p1792
sg12
S'Debra_Jo_Rupp'
p1793
sg14
S'USA'
p1794
sg16
S'158'
p1795
sa(dp1796
g2
S'229'
p1797
sg4
S'png'
p1798
sg6
S'1947'
p1799
sg8
g52
sg10
S'Actor'
p1800
sg12
S'Deidre_Hall'
p1801
sg14
S'USA'
p1802
sg16
S'170'
p1803
sa(dp1804
g2
S'230'
p1805
sg4
S'png'
p1806
sg6
S'1931'
p1807
sg8
g52
sg10
S'Musician'
p1808
sg12
S'Della_Reese'
p1809
sg14
S'USA'
p1810
sg16
g17
sa(dp1811
g2
S'231'
p1812
sg4
S'png'
p1813
sg6
S'1963'
p1814
sg8
g9
sg10
S'Actor'
p1815
sg12
S'Demian_Bichir'
p1816
sg14
S'Mexico'
p1817
sg16
S'178'
p1818
sa(dp1819
g2
S'232'
p1820
sg4
S'png'
p1821
sg6
S'1957'
p1822
sg8
g9
sg10
S'Actor'
p1823
sg12
S'Denis_Leary'
p1824
sg14
S'USA'
p1825
sg16
S'188'
p1826
sa(dp1827
g2
S'233'
p1828
sg4
S'png'
p1829
sg6
S'1957'
p1830
sg8
g52
sg10
S'Actor'
p1831
sg12
S'Denise_Crosby'
p1832
sg14
S'USA'
p1833
sg16
g17
sa(dp1834
g2
S'234'
p1835
sg4
S'png'
p1836
sg6
S'1938'
p1837
sg8
g9
sg10
S'Actor'
p1838
sg12
S'Derek_Jacobi'
p1839
sg14
S'UK'
p1840
sg16
g17
sa(dp1841
g2
S'235'
p1842
sg4
S'png'
p1843
sg6
S'1972'
p1844
sg8
g9
sg10
S'Actor'
p1845
sg12
S'Derek_Mears'
p1846
sg14
S'USA'
p1847
sg16
S'196'
p1848
sa(dp1849
g2
S'236'
p1850
sg4
S'png'
p1851
sg6
S'1986'
p1852
sg8
g9
sg10
S'Actor'
p1853
sg12
S'Derek_Theler'
p1854
sg14
S'USA'
p1855
sg16
S'196'
p1856
sa(dp1857
g2
S'237'
p1858
sg4
S'png'
p1859
sg6
S'1963'
p1860
sg8
g9
sg10
S'Actor'
p1861
sg12
S'Dermot_Mulroney'
p1862
sg14
S'USA'
p1863
sg16
S'177'
p1864
sa(dp1865
g2
S'238'
p1866
sg4
S'png'
p1867
sg6
S'1978'
p1868
sg8
g52
sg10
S'Writer'
p1869
sg12
S'Diablo_Cody'
p1870
sg14
S'USA'
p1871
sg16
g17
sa(dp1872
g2
S'239'
p1873
sg4
S'png'
p1874
sg6
S'1946'
p1875
sg8
g52
sg10
S'Actor'
p1876
sg12
S'Diane_Keaton'
p1877
sg14
S'USA'
p1878
sg16
S'169'
p1879
sa(dp1880
g2
S'240'
p1881
sg4
S'png'
p1882
sg6
S'1976'
p1883
sg8
g52
sg10
S'Actor'
p1884
sg12
S'Diane_Kruger'
p1885
sg14
S'Germany'
p1886
sg16
S'170'
p1887
sa(dp1888
g2
S'241'
p1889
sg4
S'png'
p1890
sg6
S'1925'
p1891
sg8
g9
sg10
S'Actor'
p1892
sg12
S'Dick_Van_Dyke'
p1893
sg14
S'USA'
p1894
sg16
S'185'
p1895
sa(dp1896
g2
S'242'
p1897
sg4
S'png'
p1898
sg6
S'1979'
p1899
sg8
g9
sg10
S'Actor'
p1900
sg12
S'Diego_Klattenhoff'
p1901
sg14
S'Canada'
p1902
sg16
S'180'
p1903
sa(dp1904
g2
S'243'
p1905
sg4
S'png'
p1906
sg6
S'1979'
p1907
sg8
g9
sg10
S'Actor'
p1908
sg12
S'Diego_Luna'
p1909
sg14
S'Mexico'
p1910
sg16
S'178'
p1911
sa(dp1912
g2
S'244'
p1913
sg4
S'png'
p1914
sg6
S'1981'
p1915
sg8
g9
sg10
S'Actor'
p1916
sg12
S'Diogo_Morgado'
p1917
sg14
S'Portugal'
p1918
sg16
S'190'
p1919
sa(dp1920
g2
S'245'
p1921
sg4
S'png'
p1922
sg6
S'1983'
p1923
sg8
g9
sg10
S'Actor'
p1924
sg12
S'Domhnall_Gleeson'
p1925
sg14
S'Ireland'
p1926
sg16
S'185'
p1927
sa(dp1928
g2
S'246'
p1929
sg4
S'png'
p1930
sg6
S'1978'
p1931
sg8
g9
sg10
S'Actor'
p1932
sg12
S'Dominic_Cooper'
p1933
sg14
S'UK'
p1934
sg16
S'177'
p1935
sa(dp1936
g2
S'247'
p1937
sg4
S'png'
p1938
sg6
S'1926'
p1939
sg8
g9
sg10
S'Comedian'
p1940
sg12
S'Don_Rickles'
p1941
sg14
S'USA'
p1942
sg16
g17
sa(dp1943
g2
S'248'
p1944
sg4
S'png'
p1945
sg6
S'1966'
p1946
sg8
g9
sg10
S'Actor'
p1947
sg12
S'Donal_Logue'
p1948
sg14
S'Canada'
p1949
sg16
g17
sa(dp1950
g2
S'249'
p1951
sg4
S'png'
p1952
sg6
S'1983'
p1953
sg8
g9
sg10
S'Actor'
p1954
sg12
S'Donald_Glover'
p1955
sg14
S'USA'
p1956
sg16
S'178'
p1957
sa(dp1958
g2
S'250'
p1959
sg4
S'png'
p1960
sg6
S'1935'
p1961
sg8
g9
sg10
S'Actor'
p1962
sg12
S'Donald_Sutherland'
p1963
sg14
S'Canada'
p1964
sg16
S'193'
p1965
sa(dp1966
g2
S'251'
p1967
sg4
S'png'
p1968
sg6
S'1940'
p1969
sg8
g52
sg10
S'Actor'
p1970
sg12
S'Donna_Mills'
p1971
sg14
S'USA'
p1972
sg16
g17
sa(dp1973
g2
S'252'
p1974
sg4
S'png'
p1975
sg6
S'1959'
p1976
sg8
g52
sg10
S'Actor'
p1977
sg12
S'Donna_Murphy'
p1978
sg14
S'USA'
p1979
sg16
g17
sa(dp1980
g2
S'253'
p1981
sg4
S'png'
p1982
sg6
S'1963'
p1983
sg8
g9
sg10
S'Actor'
p1984
sg12
S'Donnie_Yen'
p1985
sg14
S'Hong Kong'
p1986
sg16
S'173'
p1987
sa(dp1988
g2
S'254'
p1989
sg4
S'png'
p1990
sg6
S'1964'
p1991
sg8
g52
sg10
S'Actor'
p1992
sg12
S'Dot-Marie_Jones'
p1993
sg14
S'USA'
p1994
sg16
S'191'
p1995
sa(dp1996
g2
S'255'
p1997
sg4
S'png'
p1998
sg6
S'1992'
p1999
sg8
g9
sg10
S'Actor'
p2000
sg12
S'Douglas_Booth'
p2001
sg14
S'UK'
p2002
sg16
S'185'
p2003
sa(dp2004
g2
S'256'
p2005
sg4
S'png'
p2006
sg6
S'1965'
p2007
sg8
g9
sg10
S'Actor'
p2008
sg12
S'Dougray_Scott'
p2009
sg14
S'UK'
p2010
sg16
S'183'
p2011
sa(dp2012
g2
S'257'
p2013
sg4
S'png'
p2014
sg6
S'1985'
p2015
sg8
g52
sg10
S'Model'
p2016
sg12
S'Doutzen_Kroes'
p2017
sg14
S'Netherlands'
p2018
sg16
S'179'
p2019
sa(dp2020
g2
S'258'
p2021
sg4
S'png'
p2022
sg6
S'1996'
p2023
sg8
g52
sg10
S'Actor'
p2024
sg12
S'Dove_Cameron'
p2025
sg14
S'USA'
p2026
sg16
S'157'
p2027
sa(dp2028
g2
S'259'
p2029
sg4
S'png'
p2030
sg6
S'1965'
p2031
sg8
g9
sg10
S'Musician'
p2032
sg12
S'Dr._Dre'
p2033
sg14
S'USA'
p2034
sg16
g17
sa(dp2035
g2
S'260'
p2036
sg4
S'png'
p2037
sg6
S'1986'
p2038
sg8
g9
sg10
S'Musician'
p2039
sg12
S'Drake_Bell'
p2040
sg14
S'USA'
p2041
sg16
g17
sa(dp2042
g2
S'261'
p2043
sg4
S'png'
p2044
sg6
S'1972'
p2045
sg8
g52
sg10
S'Actor'
p2046
sg12
S'Drea_de_Matteo'
p2047
sg14
S'USA'
p2048
sg16
S'168'
p2049
sa(dp2050
g2
S'262'
p2051
sg4
S'png'
p2052
sg6
S'1986'
p2053
sg8
g52
sg10
S'Actor'
p2054
sg12
S'Dreama_Walker'
p2055
sg14
S'USA'
p2056
sg16
S'157'
p2057
sa(dp2058
g2
S'263'
p2059
sg4
S'png'
p2060
sg6
S'1958'
p2061
sg8
g9
sg10
S'Actor'
p2062
sg12
S'Drew_Carey'
p2063
sg14
S'USA'
p2064
sg16
S'178'
p2065
sa(dp2066
g2
S'264'
p2067
sg4
S'png'
p2068
sg6
S'1986'
p2069
sg8
g9
sg10
S'Actor'
p2070
sg12
S'Drew_Roy'
p2071
sg14
S'USA'
p2072
sg16
S'180'
p2073
sa(dp2074
g2
S'265'
p2075
sg4
S'png'
p2076
sg6
S'1985'
p2077
sg8
g9
sg10
S'Actor'
p2078
sg12
S'Dustin_Milligan'
p2079
sg14
S'Canada'
p2080
sg16
S'179'
p2081
sa(dp2082
g2
S'266'
p2083
sg4
S'png'
p2084
sg6
S'1937'
p2085
sg8
g52
sg10
S'Actor'
p2086
sg12
S'Dyan_Cannon'
p2087
sg14
S'USA'
p2088
sg16
g17
sa(dp2089
g2
S'267'
p2090
sg4
S'png'
p2091
sg6
S'1961'
p2092
sg8
g9
sg10
S'Actor'
p2093
sg12
S'Dylan_McDermott'
p2094
sg14
S'USA'
p2095
sg16
S'183'
p2096
sa(dp2097
g2
S'268'
p2098
sg4
S'png'
p2099
sg6
S'1971'
p2100
sg8
g9
sg10
S'Comedian'
p2101
sg12
S'Dylan_Moran'
p2102
sg14
S'Ireland'
p2103
sg16
g17
sa(dp2104
g2
S'269'
p2105
sg4
S'png'
p2106
sg6
S'1927'
p2107
sg8
g52
sg10
S'Musician'
p2108
sg12
S'Eartha_Kitt'
p2109
sg14
S'USA'
p2110
sg16
g17
sa(dp2111
g2
S'270'
p2112
sg4
S'png'
p2113
sg6
S'1987'
p2114
sg8
g9
sg10
S'Actor'
p2115
sg12
S'Ed_Westwick'
p2116
sg14
S'UK'
p2117
sg16
S'175'
p2118
sa(dp2119
g2
S'271'
p2120
sg4
S'png'
p2121
sg6
S'1968'
p2122
sg8
g9
sg10
S'Actor'
p2123
sg12
S'Eddie_Griffin'
p2124
sg14
S'USA'
p2125
sg16
S'170'
p2126
sa(dp2127
g2
S'272'
p2128
sg4
S'png'
p2129
sg6
S'1962'
p2130
sg8
g9
sg10
S'Actor'
p2131
sg12
S'Eddie_Izzard'
p2132
sg14
S'England'
p2133
sg16
S'170'
p2134
sa(dp2135
g2
S'273'
p2136
sg4
S'png'
p2137
sg6
S'1980'
p2138
sg8
g9
sg10
S'Actor'
p2139
sg12
S'Eddie_Kaye_Thomas'
p2140
sg14
S'USA'
p2141
sg16
g17
sa(dp2142
g2
S'274'
p2143
sg4
S'png'
p2144
sg6
S'1967'
p2145
sg8
g9
sg10
S'Actor'
p2146
sg12
S'Eddie_McClintock'
p2147
sg14
S'USA'
p2148
sg16
g17
sa(dp2149
g2
S'275'
p2150
sg4
S'png'
p2151
sg6
S'1974'
p2152
sg8
g9
sg10
S'Director'
p2153
sg12
S'Edgar_Wright'
p2154
sg14
S'UK'
p2155
sg16
S'170'
p2156
sa(dp2157
g2
S'276'
p2158
sg4
S'png'
p2159
sg6
S'1973'
p2160
sg8
g9
sg10
S'Actor'
p2161
sg12
S'Eduardo_Noriega'
p2162
sg14
S'Spain'
p2163
sg16
S'180'
p2164
sa(dp2165
g2
S'277'
p2166
sg4
S'png'
p2167
sg6
S'1929'
p2168
sg8
g9
sg10
S'Actor'
p2169
sg12
S'Edward_Asner'
p2170
sg14
S'USA'
p2171
sg16
S'170'
p2172
sa(dp2173
g2
S'278'
p2174
sg4
S'png'
p2175
sg6
S'1973'
p2176
sg8
g9
sg10
S'Actor'
p2177
sg12
S'Efren_Ramirez'
p2178
sg14
S'USA'
p2179
sg16
S'170'
p2180
sa(dp2181
g2
S'279'
p2182
sg4
S'png'
p2183
sg6
S'1979'
p2184
sg8
g52
sg10
S'Actor'
p2185
sg12
S'Elaine_Cassidy'
p2186
sg14
S'Ireland'
p2187
sg16
g17
sa(dp2188
g2
S'280'
p2189
sg4
S'png'
p2190
sg6
S'1970'
p2191
sg8
g52
sg10
S'Actor'
p2192
sg12
S'Elaine_Hendrix'
p2193
sg14
S'USA'
p2194
sg16
S'173'
p2195
sa(dp2196
g2
S'281'
p2197
sg4
S'png'
p2198
sg6
S'1992'
p2199
sg8
g52
sg10
S'Actor'
p2200
sg12
S'Eleanor_Tomlinson'
p2201
sg14
S'UK'
p2202
sg16
S'171'
p2203
sa(dp2204
g2
S'282'
p2205
sg4
S'png'
p2206
sg6
S'1972'
p2207
sg8
g9
sg10
S'Director'
p2208
sg12
S'Eli_Roth'
p2209
sg14
S'USA'
p2210
sg16
S'182'
p2211
sa(dp2212
g2
S'283'
p2213
sg4
S'png'
p2214
sg6
S'1915'
p2215
sg8
g9
sg10
S'Actor'
p2216
sg12
S'Eli_Wallach'
p2217
sg14
S'USA'
p2218
sg16
S'178'
p2219
sa(dp2220
g2
S'284'
p2221
sg4
S'png'
p2222
sg6
S'1982'
p2223
sg8
g52
sg10
S'Actor'
p2224
sg12
S'Elisabeth_Moss'
p2225
sg14
S'USA'
p2226
sg16
S'160'
p2227
sa(dp2228
g2
S'285'
p2229
sg4
S'png'
p2230
sg6
S'1998'
p2231
sg8
g52
sg10
S'Actor'
p2232
sg12
S'Elle_Fanning'
p2233
sg14
S'USA'
p2234
sg16
S'175'
p2235
sa(dp2236
g2
S'286'
p2237
sg4
S'png'
p2238
sg6
S'1932'
p2239
sg8
g52
sg10
S'Actor'
p2240
sg12
S'Ellen_Burstyn'
p2241
sg14
S'USA'
p2242
sg16
g17
sa(dp2243
g2
S'287'
p2244
sg4
S'png'
p2245
sg6
S'1985'
p2246
sg8
g52
sg10
S'Actor'
p2247
sg12
S'Ellen_Wong'
p2248
sg14
S'Canada'
p2249
sg16
g17
sa(dp2250
g2
S'288'
p2251
sg4
S'png'
p2252
sg6
S'1981'
p2253
sg8
g52
sg10
S'Actor'
p2254
sg12
S'Elodie_Yung'
p2255
sg14
S'France'
p2256
sg16
S'165'
p2257
sa(dp2258
g2
S'289'
p2259
sg4
S'png'
p2260
sg6
S'1985'
p2261
sg8
g9
sg10
S'Actor'
p2262
sg12
S'Emile_Hirsch'
p2263
sg14
S'USA'
p2264
sg16
S'170'
p2265
sa(dp2266
g2
S'290'
p2267
sg4
S'png'
p2268
sg6
S'1989'
p2269
sg8
g52
sg10
S'Actor'
p2270
sg12
S'Emily_Atack'
p2271
sg14
S'UK'
p2272
sg16
g17
sa(dp2273
g2
S'291'
p2274
sg4
S'png'
p2275
sg6
S'1979'
p2276
sg8
g9
sg10
S'Actor'
p2277
sg12
S'Emraan_Hashmi'
p2278
sg14
S'India'
p2279
sg16
S'173'
p2280
sa(dp2281
g2
S'292'
p2282
sg4
S'png'
p2283
sg6
S'1983'
p2284
sg8
g9
sg10
S'Actor'
p2285
sg12
S'Eoin_Macken'
p2286
sg14
S'Ireland'
p2287
sg16
g17
sa(dp2288
g2
S'293'
p2289
sg4
S'png'
p2290
sg6
S'1941'
p2291
sg8
g9
sg10
S'Actor'
p2292
sg12
S'Eric_Braeden'
p2293
sg14
S'Germany'
p2294
sg16
S'185'
p2295
sa(dp2296
g2
S'294'
p2297
sg4
S'png'
p2298
sg6
S'1972'
p2299
sg8
g9
sg10
S'Actor'
p2300
sg12
S'Eric_Dane'
p2301
sg14
S'USA'
p2302
sg16
S'185'
p2303
sa(dp2304
g2
S'295'
p2305
sg4
S'png'
p2306
sg6
S'1963'
p2307
sg8
g9
sg10
S'Actor'
p2308
sg12
S'Eric_McCormack'
p2309
sg14
S'Canada'
p2310
sg16
S'180'
p2311
sa(dp2312
g2
S'296'
p2313
sg4
S'png'
p2314
sg6
S'1956'
p2315
sg8
g9
sg10
S'Actor'
p2316
sg12
S'Eric_Roberts'
p2317
sg14
S'USA'
p2318
sg16
S'178'
p2319
sa(dp2320
g2
S'297'
p2321
sg4
S'png'
p2322
sg6
S'1949'
p2323
sg8
g9
sg10
S'Actor'
p2324
sg12
S'Erik_Estrada'
p2325
sg14
S'USA'
p2326
sg16
S'177'
p2327
sa(dp2328
g2
S'298'
p2329
sg4
S'png'
p2330
sg6
S'1978'
p2331
sg8
g52
sg10
S'Broadcaster '
p2332
sg12
S'Erin_Andrews'
p2333
sg14
S'USA'
p2334
sg16
S'178'
p2335
sa(dp2336
g2
S'299'
p2337
sg4
S'png'
p2338
sg6
S'1917'
p2339
sg8
g9
sg10
S'Actor'
p2340
sg12
S'Ernest_Borgnine'
p2341
sg14
S'USA'
p2342
sg16
S'175'
p2343
sa(dp2344
g2
S'300'
p2345
sg4
S'png'
p2346
sg6
S'1945'
p2347
sg8
g9
sg10
S'Actor'
p2348
sg12
S'Ernie_Hudson'
p2349
sg14
S'USA'
p2350
sg16
S'183'
p2351
sa(dp2352
g2
S'301'
p2353
sg4
S'png'
p2354
sg6
S'1962'
p2355
sg8
g9
sg10
S'Actor'
p2356
sg12
S'Esai_Morales'
p2357
sg14
S'USA'
p2358
sg16
S'178'
p2359
sa(dp2360
g2
S'302'
p2361
sg4
S'png'
p2362
sg6
S'1928'
p2363
sg8
g52
sg10
S'Actor'
p2364
sg12
S'Estelle_Harris'
p2365
sg14
S'USA'
p2366
sg16
g17
sa(dp2367
g2
S'303'
p2368
sg4
S'png'
p2369
sg6
S'1946'
p2370
sg8
g9
sg10
S'Actor'
p2371
sg12
S'Eugene_Levy'
p2372
sg14
S'Canada'
p2373
sg16
S'178'
p2374
sa(dp2375
g2
S'304'
p2376
sg4
S'png'
p2377
sg6
S'1961'
p2378
sg8
g9
sg10
S'Actor'
p2379
sg12
S'Eugenio_Derbez'
p2380
sg14
S'Mexico'
p2381
sg16
S'179'
p2382
sa(dp2383
g2
S'305'
p2384
sg4
S'png'
p2385
sg6
S'1980'
p2386
sg8
g52
sg10
S'Actor'
p2387
sg12
S'Eva_Green'
p2388
sg14
S'France'
p2389
sg16
S'168'
p2390
sa(dp2391
g2
S'306'
p2392
sg4
S'jpg'
p2393
sg6
S'1975'
p2394
sg8
g52
sg10
S'Actor'
p2395
sg12
S'Eva_Longoria'
p2396
sg14
S'USA'
p2397
sg16
S'157'
p2398
sa(dp2399
g2
S'307'
p2400
sg4
S'png'
p2401
sg6
S'1991'
p2402
sg8
g52
sg10
S'Actor'
p2403
sg12
S'Evanna_Lynch'
p2404
sg14
S'Ireland'
p2405
sg16
S'158'
p2406
sa(dp2407
g2
S'308'
p2408
sg4
S'png'
p2409
sg6
S'1992'
p2410
sg8
g9
sg10
S'Actor'
p2411
sg12
S'Ezra_Miller'
p2412
sg14
S'USA'
p2413
sg16
S'180'
p2414
sa(dp2415
g2
S'309'
p2416
sg4
S'png'
p2417
sg6
S'1949'
p2418
sg8
g52
sg10
S'Actor'
p2419
sg12
S'Fanny_Ardant'
p2420
sg14
S'France'
p2421
sg16
S'174'
p2422
sa(dp2423
g2
S'310'
p2424
sg4
S'png'
p2425
sg6
S'1991'
p2426
sg8
g52
sg10
S'Broadcaster '
p2427
sg12
S'Farrah_Abraham'
p2428
sg14
S'USA'
p2429
sg16
S'170'
p2430
sa(dp2431
g2
S'311'
p2432
sg4
S'png'
p2433
sg6
S'1981'
p2434
sg8
g9
sg10
S'Actor'
p2435
sg12
S'Fawad_Khan'
p2436
sg14
S'Pakistan'
p2437
sg16
S'178'
p2438
sa(dp2439
g2
S'312'
p2440
sg4
S'png'
p2441
sg6
S'1979'
p2442
sg8
g52
sg10
S'Actor'
p2443
sg12
S'Felicia_Day'
p2444
sg14
S'USA'
p2445
sg16
S'165'
p2446
sa(dp2447
g2
S'313'
p2448
sg4
S'png'
p2449
sg6
S'1983'
p2450
sg8
g52
sg10
S'Actor'
p2451
sg12
S'Felicity_Jones'
p2452
sg14
S'UK'
p2453
sg16
S'160'
p2454
sa(dp2455
g2
S'314'
p2456
sg4
S'png'
p2457
sg6
S'1975'
p2458
sg8
g52
sg10
S'Musician'
p2459
sg12
S'Fergie'
p2460
sg14
S'USA'
p2461
sg16
S'163'
p2462
sa(dp2463
g2
S'315'
p2464
sg4
S'png'
p2465
sg6
S'1959'
p2466
sg8
g52
sg10
S'Actor'
p2467
sg12
S'Finola_Hughes'
p2468
sg14
S'UK'
p2469
sg16
S'165'
p2470
sa(dp2471
g2
S'316'
p2472
sg4
S'png'
p2473
sg6
S'1958'
p2474
sg8
g52
sg10
S'Actor'
p2475
sg12
S'Fiona_Shaw'
p2476
sg14
S'Ireland'
p2477
sg16
g17
sa(dp2478
g2
S'317'
p2479
sg4
S'png'
p2480
sg6
S'1934'
p2481
sg8
g52
sg10
S'Actor'
p2482
sg12
S'Florence_Henderson'
p2483
sg14
S'USA'
p2484
sg16
g17
sa(dp2485
g2
S'318'
p2486
sg4
S'png'
p2487
sg6
S'1961'
p2488
sg8
g9
sg10
S'Actor'
p2489
sg12
S'Forest_Whitaker'
p2490
sg14
S'USA'
p2491
sg16
S'188'
p2492
sa(dp2493
g2
S'319'
p2494
sg4
S'png'
p2495
sg6
S'1988'
p2496
sg8
g52
sg10
S'Actor'
p2497
sg12
S'Francia_Raisa'
p2498
sg14
S'USA'
p2499
sg16
S'160'
p2500
sa(dp2501
g2
S'320'
p2502
sg4
S'png'
p2503
sg6
S'1938'
p2504
sg8
g9
sg10
S'Actor'
p2505
sg12
S'Fred_Williamson'
p2506
sg14
S'USA'
p2507
sg16
S'191'
p2508
sa(dp2509
g2
S'321'
p2510
sg4
S'png'
p2511
sg6
S'1992'
p2512
sg8
g9
sg10
S'Actor'
p2513
sg12
S'Freddie_Highmore'
p2514
sg14
S'UK'
p2515
sg16
S'178'
p2516
sa(dp2517
g2
S'322'
p2518
sg4
S'png'
p2519
sg6
S'1979'
p2520
sg8
g52
sg10
S'Actor'
p2521
sg12
S'Freema_Agyeman'
p2522
sg14
S'UK'
p2523
sg16
g17
sa(dp2524
g2
S'323'
p2525
sg4
S'png'
p2526
sg6
S'1984'
p2527
sg8
g52
sg10
S'Actor'
p2528
sg12
S'Freida_Pinto'
p2529
sg14
S'India'
p2530
sg16
S'166'
p2531
sa(dp2532
g2
S'324'
p2533
sg4
S'png'
p2534
sg6
S'1984'
p2535
sg8
g9
sg10
S'Actor'
p2536
sg12
S'Garrett_Hedlund'
p2537
sg14
S'USA'
p2538
sg16
S'189'
p2539
sa(dp2540
g2
S'325'
p2541
sg4
S'png'
p2542
sg6
S'1934'
p2543
sg8
g9
sg10
S'Actor'
p2544
sg12
S'Garry_Marshall'
p2545
sg14
S'USA'
p2546
sg16
g17
sa(dp2547
g2
S'326'
p2548
sg4
S'png'
p2549
sg6
S'1944'
p2550
sg8
g9
sg10
S'Actor'
p2551
sg12
S'Gary_Busey'
p2552
sg14
S'USA'
p2553
sg16
S'182'
p2554
sa(dp2555
g2
S'327'
p2556
sg4
S'png'
p2557
sg6
S'1984'
p2558
sg8
g9
sg10
S'Actor'
p2559
sg12
S'Gaspard_Ulliel'
p2560
sg14
S'France'
p2561
sg16
S'180'
p2562
sa(dp2563
g2
S'328'
p2564
sg4
S'png'
p2565
sg6
S'1949'
p2566
sg8
g52
sg10
S'Actor'
p2567
sg12
S'Gates_McFadden'
p2568
sg14
S'USA'
p2569
sg16
S'172'
p2570
sa(dp2571
g2
S'329'
p2572
sg4
S'png'
p2573
sg6
S'1956'
p2574
sg8
g52
sg10
S'Actor'
p2575
sg12
S'Geena_Davis'
p2576
sg14
S'USA'
p2577
sg16
S'183'
p2578
sa(dp2579
g2
S'330'
p2580
sg4
S'png'
p2581
sg6
S'1986'
p2582
sg8
g52
sg10
S'Actor'
p2583
sg12
S'Gemma_Arterton'
p2584
sg14
S'UK'
p2585
sg16
S'170'
p2586
sa(dp2587
g2
S'331'
p2588
sg4
S'png'
p2589
sg6
S'1984'
p2590
sg8
g52
sg10
S'Model'
p2591
sg12
S'Gemma_Atkinson'
p2592
sg14
S'UK'
p2593
sg16
S'175'
p2594
sa(dp2595
g2
S'332'
p2596
sg4
S'png'
p2597
sg6
S'1972'
p2598
sg8
g52
sg10
S'Musician'
p2599
sg12
S'Geri_Halliwell'
p2600
sg14
S'UK'
p2601
sg16
S'155'
p2602
sa(dp2603
g2
S'333'
p2604
sg4
S'png'
p2605
sg6
S'1976'
p2606
sg8
g9
sg10
S'Actor'
p2607
sg12
S'Gilles_Marini'
p2608
sg14
S'France'
p2609
sg16
S'185'
p2610
sa(dp2611
g2
S'334'
p2612
sg4
S'png'
p2613
sg6
S'1982'
p2614
sg8
g52
sg10
S'Actor'
p2615
sg12
S'Gillian_Jacobs'
p2616
sg14
S'USA'
p2617
sg16
S'163'
p2618
sa(dp2619
g2
S'335'
p2620
sg4
S'png'
p2621
sg6
S'1982'
p2622
sg8
g52
sg10
S'Actor'
p2623
sg12
S'Gina_Carano'
p2624
sg14
S'USA'
p2625
sg16
S'173'
p2626
sa(dp2627
g2
S'336'
p2628
sg4
S'png'
p2629
sg6
S'1911'
p2630
sg8
g52
sg10
S'Actor'
p2631
sg12
S'Ginger_Rogers'
p2632
sg14
S'USA'
p2633
sg16
S'164'
p2634
sa(dp2635
g2
S'337'
p2636
sg4
S'png'
p2637
sg6
S'1978'
p2638
sg8
g52
sg10
S'Actor'
p2639
sg12
S'Ginnifer_Goodwin'
p2640
sg14
S'USA'
p2641
sg16
S'168'
p2642
sa(dp2643
g2
S'338'
p2644
sg4
S'png'
p2645
sg6
S'1974'
p2646
sg8
g9
sg10
S'Actor'
p2647
sg12
S'Giovanni_Ribisi'
p2648
sg14
S'USA'
p2649
sg16
S'171'
p2650
sa(dp2651
g2
S'339'
p2652
sg4
S'png'
p2653
sg6
S'1974'
p2654
sg8
g52
sg10
S'Broadcaster '
p2655
sg12
S'Giuliana_Rancic'
p2656
sg14
S'Italy'
p2657
sg16
g17
sa(dp2658
g2
S'340'
p2659
sg4
S'png'
p2660
sg6
S'1970'
p2661
sg8
g9
sg10
S'Musician'
p2662
sg12
S'Glen_Hansard'
p2663
sg14
S'Ireland'
p2664
sg16
g17
sa(dp2665
g2
S'341'
p2666
sg4
S'png'
p2667
sg6
S'1947'
p2668
sg8
g52
sg10
S'Actor'
p2669
sg12
S'Glenn_Close'
p2670
sg14
S'USA'
p2671
sg16
S'165'
p2672
sa(dp2673
g2
S'342'
p2674
sg4
S'png'
p2675
sg6
S'1934'
p2676
sg8
g52
sg10
S'Journalist'
p2677
sg12
S'Gloria_Steinem'
p2678
sg14
S'USA'
p2679
sg16
g17
sa(dp2680
g2
S'343'
p2681
sg4
S'png'
p2682
sg6
S'1983'
p2683
sg8
g52
sg10
S'Actor'
p2684
sg12
S'Golshifteh_Farahani'
p2685
sg14
S'Iran'
p2686
sg16
S'169'
p2687
sa(dp2688
g2
S'344'
p2689
sg4
S'png'
p2690
sg6
S'1972'
p2691
sg8
g9
sg10
S'Actor'
p2692
sg12
S'Goran_Visnjic'
p2693
sg14
S'Croatia'
p2694
sg16
S'193'
p2695
sa(dp2696
g2
S'345'
p2697
sg4
S'png'
p2698
sg6
S'1966'
p2699
sg8
g9
sg10
S'Chef'
p2700
sg12
S'Gordon_Ramsay'
p2701
sg14
S'UK'
p2702
sg16
S'187'
p2703
sa(dp2704
g2
S'346'
p2705
sg4
S'png'
p2706
sg6
S'1968'
p2707
sg8
g9
sg10
S'Actor'
p2708
sg12
S'Grant_Bowler'
p2709
sg14
S'New Zealand '
p2710
sg16
g17
sa(dp2711
g2
S'347'
p2712
sg4
S'png'
p2713
sg6
S'1904'
p2714
sg8
g52
sg10
S'Actor'
p2715
sg12
S'Greer_Garson'
p2716
sg14
S'USA'
p2717
sg16
g17
sa(dp2718
g2
S'348'
p2719
sg4
S'png'
p2720
sg6
S'1984'
p2721
sg8
g9
sg10
S'Actor'
p2722
sg12
S'Greg_Finley'
p2723
sg14
S'USA'
p2724
sg16
S'183'
p2725
sa(dp2726
g2
S'349'
p2727
sg4
S'png'
p2728
sg6
S'1966'
p2729
sg8
g9
sg10
S'Actor'
p2730
sg12
S'Greg_Grunberg'
p2731
sg14
S'USA'
p2732
sg16
g17
sa(dp2733
g2
S'350'
p2734
sg4
S'png'
p2735
sg6
S'1992'
p2736
sg8
g9
sg10
S'Actor'
p2737
sg12
S'Gregg_Sulkin'
p2738
sg14
S'UK'
p2739
sg16
S'175'
p2740
sa(dp2741
g2
S'351'
p2742
sg4
S'png'
p2743
sg6
S'1983'
p2744
sg8
g52
sg10
S'Actor'
p2745
sg12
S'Greta_Gerwig'
p2746
sg14
S'USA'
p2747
sg16
S'173'
p2748
sa(dp2749
g2
S'352'
p2750
sg4
S'png'
p2751
sg6
S'1983'
p2752
sg8
g52
sg10
S'Actor'
p2753
sg12
S'Gugu_Mbatha-Raw'
p2754
sg14
S'UK'
p2755
sg16
S'162'
p2756
sa(dp2757
g2
S'353'
p2758
sg4
S'png'
p2759
sg6
S'1973'
p2760
sg8
g9
sg10
S'Actor'
p2761
sg12
S'Guillaume_Canet'
p2762
sg14
S'France'
p2763
sg16
S'180'
p2764
sa(dp2765
g2
S'354'
p2766
sg4
S'png'
p2767
sg6
S'1967'
p2768
sg8
g9
sg10
S'Actor'
p2769
sg12
S'Guy_Pearce'
p2770
sg14
S'UK'
p2771
sg16
S'180'
p2772
sa(dp2773
g2
S'355'
p2774
sg4
S'png'
p2775
sg6
S'1978'
p2776
sg8
g52
sg10
S'Actor'
p2777
sg12
S'Gwendoline_Christie'
p2778
sg14
S'UK'
p2779
sg16
S'191'
p2780
sa(dp2781
g2
S'356'
p2782
sg4
S'png'
p2783
sg6
S'1996'
p2784
sg8
g52
sg10
S'Actor'
p2785
sg12
S'Hailee_Steinfeld'
p2786
sg14
S'USA'
p2787
sg16
S'173'
p2788
sa(dp2789
g2
S'357'
p2790
sg4
S'png'
p2791
sg6
S'1969'
p2792
sg8
g9
sg10
S'Actor'
p2793
sg12
S'Hal_Sparks'
p2794
sg14
S'USA'
p2795
sg16
g17
sa(dp2796
g2
S'358'
p2797
sg4
S'png'
p2798
sg6
S'1980'
p2799
sg8
g52
sg10
S'Actor'
p2800
sg12
S'Hannah_Simone'
p2801
sg14
S'UK'
p2802
sg16
S'170'
p2803
sa(dp2804
g2
S'359'
p2805
sg4
S'png'
p2806
sg6
S'1981'
p2807
sg8
g52
sg10
S'Actor'
p2808
sg12
S'Hannah_Spearritt'
p2809
sg14
S'UK'
p2810
sg16
g17
sa(dp2811
g2
S'360'
p2812
sg4
S'png'
p2813
sg6
S'1957'
p2814
sg8
g9
sg10
S'Writer'
p2815
sg12
S'Hans_Zimmer'
p2816
sg14
S'Germany'
p2817
sg16
g17
sa(dp2818
g2
S'361'
p2819
sg4
S'png'
p2820
sg6
S'1967'
p2821
sg8
g9
sg10
S'Musician'
p2822
sg12
S'Harry_Connick_Jr.'
p2823
sg14
S'USA'
p2824
sg16
S'185'
p2825
sa(dp2826
g2
S'362'
p2827
sg4
S'png'
p2828
sg6
S'1982'
p2829
sg8
g9
sg10
S'Actor'
p2830
sg12
S'Harry_Shum_Jr.'
p2831
sg14
S'Costa Rica '
p2832
sg16
S'180'
p2833
sa(dp2834
g2
S'363'
p2835
sg4
S'png'
p2836
sg6
S'1984'
p2837
sg8
g9
sg10
S'Actor'
p2838
sg12
S'Harry_Treadaway'
p2839
sg14
S'UK'
p2840
sg16
g17
sa(dp2841
g2
S'364'
p2842
sg4
S'png'
p2843
sg6
S'1939'
p2844
sg8
g9
sg10
S'Actor'
p2845
sg12
S'Harvey_Keitel'
p2846
sg14
S'USA'
p2847
sg16
S'171'
p2848
sa(dp2849
g2
S'365'
p2850
sg4
S'png'
p2851
sg6
S'1984'
p2852
sg8
g52
sg10
S'Actor'
p2853
sg12
S'Hayley_Marie_Norman'
p2854
sg14
S'USA'
p2855
sg16
g17
sa(dp2856
g2
S'366'
p2857
sg4
S'png'
p2858
sg6
S'1970'
p2859
sg8
g52
sg10
S'Actor'
p2860
sg12
S'Heather_Graham'
p2861
sg14
S'USA'
p2862
sg16
S'173'
p2863
sa(dp2864
g2
S'367'
p2865
sg4
S'png'
p2866
sg6
S'1936'
p2867
sg8
g9
sg10
S'Actor'
p2868
sg12
S'Hector_Elizondo'
p2869
sg14
S'USA'
p2870
sg16
g17
sa(dp2871
g2
S'368'
p2872
sg4
S'png'
p2873
sg6
S'1986'
p2874
sg8
g52
sg10
S'Musician'
p2875
sg12
S'Heidi_Montag'
p2876
sg14
S'USA'
p2877
sg16
S'157'
p2878
sa(dp2879
g2
S'369'
p2880
sg4
S'png'
p2881
sg6
S'1971'
p2882
sg8
g52
sg10
S'Actor'
p2883
sg12
S'Heike_Makatsch'
p2884
sg14
S'Germany'
p2885
sg16
S'173'
p2886
sa(dp2887
g2
S'370'
p2888
sg4
S'png'
p2889
sg6
S'1966'
p2890
sg8
g52
sg10
S'Actor'
p2891
sg12
S'Helena_Bonham_Carter'
p2892
sg14
S'UK'
p2893
sg16
S'157'
p2894
sa(dp2895
g2
S'371'
p2896
sg4
S'png'
p2897
sg6
S'1983'
p2898
sg8
g9
sg10
S'Actor'
p2899
sg12
S'Henry_Cavill'
p2900
sg14
S'UK'
p2901
sg16
S'185'
p2902
sa(dp2903
g2
S'372'
p2904
sg4
S'png'
p2905
sg6
S'1982'
p2906
sg8
g52
sg10
S'Actor'
p2907
sg12
S'Hilarie_Burton'
p2908
sg14
S'USA'
p2909
sg16
S'171'
p2910
sa(dp2911
g2
S'373'
p2912
sg4
S'png'
p2913
sg6
S'1974'
p2914
sg8
g52
sg10
S'Actor'
p2915
sg12
S'Hilary_Swank'
p2916
sg14
S'USA'
p2917
sg16
S'168'
p2918
sa(dp2919
g2
S'374'
p2920
sg4
S'png'
p2921
sg6
S'1966'
p2922
sg8
g9
sg10
S'Actor'
p2923
sg12
S'Hill_Harper'
p2924
sg14
S'USA'
p2925
sg16
S'170'
p2926
sa(dp2927
g2
S'375'
p2928
sg4
S'png'
p2929
sg6
S'1988'
p2930
sg8
g52
sg10
S'Actor'
p2931
sg12
S'Holliday_Grainger'
p2932
sg14
S'UK'
p2933
sg16
S'155'
p2934
sa(dp2935
g2
S'376'
p2936
sg4
S'png'
p2937
sg6
S'1981'
p2938
sg8
g52
sg10
S'Soccer Player'
p2939
sg12
S'Hope_Solo'
p2940
sg14
S'USA'
p2941
sg16
S'175'
p2942
sa(dp2943
g2
S'377'
p2944
sg4
S'png'
p2945
sg6
S'1955'
p2946
sg8
g9
sg10
S'Actor'
p2947
sg12
S'Howie_Mandel'
p2948
sg14
S'Canada'
p2949
sg16
S'178'
p2950
sa(dp2951
g2
S'378'
p2952
sg4
S'png'
p2953
sg6
S'1963'
p2954
sg8
g9
sg10
S'Actor'
p2955
sg12
S'Hugh_Bonneville'
p2956
sg14
S'UK'
p2957
sg16
S'187'
p2958
sa(dp2959
g2
S'379'
p2960
sg4
S'png'
p2961
sg6
S'1975'
p2962
sg8
g9
sg10
S'Actor'
p2963
sg12
S'Hugh_Dancy'
p2964
sg14
S'UK'
p2965
sg16
S'180'
p2966
sa(dp2967
g2
S'380'
p2968
sg4
S'png'
p2969
sg6
S'1968'
p2970
sg8
g9
sg10
S'Actor'
p2971
sg12
S'Hugh_Jackman'
p2972
sg14
S'Austrailia'
p2973
sg16
S'188'
p2974
sa(dp2975
g2
S'381'
p2976
sg4
S'png'
p2977
sg6
S'1959'
p2978
sg8
g9
sg10
S'Actor'
p2979
sg12
S'Hugh_Laurie'
p2980
sg14
S'UK'
p2981
sg16
S'189'
p2982
sa(dp2983
g2
S'382'
p2984
sg4
S'png'
p2985
sg6
S'1987'
p2986
sg8
g9
sg10
S'Actor'
p2987
sg12
S'Hunter_Parrish'
p2988
sg14
S'USA'
p2989
sg16
S'170'
p2990
sa(dp2991
g2
S'383'
p2992
sg4
S'png'
p2993
sg6
S'1981'
p2994
sg8
g52
sg10
S'Actor'
p2995
sg12
S'Hye-kyo_Song'
p2996
sg14
S'Korea'
p2997
sg16
S'161'
p2998
sa(dp2999
g2
S'384'
p3000
sg4
S'png'
p3001
sg6
S'1961'
p3002
sg8
g9
sg10
S'Actor'
p3003
sg12
S'Iain_Glen'
p3004
sg14
S'UK'
p3005
sg16
S'185'
p3006
sa(dp3007
g2
S'385'
p3008
sg4
S'png'
p3009
sg6
S'1978'
p3010
sg8
g9
sg10
S'Model'
p3011
sg12
S'Ian_Somerhalder'
p3012
sg14
S'USA'
p3013
sg16
S'177'
p3014
sa(dp3015
g2
S'386'
p3016
sg4
S'png'
p3017
sg6
S'1971'
p3018
sg8
g52
sg10
S'Actor'
p3019
sg12
S'Idina_Menzel'
p3020
sg14
S'USA'
p3021
sg16
S'163'
p3022
sa(dp3023
g2
S'387'
p3024
sg4
S'png'
p3025
sg6
S'1956'
p3026
sg8
g52
sg10
S'Actor'
p3027
sg12
S'Imelda_Staunton'
p3028
sg14
S'UK'
p3029
sg16
S'152'
p3030
sa(dp3031
g2
S'388'
p3032
sg4
S'png'
p3033
sg6
S'1987'
p3034
sg8
g52
sg10
S'Actor'
p3035
sg12
S'India_de_Beaufort'
p3036
sg14
S'UK'
p3037
sg16
g17
sa(dp3038
g2
S'389'
p3039
sg4
S'png'
p3040
sg6
S'1973'
p3041
sg8
g52
sg10
S'Actor'
p3042
sg12
S'Indira_Varma'
p3043
sg14
S'UK'
p3044
sg16
S'171'
p3045
sa(dp3046
g2
S'390'
p3047
sg4
S'png'
p3048
sg6
S'1915'
p3049
sg8
g52
sg10
S'Actor'
p3050
sg12
S'Ingrid_Bergman'
p3051
sg14
S'Sweden'
p3052
sg16
S'175'
p3053
sa(dp3054
g2
S'391'
p3055
sg4
S'png'
p3056
sg6
S'1986'
p3057
sg8
g52
sg10
S'Actor'
p3058
sg12
S'Irina_Shayk'
p3059
sg14
S'Russia'
p3060
sg16
S'178'
p3061
sa(dp3062
g2
S'392'
p3063
sg4
S'png'
p3064
sg6
S'1967'
p3065
sg8
g9
sg10
S'Actor'
p3066
sg12
S'Irrfan_Khan'
p3067
sg14
S'India'
p3068
sg16
S'183'
p3069
sa(dp3070
g2
S'393'
p3071
sg4
S'png'
p3072
sg6
S'1976'
p3073
sg8
g52
sg10
S'Actor'
p3074
sg12
S'Isla_Fisher'
p3075
sg14
S'Austrailia'
p3076
sg16
S'160'
p3077
sa(dp3078
g2
S'394'
p3079
sg4
S'png'
p3080
sg6
S'1985'
p3081
sg8
g9
sg10
S'Actor'
p3082
sg12
S'Iwan_Rheon'
p3083
sg14
S'UK'
p3084
sg16
S'173'
p3085
sa(dp3086
g2
S'395'
p3087
sg4
S'png'
p3088
sg6
S'1970'
p3089
sg8
g52
sg10
S'Actor'
p3090
sg12
S'Izabella_Scorupco'
p3091
sg14
S'Poland'
p3092
sg16
S'174'
p3093
sa(dp3094
g2
S'396'
p3095
sg4
S'png'
p3096
sg6
S'1966'
p3097
sg8
g9
sg10
S'Director'
p3098
sg12
S'J.J._Abrams'
p3099
sg14
S'USA'
p3100
sg16
S'170'
p3101
sa(dp3102
g2
S'397'
p3103
sg4
S'png'
p3104
sg6
S'1955'
p3105
sg8
g9
sg10
S'Actor'
p3106
sg12
S'J.K._Simmons'
p3107
sg14
S'USA'
p3108
sg16
S'178'
p3109
sa(dp3110
g2
S'398'
p3111
sg4
S'png'
p3112
sg6
S'1969'
p3113
sg8
g9
sg10
S'Actor'
p3114
sg12
S'Jack_Black'
p3115
sg14
S'USA'
p3116
sg16
S'168'
p3117
sa(dp3118
g2
S'399'
p3119
sg4
S'png'
p3120
sg6
S'1958'
p3121
sg8
g9
sg10
S'Actor'
p3122
sg12
S'Jack_Coleman'
p3123
sg14
S'USA'
p3124
sg16
g17
sa(dp3125
g2
S'400'
p3126
sg4
S'png'
p3127
sg6
S'1973'
p3128
sg8
g9
sg10
S'Actor'
p3129
sg12
S'Jack_Davenport'
p3130
sg14
S'UK'
p3131
sg16
S'185'
p3132
sa(dp3133
g2
S'401'
p3134
sg4
S'png'
p3135
sg6
S'1996'
p3136
sg8
g9
sg10
S'Actor'
p3137
sg12
S'Jack_Griffo'
p3138
sg14
S'USA'
p3139
sg16
S'173'
p3140
sa(dp3141
g2
S'402'
p3142
sg4
S'png'
p3143
sg6
S'1925'
p3144
sg8
g9
sg10
S'Actor'
p3145
sg12
S'Jack_Lemmon'
p3146
sg14
S'USA'
p3147
sg16
g17
sa(dp3148
g2
S'403'
p3149
sg4
S'png'
p3150
sg6
S'1992'
p3151
sg8
g9
sg10
S'Actor'
p3152
sg12
S'Jack_Reynor'
p3153
sg14
S'USA'
p3154
sg16
S'183'
p3155
sa(dp3156
g2
S'404'
p3157
sg4
S'png'
p3158
sg6
S'1988'
p3159
sg8
g9
sg10
S'Comedian'
p3160
sg12
S'Jack_Whitehall'
p3161
sg14
S'UK'
p3162
sg16
S'185'
p3163
sa(dp3164
g2
S'405'
p3165
sg4
S'png'
p3166
sg6
S'1996'
p3167
sg8
g9
sg10
S'Musician'
p3168
sg12
S'Jacob_Latimore'
p3169
sg14
S'USA'
p3170
sg16
S'170'
p3171
sa(dp3172
g2
S'406'
p3173
sg4
S'png'
p3174
sg6
S'1994'
p3175
sg8
g52
sg10
S'Actor'
p3176
sg12
S'Jacqueline_Emerson'
p3177
sg14
S'USA'
p3178
sg16
g17
sa(dp3179
g2
S'407'
p3180
sg4
S'png'
p3181
sg6
S'1985'
p3182
sg8
g52
sg10
S'Actor'
p3183
sg12
S'Jacqueline_Fernandez'
p3184
sg14
S'Sri Lanka'
p3185
sg16
S'170'
p3186
sa(dp3187
g2
S'408'
p3188
sg4
S'png'
p3189
sg6
S'1987'
p3190
sg8
g52
sg10
S'Actor'
p3191
sg12
S'Jacqueline_MacInnes_Wood'
p3192
sg14
S'Canada'
p3193
sg16
S'173'
p3194
sa(dp3195
g2
S'409'
p3196
sg4
S'png'
p3197
sg6
S'1986'
p3198
sg8
g9
sg10
S'Actor'
p3199
sg12
S'Jai_Courtney'
p3200
sg14
S'Austrailia'
p3201
sg16
S'185'
p3202
sa(dp3203
g2
S'410'
p3204
sg4
S'png'
p3205
sg6
S'1985'
p3206
sg8
g52
sg10
S'Actor'
p3207
sg12
S'Jaime_Winstone'
p3208
sg14
S'USA'
p3209
sg16
g17
sa(dp3210
g2
S'411'
p3211
sg4
S'png'
p3212
sg6
S'1987'
p3213
sg8
g9
sg10
S'Actor'
p3214
sg12
S'Jake_Abel'
p3215
sg14
S'USA'
p3216
sg16
S'185'
p3217
sa(dp3218
g2
S'412'
p3219
sg4
S'png'
p3220
sg6
S'1978'
p3221
sg8
g9
sg10
S'Actor'
p3222
sg12
S'Jake_Johnson'
p3223
sg14
S'USA'
p3224
sg16
S'178'
p3225
sa(dp3226
g2
S'413'
p3227
sg4
S'png'
p3228
sg6
S'1994'
p3229
sg8
g9
sg10
S'Actor'
p3230
sg12
S'Jake_T._Austin'
p3231
sg14
S'USA'
p3232
sg16
S'173'
p3233
sa(dp3234
g2
S'414'
p3235
sg4
S'png'
p3236
sg6
S'1975'
p3237
sg8
g9
sg10
S'Actor'
p3238
sg12
S'Jamel_Debbouze'
p3239
sg14
S'France'
p3240
sg16
S'165'
p3241
sa(dp3242
g2
S'415'
p3243
sg4
S'png'
p3244
sg6
S'1978'
p3245
sg8
g9
sg10
S'Actor'
p3246
sg12
S'James_Badge_Dale'
p3247
sg14
S'USA'
p3248
sg16
S'180'
p3249
sa(dp3250
g2
S'416'
p3251
sg4
S'png'
p3252
sg6
S'1948'
p3253
sg8
g9
sg10
S'Actor'
p3254
sg12
S'James_Cosmo'
p3255
sg14
S'UK'
p3256
sg16
S'188'
p3257
sa(dp3258
g2
S'417'
p3259
sg4
S'png'
p3260
sg6
S'1940'
p3261
sg8
g9
sg10
S'Actor'
p3262
sg12
S'James_Cromwell'
p3263
sg14
S'USA'
p3264
sg16
S'201'
p3265
sa(dp3266
g2
S'418'
p3267
sg4
S'png'
p3268
sg6
S'1931'
p3269
sg8
g9
sg10
S'Actor'
p3270
sg12
S'James_Earl_Jones'
p3271
sg14
S'USA'
p3272
sg16
S'187'
p3273
sa(dp3274
g2
S'419'
p3275
sg4
S'png'
p3276
sg6
S'1968'
p3277
sg8
g9
sg10
S'Actor'
p3278
sg12
S'James_Frain'
p3279
sg14
S'UK'
p3280
sg16
S'183'
p3281
sa(dp3282
g2
S'420'
p3283
sg4
S'png'
p3284
sg6
S'1985'
p3285
sg8
g9
sg10
S'Actor'
p3286
sg12
S'James_Lafferty'
p3287
sg14
S'USA'
p3288
sg16
S'188'
p3289
sa(dp3290
g2
S'421'
p3291
sg4
S'png'
p3292
sg6
S'1926'
p3293
sg8
g9
sg10
S'Actor'
p3294
sg12
S'James_Lipton'
p3295
sg14
S'USA'
p3296
sg16
g17
sa(dp3297
g2
S'422'
p3298
sg4
S'png'
p3299
sg6
S'1973'
p3300
sg8
g9
sg10
S'Actor'
p3301
sg12
S'James_Marsden'
p3302
sg14
S'USA'
p3303
sg16
S'178'
p3304
sa(dp3305
g2
S'423'
p3306
sg4
S'png'
p3307
sg6
S'1990'
p3308
sg8
g9
sg10
S'Musician'
p3309
sg12
S'James_Maslow'
p3310
sg14
S'USA'
p3311
sg16
S'185'
p3312
sa(dp3313
g2
S'424'
p3314
sg4
S'png'
p3315
sg6
S'1965'
p3316
sg8
g9
sg10
S'Actor'
p3317
sg12
S'James_Nesbitt'
p3318
sg14
S'UK'
p3319
sg16
S'182'
p3320
sa(dp3321
g2
S'425'
p3322
sg4
S'png'
p3323
sg6
S'1964'
p3324
sg8
g9
sg10
S'Actor'
p3325
sg12
S'James_Purefoy'
p3326
sg14
S'UK'
p3327
sg16
S'185'
p3328
sa(dp3329
g2
S'426'
p3330
sg4
S'png'
p3331
sg6
S'1976'
p3332
sg8
g9
sg10
S'Actor'
p3333
sg12
S'James_Roday'
p3334
sg14
S'USA'
p3335
sg16
S'175'
p3336
sa(dp3337
g2
S'427'
p3338
sg4
S'png'
p3339
sg6
S'1947'
p3340
sg8
g9
sg10
S'Actor'
p3341
sg12
S'James_Woods'
p3342
sg14
S'USA'
p3343
sg16
S'180'
p3344
sa(dp3345
g2
S'428'
p3346
sg4
S'png'
p3347
sg6
S'1981'
p3348
sg8
g52
sg10
S'Actor'
p3349
sg12
S'Jamie-Lynn_Sigler'
p3350
sg14
S'USA'
p3351
sg16
S'165'
p3352
sa(dp3353
g2
S'429'
p3354
sg4
S'png'
p3355
sg6
S'1983'
p3356
sg8
g52
sg10
S'Actor'
p3357
sg12
S'Jamie_Chung'
p3358
sg14
S'USA'
p3359
sg16
S'167'
p3360
sa(dp3361
g2
S'430'
p3362
sg4
S'png'
p3363
sg6
S'1967'
p3364
sg8
g9
sg10
S'Actor'
p3365
sg12
S'Jamie_Foxx'
p3366
sg14
S'USA'
p3367
sg16
S'175'
p3368
sa(dp3369
g2
S'431'
p3370
sg4
S'png'
p3371
sg6
S'1983'
p3372
sg8
g52
sg10
S'Actor'
p3373
sg12
S'Jana_Kramer'
p3374
sg14
S'USA'
p3375
sg16
S'163'
p3376
sa(dp3377
g2
S'432'
p3378
sg4
S'png'
p3379
sg6
S'1953'
p3380
sg8
g52
sg10
S'Actor'
p3381
sg12
S'Jane_Badler'
p3382
sg14
S'USA'
p3383
sg16
g17
sa(dp3384
g2
S'433'
p3385
sg4
S'png'
p3386
sg6
S'1964'
p3387
sg8
g52
sg10
S'Actor'
p3388
sg12
S'Janeane_Garofalo'
p3389
sg14
S'USA'
p3390
sg16
S'155'
p3391
sa(dp3392
g2
S'434'
p3393
sg4
S'png'
p3394
sg6
S'1988'
p3395
sg8
g52
sg10
S'Actor'
p3396
sg12
S'Janel_Parrish'
p3397
sg14
S'USA'
p3398
sg16
S'157'
p3399
sa(dp3400
g2
S'435'
p3401
sg4
S'png'
p3402
sg6
S'1966'
p3403
sg8
g52
sg10
S'Musician'
p3404
sg12
S'Janet_Jackson'
p3405
sg14
S'USA'
p3406
sg16
S'163'
p3407
sa(dp3408
g2
S'436'
p3409
sg4
S'png'
p3410
sg6
S'1961'
p3411
sg8
g52
sg10
S'Actor'
p3412
sg12
S'Janet_McTeer'
p3413
sg14
S'UK'
p3414
sg16
S'185'
p3415
sa(dp3416
g2
S'437'
p3417
sg4
S'png'
p3418
sg6
S'1985'
p3419
sg8
g52
sg10
S'Actor'
p3420
sg12
S'Janet_Montgomery'
p3421
sg14
S'UK'
p3422
sg16
g17
sa(dp3423
g2
S'438'
p3424
sg4
S'png'
p3425
sg6
S'1955'
p3426
sg8
g52
sg10
S'Model'
p3427
sg12
S'Janice_Dickinson'
p3428
sg14
S'USA'
p3429
sg16
S'178'
p3430
sa(dp3431
g2
S'439'
p3432
sg4
S'png'
p3433
sg6
S'1980'
p3434
sg8
g52
sg10
S'Actor'
p3435
sg12
S'Janina_Gavankar'
p3436
sg14
S'USA'
p3437
sg16
S'170'
p3438
sa(dp3439
g2
S'440'
p3440
sg4
S'png'
p3441
sg6
S'1962'
p3442
sg8
g52
sg10
S'Actor'
p3443
sg12
S'Janine_Turner'
p3444
sg14
S'USA'
p3445
sg16
g17
sa(dp3446
g2
S'441'
p3447
sg4
S'png'
p3448
sg6
S'1978'
p3449
sg8
g52
sg10
S'Actor'
p3450
sg12
S'January_Jones'
p3451
sg14
S'USA'
p3452
sg16
S'168'
p3453
sa(dp3454
g2
S'442'
p3455
sg4
S'png'
p3456
sg6
S'1961'
p3457
sg8
g9
sg10
S'Actor'
p3458
sg12
S'Jared_Harris'
p3459
sg14
S'UK'
p3460
sg16
S'182'
p3461
sa(dp3462
g2
S'443'
p3463
sg4
S'png'
p3464
sg6
S'1971'
p3465
sg8
g9
sg10
S'Actor'
p3466
sg12
S'Jared_Leto'
p3467
sg14
S'USA'
p3468
sg16
S'180'
p3469
sa(dp3470
g2
S'444'
p3471
sg4
S'png'
p3472
sg6
S'1980'
p3473
sg8
g52
sg10
S'Actor'
p3474
sg12
S'Jasika_Nicole'
p3475
sg14
S'USA'
p3476
sg16
g17
sa(dp3477
g2
S'445'
p3478
sg4
S'png'
p3479
sg6
S'1962'
p3480
sg8
g52
sg10
S'Actor'
p3481
sg12
S'Jasmine_Guy'
p3482
sg14
S'USA'
p3483
sg16
g17
sa(dp3484
g2
S'446'
p3485
sg4
S'png'
p3486
sg6
S'1969'
p3487
sg8
g9
sg10
S'Actor'
p3488
sg12
S'Jason_Bateman'
p3489
sg14
S'USA'
p3490
sg16
S'180'
p3491
sa(dp3492
g2
S'447'
p3493
sg4
S'png'
p3494
sg6
S'1969'
p3495
sg8
g9
sg10
S'Actor'
p3496
sg12
S'Jason_Clarke'
p3497
sg14
S'Austrailia'
p3498
sg16
S'187'
p3499
sa(dp3500
g2
S'448'
p3501
sg4
S'png'
p3502
sg6
S'1973'
p3503
sg8
g9
sg10
S'Actor'
p3504
sg12
S'Jason_David_Frank'
p3505
sg14
S'USA'
p3506
sg16
S'180'
p3507
sa(dp3508
g2
S'449'
p3509
sg4
S'png'
p3510
sg6
S'1982'
p3511
sg8
g9
sg10
S'Actor'
p3512
sg12
S'Jason_Dohring'
p3513
sg14
S'USA'
p3514
sg16
g17
sa(dp3515
g2
S'450'
p3516
sg4
S'png'
p3517
sg6
S'1977'
p3518
sg8
g9
sg10
S'Actor'
p3519
sg12
S'Jason_Earles'
p3520
sg14
S'USA'
p3521
sg16
S'165'
p3522
sa(dp3523
g2
S'451'
p3524
sg4
S'png'
p3525
sg6
S'1972'
p3526
sg8
g9
sg10
S'Comedian'
p3527
sg12
S'Jason_Mantzoukas'
p3528
sg14
S'USA'
p3529
sg16
g17
sa(dp3530
g2
S'452'
p3531
sg4
S'png'
p3532
sg6
S'1980'
p3533
sg8
g9
sg10
S'Actor'
p3534
sg12
S'Jason_Segel'
p3535
sg14
S'USA'
p3536
sg16
S'193'
p3537
sa(dp3538
g2
S'453'
p3539
sg4
S'png'
p3540
sg6
S'1982'
p3541
sg8
g9
sg10
S'Actor'
p3542
sg12
S'Jay_Baruchel'
p3543
sg14
S'Canada'
p3544
sg16
S'188'
p3545
sa(dp3546
g2
S'454'
p3547
sg4
S'png'
p3548
sg6
S'1960'
p3549
sg8
g9
sg10
S'Actor'
p3550
sg12
S'Jean-Marc_Barr'
p3551
sg14
S'France'
p3552
sg16
S'180'
p3553
sa(dp3554
g2
S'455'
p3555
sg4
S'png'
p3556
sg6
S'1933'
p3557
sg8
g9
sg10
S'Actor'
p3558
sg12
S'Jean-Paul_Belmondo'
p3559
sg14
S'France'
p3560
sg16
S'176'
p3561
sa(dp3562
g2
S'456'
p3563
sg4
S'png'
p3564
sg6
S'1948'
p3565
sg8
g9
sg10
S'Actor'
p3566
sg12
S'Jean_Reno'
p3567
sg14
S'France'
p3568
sg16
S'188'
p3569
sa(dp3570
g2
S'457'
p3571
sg4
S'png'
p3572
sg6
S'1951'
p3573
sg8
g52
sg10
S'Actor'
p3574
sg12
S'Jean_Smart'
p3575
sg14
S'USA'
p3576
sg16
S'176'
p3577
sa(dp3578
g2
S'458'
p3579
sg4
S'png'
p3580
sg6
S'1991'
p3581
sg8
g52
sg10
S'Actor'
p3582
sg12
S'Jeanine_Mason'
p3583
sg14
S'USA'
p3584
sg16
S'163'
p3585
sa(dp3586
g2
S'459'
p3587
sg4
S'png'
p3588
sg6
S'1979'
p3589
sg8
g52
sg10
S'Artist'
p3590
sg12
S'Jeannie_Mai'
p3591
sg14
S'USA'
p3592
sg16
S'162'
p3593
sa(dp3594
g2
S'460'
p3595
sg4
S'png'
p3596
sg6
S'1955'
p3597
sg8
g9
sg10
S'Actor'
p3598
sg12
S'Jeff_Daniels'
p3599
sg14
S'USA'
p3600
sg16
S'189'
p3601
sa(dp3602
g2
S'461'
p3603
sg4
S'png'
p3604
sg6
S'1962'
p3605
sg8
g9
sg10
S'Actor'
p3606
sg12
S'Jeff_Garlin'
p3607
sg14
S'USA'
p3608
sg16
S'185'
p3609
sa(dp3610
g2
S'462'
p3611
sg4
S'png'
p3612
sg6
S'1952'
p3613
sg8
g9
sg10
S'Actor'
p3614
sg12
S'Jeff_Goldblum'
p3615
sg14
S'USA'
p3616
sg16
S'194'
p3617
sa(dp3618
g2
S'463'
p3619
sg4
S'png'
p3620
sg6
S'1968'
p3621
sg8
g9
sg10
S'Actor'
p3622
sg12
S'Jeffrey_Donovan'
p3623
sg14
S'USA'
p3624
sg16
S'183'
p3625
sa(dp3626
g2
S'464'
p3627
sg4
S'png'
p3628
sg6
S'1944'
p3629
sg8
g9
sg10
S'Actor'
p3630
sg12
S'Jeffrey_Tambor'
p3631
sg14
S'USA'
p3632
sg16
S'185'
p3633
sa(dp3634
g2
S'465'
p3635
sg4
S'png'
p3636
sg6
S'1965'
p3637
sg8
g9
sg10
S'Actor'
p3638
sg12
S'Jeffrey_Wright'
p3639
sg14
S'USA'
p3640
sg16
g17
sa(dp3641
g2
S'466'
p3642
sg4
S'png'
p3643
sg6
S'1974'
p3644
sg8
g9
sg10
S'Actor'
p3645
sg12
S'Jemaine_Clement'
p3646
sg14
S'New Zealand '
p3647
sg16
S'185'
p3648
sa(dp3649
g2
S'467'
p3650
sg4
S'png'
p3651
sg6
S'1988'
p3652
sg8
g52
sg10
S'Actor'
p3653
sg12
S'Jen_Lilley'
p3654
sg14
S'USA'
p3655
sg16
S'157'
p3656
sa(dp3657
g2
S'468'
p3658
sg4
S'png'
p3659
sg6
S'1957'
p3660
sg8
g52
sg10
S'Actor'
p3661
sg12
S'Jenifer_Lewis'
p3662
sg14
S'USA'
p3663
sg16
g17
sa(dp3664
g2
S'469'
p3665
sg4
S'png'
p3666
sg6
S'1986'
p3667
sg8
g52
sg10
S'Actor'
p3668
sg12
S'Jenna_Coleman'
p3669
sg14
S'UK'
p3670
sg16
S'157'
p3671
sa(dp3672
g2
S'470'
p3673
sg4
S'png'
p3674
sg6
S'1974'
p3675
sg8
g52
sg10
S'Actor'
p3676
sg12
S'Jenna_Fischer'
p3677
sg14
S'USA'
p3678
sg16
S'168'
p3679
sa(dp3680
g2
S'471'
p3681
sg4
S'png'
p3682
sg6
S'1992'
p3683
sg8
g52
sg10
S'Actor'
p3684
sg12
S'Jennette_McCurdy'
p3685
sg14
S'USA'
p3686
sg16
S'157'
p3687
sa(dp3688
g2
S'472'
p3689
sg4
S'png'
p3690
sg6
S'1963'
p3691
sg8
g52
sg10
S'Actor'
p3692
sg12
S'Jennifer_Beals'
p3693
sg14
S'USA'
p3694
sg16
S'173'
p3695
sa(dp3696
g2
S'473'
p3697
sg4
S'png'
p3698
sg6
S'1979'
p3699
sg8
g52
sg10
S'Actor'
p3700
sg12
S'Jennifer_Carpenter'
p3701
sg14
S'USA'
p3702
sg16
S'174'
p3703
sa(dp3704
g2
S'474'
p3705
sg4
S'png'
p3706
sg6
S'1961'
p3707
sg8
g52
sg10
S'Actor'
p3708
sg12
S'Jennifer_Coolidge'
p3709
sg14
S'USA'
p3710
sg16
S'178'
p3711
sa(dp3712
g2
S'475'
p3713
sg4
S'png'
p3714
sg6
S'1969'
p3715
sg8
g52
sg10
S'Actor'
p3716
sg12
S'Jennifer_Ehle'
p3717
sg14
S'USA'
p3718
sg16
S'170'
p3719
sa(dp3720
g2
S'476'
p3721
sg4
S'png'
p3722
sg6
S'1973'
p3723
sg8
g52
sg10
S'Actor'
p3724
sg12
S'Jennifer_Esposito'
p3725
sg14
S'USA'
p3726
sg16
S'168'
p3727
sa(dp3728
g2
S'477'
p3729
sg4
S'png'
p3730
sg6
S'1958'
p3731
sg8
g52
sg10
S'Actor'
p3732
sg12
S'Jennifer_Saunders'
p3733
sg14
S'UK'
p3734
sg16
g17
sa(dp3735
g2
S'478'
p3736
sg4
S'png'
p3737
sg6
S'1982'
p3738
sg8
g52
sg10
S'Actor'
p3739
sg12
S'Jenny_Slate'
p3740
sg14
S'USA'
p3741
sg16
S'163'
p3742
sa(dp3743
g2
S'479'
p3744
sg4
S'png'
p3745
sg6
S'1978'
p3746
sg8
g9
sg10
S'Actor'
p3747
sg12
S'Jensen_Ackles'
p3748
sg14
S'USA'
p3749
sg16
S'186'
p3750
sa(dp3751
g2
S'480'
p3752
sg4
S'png'
p3753
sg6
S'1960'
p3754
sg8
g9
sg10
S'Broadcaster '
p3755
sg12
S'Jeremy_Clarkson'
p3756
sg14
S'UK'
p3757
sg16
S'196'
p3758
sa(dp3759
g2
S'481'
p3760
sg4
S'png'
p3761
sg6
S'1948'
p3762
sg8
g9
sg10
S'Actor'
p3763
sg12
S'Jeremy_Irons'
p3764
sg14
S'UK'
p3765
sg16
S'187'
p3766
sa(dp3767
g2
S'482'
p3768
sg4
S'png'
p3769
sg6
S'1990'
p3770
sg8
g9
sg10
S'Actor'
p3771
sg12
S'Jeremy_Irvine'
p3772
sg14
S'UK'
p3773
sg16
S'185'
p3774
sa(dp3775
g2
S'483'
p3776
sg4
S'png'
p3777
sg6
S'1965'
p3778
sg8
g9
sg10
S'Actor'
p3779
sg12
S'Jeremy_Piven'
p3780
sg14
S'USA'
p3781
sg16
S'175'
p3782
sa(dp3783
g2
S'484'
p3784
sg4
S'png'
p3785
sg6
S'1971'
p3786
sg8
g9
sg10
S'Actor'
p3787
sg12
S'Jeremy_Renner'
p3788
sg14
S'USA'
p3789
sg16
S'175'
p3790
sa(dp3791
g2
S'485'
p3792
sg4
S'png'
p3793
sg6
S'1997'
p3794
sg8
g9
sg10
S'Actor'
p3795
sg12
S'Jeremy_Shada'
p3796
sg14
S'USA'
p3797
sg16
S'173'
p3798
sa(dp3799
g2
S'486'
p3800
sg4
S'png'
p3801
sg6
S'1974'
p3802
sg8
g9
sg10
S'Actor'
p3803
sg12
S'Jeremy_Sisto'
p3804
sg14
S'USA'
p3805
sg16
S'187'
p3806
sa(dp3807
g2
S'487'
p3808
sg4
S'png'
p3809
sg6
S'1979'
p3810
sg8
g9
sg10
S'Actor'
p3811
sg12
S'Jerry_Ferrara'
p3812
sg14
S'USA'
p3813
sg16
S'163'
p3814
sa(dp3815
g2
S'488'
p3816
sg4
S'png'
p3817
sg6
S'1977'
p3818
sg8
g9
sg10
S'Actor'
p3819
sg12
S'Jerry_Trainor'
p3820
sg14
S'USA'
p3821
sg16
S'188'
p3822
sa(dp3823
g2
S'489'
p3824
sg4
S'png'
p3825
sg6
S'1983'
p3826
sg8
g9
sg10
S'Actor'
p3827
sg12
S'Jesse_Eisenberg'
p3828
sg14
S'USA'
p3829
sg16
S'171'
p3830
sa(dp3831
g2
S'490'
p3832
sg4
S'png'
p3833
sg6
S'1987'
p3834
sg8
g9
sg10
S'Musician'
p3835
sg12
S'Jesse_McCartney'
p3836
sg14
S'USA'
p3837
sg16
S'176'
p3838
sa(dp3839
g2
S'491'
p3840
sg4
S'png'
p3841
sg6
S'1978'
p3842
sg8
g9
sg10
S'Actor'
p3843
sg12
S'Jesse_Metcalfe'
p3844
sg14
S'USA'
p3845
sg16
S'177'
p3846
sa(dp3847
g2
S'492'
p3848
sg4
S'png'
p3849
sg6
S'1979'
p3850
sg8
g9
sg10
S'Actor'
p3851
sg12
S'Jesse_Spencer'
p3852
sg14
S'Austrailia'
p3853
sg16
S'178'
p3854
sa(dp3855
g2
S'493'
p3856
sg4
S'png'
p3857
sg6
S'1981'
p3858
sg8
g9
sg10
S'Actor'
p3859
sg12
S'Jesse_Williams'
p3860
sg14
S'USA'
p3861
sg16
S'187'
p3862
sa(dp3863
g2
S'494'
p3864
sg4
S'png'
p3865
sg6
S'1988'
p3866
sg8
g52
sg10
S'Actor'
p3867
sg12
S'Jessica_De_Gouw'
p3868
sg14
S'Austrailia'
p3869
sg16
g17
sa(dp3870
g2
S'495'
p3871
sg4
S'png'
p3872
sg6
S'1988'
p3873
sg8
g52
sg10
S'Actor'
p3874
sg12
S'Jessica_Lowndes'
p3875
sg14
S'Canada'
p3876
sg16
S'163'
p3877
sa(dp3878
g2
S'496'
p3879
sg4
S'png'
p3880
sg6
S'1988'
p3881
sg8
g52
sg10
S'Musician'
p3882
sg12
S'Jessie_J'
p3883
sg14
S'UK'
p3884
sg16
S'175'
p3885
sa(dp3886
g2
S'497'
p3887
sg4
S'png'
p3888
sg6
S'1963'
p3889
sg8
g9
sg10
S'Actor'
p3890
sg12
S'Jet_Li'
p3891
sg14
S'China'
p3892
sg16
S'168'
p3893
sa(dp3894
g2
S'498'
p3895
sg4
S'png'
p3896
sg6
S'1972'
p3897
sg8
g52
sg10
S'Musician'
p3898
sg12
S'Jill_Scott'
p3899
sg14
S'USA'
p3900
sg16
g17
sa(dp3901
g2
S'499'
p3902
sg4
S'png'
p3903
sg6
S'1979'
p3904
sg8
g52
sg10
S'Broadcaster '
p3905
sg12
S'Jillian_Harris'
p3906
sg14
S'Canada'
p3907
sg16
g17
sa(dp3908
g2
S'500'
p3909
sg4
S'png'
p3910
sg6
S'1974'
p3911
sg8
g52
sg10
S'Trainer'
p3912
sg12
S'Jillian_Michaels'
p3913
sg14
S'USA'
p3914
sg16
S'159'
p3915
sa(dp3916
g2
S'501'
p3917
sg4
S'png'
p3918
sg6
S'1949'
p3919
sg8
g9
sg10
S'Actor'
p3920
sg12
S'Jim_Broadbent'
p3921
sg14
S'UK'
p3922
sg16
S'187'
p3923
sa(dp3924
g2
S'502'
p3925
sg4
S'png'
p3926
sg6
S'1968'
p3927
sg8
g9
sg10
S'Actor'
p3928
sg12
S'Jim_Caviezel'
p3929
sg14
S'USA'
p3930
sg16
S'188'
p3931
sa(dp3932
g2
S'503'
p3933
sg4
S'png'
p3934
sg6
S'1977'
p3935
sg8
g9
sg10
S'Comedian'
p3936
sg12
S'Jim_Jefferies'
p3937
sg14
S'Austrailia'
p3938
sg16
S'177'
p3939
sa(dp3940
g2
S'504'
p3941
sg4
S'png'
p3942
sg6
S'1978'
p3943
sg8
g9
sg10
S'Actor'
p3944
sg12
S'Jim_Sturgess'
p3945
sg14
S'UK'
p3946
sg16
S'184'
p3947
sa(dp3948
g2
S'505'
p3949
sg4
S'png'
p3950
sg6
S'1974'
p3951
sg8
g9
sg10
S'Broadcaster '
p3952
sg12
S'Jimmy_Fallon'
p3953
sg14
S'USA'
p3954
sg16
S'183'
p3955
sa(dp3956
g2
S'506'
p3957
sg4
S'png'
p3958
sg6
S'1956'
p3959
sg8
g52
sg10
S'Actor'
p3960
sg12
S'Joan_Allen'
p3961
sg14
S'USA'
p3962
sg16
S'178'
p3963
sa(dp3964
g2
S'507'
p3965
sg4
S'png'
p3966
sg6
S'1961'
p3967
sg8
g52
sg10
S'Actor'
p3968
sg12
S'Joan_Chen'
p3969
sg14
S'China'
p3970
sg16
g17
sa(dp3971
g2
S'508'
p3972
sg4
S'png'
p3973
sg6
S'1962'
p3974
sg8
g52
sg10
S'Actor'
p3975
sg12
S'Joan_Cusack'
p3976
sg14
S'USA'
p3977
sg16
S'175'
p3978
sa(dp3979
g2
S'509'
p3980
sg4
S'png'
p3981
sg6
S'1933'
p3982
sg8
g52
sg10
S'Comedian'
p3983
sg12
S'Joan_Rivers'
p3984
sg14
S'USA'
p3985
sg16
g17
sa(dp3986
g2
S'510'
p3987
sg4
S'png'
p3988
sg6
S'1979'
p3989
sg8
g52
sg10
S'Actor'
p3990
sg12
S'Joanna_Krupa'
p3991
sg14
S'Poland'
p3992
sg16
S'170'
p3993
sa(dp3994
g2
S'511'
p3995
sg4
S'png'
p3996
sg6
S'1946'
p3997
sg8
g52
sg10
S'Actor'
p3998
sg12
S'Joanna_Lumley'
p3999
sg14
S'UK'
p4000
sg16
S'173'
p4001
sa(dp4002
g2
S'512'
p4003
sg4
S'png'
p4004
sg6
S'1980'
p4005
sg8
g52
sg10
S'Actor'
p4006
sg12
S'Joanne_Froggatt'
p4007
sg14
S'UK'
p4008
sg16
S'157'
p4009
sa(dp4010
g2
S'513'
p4011
sg4
S'png'
p4012
sg6
S'1957'
p4013
sg8
g9
sg10
S'Actor'
p4014
sg12
S'Joaquim_de_Almeida'
p4015
sg14
S'USA'
p4016
sg16
g17
sa(dp4017
g2
S'514'
p4018
sg4
S'png'
p4019
sg6
S'1967'
p4020
sg8
g9
sg10
S'Actor'
p4021
sg12
S'Joe_Flanigan'
p4022
sg14
S'USA'
p4023
sg16
S'188'
p4024
sa(dp4025
g2
S'515'
p4026
sg4
S'png'
p4027
sg6
S'1974'
p4028
sg8
g9
sg10
S'Actor'
p4029
sg12
S'Joel_Edgerton'
p4030
sg14
S'Austrailia'
p4031
sg16
S'180'
p4032
sa(dp4033
g2
S'516'
p4034
sg4
S'png'
p4035
sg6
S'1979'
p4036
sg8
g9
sg10
S'Actor'
p4037
sg12
S'Joel_Kinnaman'
p4038
sg14
S'Sweden'
p4039
sg16
S'189'
p4040
sa(dp4041
g2
S'517'
p4042
sg4
S'png'
p4043
sg6
S'1971'
p4044
sg8
g9
sg10
S'Comedian'
p4045
sg12
S'Joel_McHale'
p4046
sg14
S'Italy'
p4047
sg16
S'193'
p4048
sa(dp4049
g2
S'518'
p4050
sg4
S'png'
p4051
sg6
S'1972'
p4052
sg8
g9
sg10
S'Actor'
p4053
sg12
S'John_Abraham'
p4054
sg14
S'India'
p4055
sg16
S'183'
p4056
sa(dp4057
g2
S'519'
p4058
sg4
S'png'
p4059
sg6
S'1939'
p4060
sg8
g9
sg10
S'Actor'
p4061
sg12
S'John_Amos'
p4062
sg14
S'USA'
p4063
sg16
S'181'
p4064
sa(dp4065
g2
S'520'
p4066
sg4
S'png'
p4067
sg6
S'1967'
p4068
sg8
g9
sg10
S'Actor'
p4069
sg12
S'John_Barrowman'
p4070
sg14
S'UK'
p4071
sg16
S'183'
p4072
sa(dp4073
g2
S'521'
p4074
sg4
S'png'
p4075
sg6
S'1963'
p4076
sg8
g9
sg10
S'Actor'
p4077
sg12
S'John_Carroll_Lynch'
p4078
sg14
S'USA'
p4079
sg16
S'191'
p4080
sa(dp4081
g2
S'522'
p4082
sg4
S'png'
p4083
sg6
S'1972'
p4084
sg8
g9
sg10
S'Actor'
p4085
sg12
S'John_Cho'
p4086
sg14
S'Korea'
p4087
sg16
S'178'
p4088
sa(dp4089
g2
S'523'
p4090
sg4
S'png'
p4091
sg6
S'1939'
p4092
sg8
g9
sg10
S'Actor'
p4093
sg12
S'John_Cleese'
p4094
sg14
S'UK'
p4095
sg16
S'196'
p4096
sa(dp4097
g2
S'524'
p4098
sg4
S'png'
p4099
sg6
S'1961'
p4100
sg8
g9
sg10
S'Actor'
p4101
sg12
S'John_Corbett'
p4102
sg14
S'USA'
p4103
sg16
S'196'
p4104
sa(dp4105
g2
S'525'
p4106
sg4
S'png'
p4107
sg6
S'1968'
p4108
sg8
g9
sg10
S'Actor'
p4109
sg12
S'John_DiMaggio'
p4110
sg14
S'USA'
p4111
sg16
g17
sa(dp4112
g2
S'526'
p4113
sg4
S'png'
p4114
sg6
S'1985'
p4115
sg8
g9
sg10
S'Actor'
p4116
sg12
S'John_Francis_Daley'
p4117
sg14
S'USA'
p4118
sg16
S'183'
p4119
sa(dp4120
g2
S'527'
p4121
sg4
S'png'
p4122
sg6
S'1984'
p4123
sg8
g9
sg10
S'Actor'
p4124
sg12
S'John_Gallagher_Jr.'
p4125
sg14
S'USA'
p4126
sg16
S'175'
p4127
sa(dp4128
g2
S'528'
p4129
sg4
S'png'
p4130
sg6
S'1952'
p4131
sg8
g9
sg10
S'Actor'
p4132
sg12
S'John_Goodman'
p4133
sg14
S'USA'
p4134
sg16
S'188'
p4135
sa(dp4136
g2
S'529'
p4137
sg4
S'png'
p4138
sg6
S'1959'
p4139
sg8
g9
sg10
S'Actor'
p4140
sg12
S'John_Hawkes'
p4141
sg14
S'USA'
p4142
sg16
g17
sa(dp4143
g2
S'530'
p4144
sg4
S'png'
p4145
sg6
S'1971'
p4146
sg8
g9
sg10
S'Writer'
p4147
sg12
S'John_Hodgman'
p4148
sg14
S'USA'
p4149
sg16
g17
sa(dp4150
g2
S'531'
p4151
sg4
S'png'
p4152
sg6
S'1940'
p4153
sg8
g9
sg10
S'Actor'
p4154
sg12
S'John_Hurt'
p4155
sg14
S'UK'
p4156
sg16
S'175'
p4157
sa(dp4158
g2
S'532'
p4159
sg4
S'png'
p4160
sg6
S'1979'
p4161
sg8
g9
sg10
S'Actor'
p4162
sg12
S'John_Krasinski'
p4163
sg14
S'USA'
p4164
sg16
S'191'
p4165
sa(dp4166
g2
S'533'
p4167
sg4
S'png'
p4168
sg6
S'1947'
p4169
sg8
g9
sg10
S'Actor'
p4170
sg12
S'John_Larroquette'
p4171
sg14
S'USA'
p4172
sg16
S'193'
p4173
sa(dp4174
g2
S'534'
p4175
sg4
S'png'
p4176
sg6
S'1957'
p4177
sg8
g9
sg10
S'Producer'
p4178
sg12
S'John_Lasseter'
p4179
sg14
S'USA'
p4180
sg16
g17
sa(dp4181
g2
S'535'
p4182
sg4
S'png'
p4183
sg6
S'1975'
p4184
sg8
g9
sg10
S'Actor'
p4185
sg12
S'John_Lloyd_Young'
p4186
sg14
S'USA'
p4187
sg16
g17
sa(dp4188
g2
S'536'
p4189
sg4
S'png'
p4190
sg6
S'1982'
p4191
sg8
g9
sg10
S'Comedian'
p4192
sg12
S'John_Mulaney'
p4193
sg14
S'USA'
p4194
sg16
S'185'
p4195
sa(dp4196
g2
S'537'
p4197
sg4
S'png'
p4198
sg6
S'1943'
p4199
sg8
g9
sg10
S'Actor'
p4200
sg12
S'John_Nettles'
p4201
sg14
S'UK'
p4202
sg16
S'178'
p4203
sa(dp4204
g2
S'538'
p4205
sg4
S'png'
p4206
sg6
S'1948'
p4207
sg8
g9
sg10
S'Actor'
p4208
sg12
S'John_Noble'
p4209
sg14
S'Austrailia'
p4210
sg16
g17
sa(dp4211
g2
S'539'
p4212
sg4
S'png'
p4213
sg6
S'1977'
p4214
sg8
g9
sg10
S'Comedian'
p4215
sg12
S'John_Oliver'
p4216
sg14
S'UK'
p4217
sg16
S'183'
p4218
sa(dp4219
g2
S'540'
p4220
sg4
S'png'
p4221
sg6
S'1944'
p4222
sg8
g9
sg10
S'Actor'
p4223
sg12
S'John_Rhys-Davies'
p4224
sg14
S'UK'
p4225
sg16
S'185'
p4226
sa(dp4227
g2
S'541'
p4228
sg4
S'png'
p4229
sg6
S'1970'
p4230
sg8
g9
sg10
S'Actor'
p4231
sg12
S'John_Simm'
p4232
sg14
S'UK'
p4233
sg16
g17
sa(dp4234
g2
S'542'
p4235
sg4
S'png'
p4236
sg6
S'1962'
p4237
sg8
g9
sg10
S'Actor'
p4238
sg12
S'John_Slattery'
p4239
sg14
S'USA'
p4240
sg16
S'178'
p4241
sa(dp4242
g2
S'543'
p4243
sg4
S'png'
p4244
sg6
S'1980'
p4245
sg8
g9
sg10
S'Soccer Player'
p4246
sg12
S'John_Terry'
p4247
sg14
S'UK'
p4248
sg16
S'187'
p4249
sa(dp4250
g2
S'544'
p4251
sg4
S'png'
p4252
sg6
S'1957'
p4253
sg8
g9
sg10
S'Actor'
p4254
sg12
S'John_Turturro'
p4255
sg14
S'USA'
p4256
sg16
S'184'
p4257
sa(dp4258
g2
S'545'
p4259
sg4
S'png'
p4260
sg6
S'1969'
p4261
sg8
g9
sg10
S'Actor'
p4262
sg12
S'Johnathon_Schaech'
p4263
sg14
S'USA'
p4264
sg16
g17
sa(dp4265
g2
S'546'
p4266
sg4
S'png'
p4267
sg6
S'1975'
p4268
sg8
g9
sg10
S'Actor'
p4269
sg12
S'Johnny_Galecki'
p4270
sg14
S'USA'
p4271
sg16
S'165'
p4272
sa(dp4273
g2
S'547'
p4274
sg4
S'png'
p4275
sg6
S'1966'
p4276
sg8
g9
sg10
S'Director'
p4277
sg12
S'Jon_Favreau'
p4278
sg14
S'USA'
p4279
sg16
S'183'
p4280
sa(dp4281
g2
S'548'
p4282
sg4
S'png'
p4283
sg6
S'1976'
p4284
sg8
g9
sg10
S'Actor'
p4285
sg12
S'Jon_Huertas'
p4286
sg14
S'USA'
p4287
sg16
g17
sa(dp4288
g2
S'549'
p4289
sg4
S'png'
p4290
sg6
S'1957'
p4291
sg8
g9
sg10
S'Actor'
p4292
sg12
S'Jon_Lovitz'
p4293
sg14
S'USA'
p4294
sg16
g17
sa(dp4295
g2
S'550'
p4296
sg4
S'png'
p4297
sg6
S'1919'
p4298
sg8
g9
sg10
S'Actor'
p4299
sg12
S'Jon_Pertwee'
p4300
sg14
S'UK'
p4301
sg16
g17
sa(dp4302
g2
S'551'
p4303
sg4
S'png'
p4304
sg6
S'1970'
p4305
sg8
g9
sg10
S'Actor'
p4306
sg12
S'Jon_Seda'
p4307
sg14
S'USA'
p4308
sg16
S'173'
p4309
sa(dp4310
g2
S'552'
p4311
sg4
S'png'
p4312
sg6
S'1982'
p4313
sg8
g9
sg10
S'Actor'
p4314
sg12
S'Jonathan_Jackson'
p4315
sg14
S'USA'
p4316
sg16
g17
sa(dp4317
g2
S'553'
p4318
sg4
S'png'
p4319
sg6
S'1977'
p4320
sg8
g9
sg10
S'Actor'
p4321
sg12
S'Jonathan_Rhys_Meyers'
p4322
sg14
S'Ireland'
p4323
sg16
S'178'
p4324
sa(dp4325
g2
S'554'
p4326
sg4
S'png'
p4327
sg6
S'1989'
p4328
sg8
g9
sg10
S'Actor'
p4329
sg12
S'Jordan_Gavaris'
p4330
sg14
S'Canada'
p4331
sg16
g17
sa(dp4332
g2
S'555'
p4333
sg4
S'png'
p4334
sg6
S'1980'
p4335
sg8
g52
sg10
S'Actor'
p4336
sg12
S'Jordana_Brewster'
p4337
sg14
S'USA'
p4338
sg16
S'170'
p4339
sa(dp4340
g2
S'556'
p4341
sg4
S'png'
p4342
sg6
S'1989'
p4343
sg8
g52
sg10
S'Musician'
p4344
sg12
S'Jordin_Sparks'
p4345
sg14
S'USA'
p4346
sg16
S'178'
p4347
sa(dp4348
g2
S'557'
p4349
sg4
S'png'
p4350
sg6
S'1973'
p4351
sg8
g9
sg10
S'Actor'
p4352
sg12
S'Jorge_Garcia'
p4353
sg14
S'USA'
p4354
sg16
S'183'
p4355
sa(dp4356
g2
S'558'
p4357
sg4
S'png'
p4358
sg6
S'1968'
p4359
sg8
g52
sg10
S'Actor'
p4360
sg12
S'Jorja_Fox'
p4361
sg14
S'USA'
p4362
sg16
S'178'
p4363
sa(dp4364
g2
S'559'
p4365
sg4
S'png'
p4366
sg6
S'1981'
p4367
sg8
g9
sg10
S'Actor'
p4368
sg12
S'Joseph_Gordon-Levitt'
p4369
sg14
S'USA'
p4370
sg16
S'176'
p4371
sa(dp4372
g2
S'560'
p4373
sg4
S'png'
p4374
sg6
S'1968'
p4375
sg8
g9
sg10
S'Actor'
p4376
sg12
S'Josh_Brolin'
p4377
sg14
S'USA'
p4378
sg16
S'179'
p4379
sa(dp4380
g2
S'561'
p4381
sg4
S'png'
p4382
sg6
S'1972'
p4383
sg8
g9
sg10
S'Actor'
p4384
sg12
S'Josh_Duhamel'
p4385
sg14
S'USA'
p4386
sg16
S'192'
p4387
sa(dp4388
g2
S'562'
p4389
sg4
S'png'
p4390
sg6
S'1981'
p4391
sg8
g9
sg10
S'Actor'
p4392
sg12
S'Josh_Gad'
p4393
sg14
S'USA'
p4394
sg16
S'168'
p4395
sa(dp4396
g2
S'563'
p4397
sg4
S'png'
p4398
sg6
S'1981'
p4399
sg8
g9
sg10
S'Musician'
p4400
sg12
S'Josh_Groban'
p4401
sg14
S'USA'
p4402
sg16
S'180'
p4403
sa(dp4404
g2
S'564'
p4405
sg4
S'png'
p4406
sg6
S'1981'
p4407
sg8
g9
sg10
S'Actor'
p4408
sg12
S'Josh_Henderson'
p4409
sg14
S'USA'
p4410
sg16
S'180'
p4411
sa(dp4412
g2
S'565'
p4413
sg4
S'png'
p4414
sg6
S'1986'
p4415
sg8
g9
sg10
S'Actor'
p4416
sg12
S'Josh_Peck'
p4417
sg14
S'USA'
p4418
sg16
S'183'
p4419
sa(dp4420
g2
S'566'
p4421
sg4
S'png'
p4422
sg6
S'1974'
p4423
sg8
g9
sg10
S'Actor'
p4424
sg12
S'Josh_Radnor'
p4425
sg14
S'USA'
p4426
sg16
S'182'
p4427
sa(dp4428
g2
S'567'
p4429
sg4
S'png'
p4430
sg6
S'1987'
p4431
sg8
g52
sg10
S'Musician'
p4432
sg12
S'Joss_Stone'
p4433
sg14
S'UK'
p4434
sg16
S'178'
p4435
sa(dp4436
g2
S'568'
p4437
sg4
S'png'
p4438
sg6
S'1964'
p4439
sg8
g9
sg10
S'Director'
p4440
sg12
S'Joss_Whedon'
p4441
sg14
S'USA'
p4442
sg16
g17
sa(dp4443
g2
S'569'
p4444
sg4
S'png'
p4445
sg6
S'1949'
p4446
sg8
g52
sg10
S'Actor'
p4447
sg12
S'Judith_Light'
p4448
sg14
S'USA'
p4449
sg16
g17
sa(dp4450
g2
S'570'
p4451
sg4
S'png'
p4452
sg6
S'1942'
p4453
sg8
g52
sg10
S'Lawyer'
p4454
sg12
S'Judy_Sheindlin'
p4455
sg14
S'USA'
p4456
sg16
S'155'
p4457
sa(dp4458
g2
S'571'
p4459
sg4
S'png'
p4460
sg6
S'1961'
p4461
sg8
g52
sg10
S'Actor'
p4462
sg12
S'Julia_Louis-Dreyfus'
p4463
sg14
S'USA'
p4464
sg16
S'160'
p4465
sa(dp4466
g2
S'572'
p4467
sg4
S'png'
p4468
sg6
S'1967'
p4469
sg8
g52
sg10
S'Actor'
p4470
sg12
S'Julia_Roberts'
p4471
sg14
S'USA'
p4472
sg16
S'175'
p4473
sa(dp4474
g2
S'573'
p4475
sg4
S'png'
p4476
sg6
S'1981'
p4477
sg8
g52
sg10
S'Actor'
p4478
sg12
S'Julia_Stiles'
p4479
sg14
S'USA'
p4480
sg16
S'173'
p4481
sa(dp4482
g2
S'574'
p4483
sg4
S'png'
p4484
sg6
S'1958'
p4485
sg8
g9
sg10
S'Actor'
p4486
sg12
S'Julian_Sands'
p4487
sg14
S'UK'
p4488
sg16
S'180'
p4489
sa(dp4490
g2
S'575'
p4491
sg4
S'png'
p4492
sg6
S'1988'
p4493
sg8
g52
sg10
S'Musician'
p4494
sg12
S'Julianne_Hough'
p4495
sg14
S'USA'
p4496
sg16
S'160'
p4497
sa(dp4498
g2
S'576'
p4499
sg4
S'png'
p4500
sg6
S'1971'
p4501
sg8
g52
sg10
S'Actor'
p4502
sg12
S'Julianne_Nicholson'
p4503
sg14
S'USA'
p4504
sg16
S'175'
p4505
sa(dp4506
g2
S'577'
p4507
sg4
S'png'
p4508
sg6
S'1970'
p4509
sg8
g52
sg10
S'Broadcaster '
p4510
sg12
S'Julie_Chen'
p4511
sg14
S'USA'
p4512
sg16
S'164'
p4513
sa(dp4514
g2
S'578'
p4515
sg4
S'png'
p4516
sg6
S'1981'
p4517
sg8
g52
sg10
S'Actor'
p4518
sg12
S'Julie_Gonzalo'
p4519
sg14
S'Argentina'
p4520
sg16
S'173'
p4521
sa(dp4522
g2
S'579'
p4523
sg4
S'png'
p4524
sg6
S'1950'
p4525
sg8
g52
sg10
S'Actor'
p4526
sg12
S'Julie_Walters'
p4527
sg14
S'UK'
p4528
sg16
g17
sa(dp4529
g2
S'580'
p4530
sg4
S'png'
p4531
sg6
S'1984'
p4532
sg8
g52
sg10
S'Actor'
p4533
sg12
S'Justine_Ezarik'
p4534
sg14
S'USA'
p4535
sg16
S'160'
p4536
sa(dp4537
g2
S'581'
p4538
sg4
S'png'
p4539
sg6
S'1977'
p4540
sg8
g9
sg10
S'Actor'
p4541
sg12
S'Kal_Penn'
p4542
sg14
S'USA'
p4543
sg16
S'178'
p4544
sa(dp4545
g2
S'582'
p4546
sg4
S'png'
p4547
sg6
S'1987'
p4548
sg8
g52
sg10
S'Actor'
p4549
sg12
S'Kangana_Ranaut'
p4550
sg14
S'India'
p4551
sg16
S'173'
p4552
sa(dp4553
g2
S'583'
p4554
sg4
S'png'
p4555
sg6
S'1999'
p4556
sg8
g9
sg10
S'Actor'
p4557
sg12
S'Karan_Brar'
p4558
sg14
S'USA'
p4559
sg16
S'165'
p4560
sa(dp4561
g2
S'584'
p4562
sg4
S'png'
p4563
sg6
S'1912'
p4564
sg8
g9
sg10
S'Actor'
p4565
sg12
S'Karl_Malden'
p4566
sg14
S'USA'
p4567
sg16
S'185'
p4568
sa(dp4569
g2
S'585'
p4570
sg4
S'png'
p4571
sg6
S'1985'
p4572
sg8
g52
sg10
S'Actor'
p4573
sg12
S'Karla_Souza'
p4574
sg14
S'Mexico'
p4575
sg16
S'163'
p4576
sa(dp4577
g2
S'586'
p4578
sg4
S'png'
p4579
sg6
S'1984'
p4580
sg8
g52
sg10
S'Actor'
p4581
sg12
S'Karoline_Herfurth'
p4582
sg14
S'Germany'
p4583
sg16
S'164'
p4584
sa(dp4585
g2
S'587'
p4586
sg4
S'png'
p4587
sg6
S'1986'
p4588
sg8
g52
sg10
S'Actor'
p4589
sg12
S'Kat_Dennings'
p4590
sg14
S'USA'
p4591
sg16
S'161'
p4592
sa(dp4593
g2
S'588'
p4594
sg4
S'png'
p4595
sg6
S'1973'
p4596
sg8
g52
sg10
S'Actor'
p4597
sg12
S'Kate_Beckinsale'
p4598
sg14
S'UK'
p4599
sg16
S'170'
p4600
sa(dp4601
g2
S'589'
p4602
sg4
S'png'
p4603
sg6
S'1964'
p4604
sg8
g52
sg10
S'Actor'
p4605
sg12
S'Kate_Flannery'
p4606
sg14
S'USA'
p4607
sg16
g17
sa(dp4608
g2
S'590'
p4609
sg4
S'png'
p4610
sg6
S'1987'
p4611
sg8
g52
sg10
S'Actor'
p4612
sg12
S'Kate_Mansi'
p4613
sg14
S'USA'
p4614
sg16
g17
sa(dp4615
g2
S'591'
p4616
sg4
S'png'
p4617
sg6
S'1983'
p4618
sg8
g52
sg10
S'Actor'
p4619
sg12
S'Kate_Mara'
p4620
sg14
S'USA'
p4621
sg16
S'160'
p4622
sa(dp4623
g2
S'592'
p4624
sg4
S'png'
p4625
sg6
S'1984'
p4626
sg8
g52
sg10
S'Actor'
p4627
sg12
S'Kate_McKinnon'
p4628
sg14
S'USA'
p4629
sg16
S'161'
p4630
sa(dp4631
g2
S'593'
p4632
sg4
S'png'
p4633
sg6
S'1955'
p4634
sg8
g52
sg10
S'Actor'
p4635
sg12
S'Kate_Mulgrew'
p4636
sg14
S'USA'
p4637
sg16
S'165'
p4638
sa(dp4639
g2
S'594'
p4640
sg4
S'png'
p4641
sg6
S'1986'
p4642
sg8
g52
sg10
S'Musician'
p4643
sg12
S'Kate_Voegele'
p4644
sg14
S'USA'
p4645
sg16
g17
sa(dp4646
g2
S'595'
p4647
sg4
S'png'
p4648
sg6
S'1967'
p4649
sg8
g52
sg10
S'Actor'
p4650
sg12
S'Kate_Walsh'
p4651
sg14
S'USA'
p4652
sg16
S'178'
p4653
sa(dp4654
g2
S'596'
p4655
sg4
S'png'
p4656
sg6
S'1980'
p4657
sg8
g52
sg10
S'Actor'
p4658
sg12
S'Katee_Sackhoff'
p4659
sg14
S'USA'
p4660
sg16
S'168'
p4661
sa(dp4662
g2
S'597'
p4663
sg4
S'png'
p4664
sg6
S'1954'
p4665
sg8
g52
sg10
S'Actor'
p4666
sg12
S'Katey_Sagal'
p4667
sg14
S'USA'
p4668
sg16
g17
sa(dp4669
g2
S'598'
p4670
sg4
S'png'
p4671
sg6
S'1984'
p4672
sg8
g52
sg10
S'Musician'
p4673
sg12
S'Katharine_McPhee'
p4674
sg14
S'USA'
p4675
sg16
S'173'
p4676
sa(dp4677
g2
S'599'
p4678
sg4
S'png'
p4679
sg6
S'1978'
p4680
sg8
g52
sg10
S'Actor'
p4681
sg12
S'Katherine_Heigl'
p4682
sg14
S'USA'
p4683
sg16
S'174'
p4684
sa(dp4685
g2
S'600'
p4686
sg4
S'png'
p4687
sg6
S'1980'
p4688
sg8
g52
sg10
S'Musician'
p4689
sg12
S'Katherine_Jenkins'
p4690
sg14
S'UK'
p4691
sg16
g17
sa(dp4692
g2
S'601'
p4693
sg4
S'png'
p4694
sg6
S'1995'
p4695
sg8
g52
sg10
S'Actor'
p4696
sg12
S'Katherine_McNamara'
p4697
sg14
S'USA'
p4698
sg16
S'164'
p4699
sa(dp4700
g2
S'602'
p4701
sg4
S'png'
p4702
sg6
S'1977'
p4703
sg8
g52
sg10
S'Actor'
p4704
sg12
S'Katheryn_Winnick'
p4705
sg14
S'Canada'
p4706
sg16
S'168'
p4707
sa(dp4708
g2
S'603'
p4709
sg4
S'png'
p4710
sg6
S'1953'
p4711
sg8
g52
sg10
S'Broadcaster '
p4712
sg12
S'Kathie_Lee_Gifford'
p4713
sg14
S'France'
p4714
sg16
S'165'
p4715
sa(dp4716
g2
S'604'
p4717
sg4
S'png'
p4718
sg6
S'1973'
p4719
sg8
g52
sg10
S'Actor'
p4720
sg12
S'Kathleen_Robertson'
p4721
sg14
S'Canada'
p4722
sg16
g17
sa(dp4723
g2
S'605'
p4724
sg4
S'png'
p4725
sg6
S'1973'
p4726
sg8
g52
sg10
S'Actor'
p4727
sg12
S'Kathryn_Hahn'
p4728
sg14
S'USA'
p4729
sg16
S'165'
p4730
sa(dp4731
g2
S'606'
p4732
sg4
S'png'
p4733
sg6
S'1939'
p4734
sg8
g52
sg10
S'Actor'
p4735
sg12
S'Kathryn_Joosten'
p4736
sg14
S'USA'
p4737
sg16
g17
sa(dp4738
g2
S'607'
p4739
sg4
S'png'
p4740
sg6
S'1990'
p4741
sg8
g52
sg10
S'Actor'
p4742
sg12
S'Kathryn_McCormick'
p4743
sg14
S'USA'
p4744
sg16
g17
sa(dp4745
g2
S'608'
p4746
sg4
S'png'
p4747
sg6
S'1991'
p4748
sg8
g52
sg10
S'Actor'
p4749
sg12
S'Kathryn_Prescott'
p4750
sg14
S'UK'
p4751
sg16
g17
sa(dp4752
g2
S'609'
p4753
sg4
S'png'
p4754
sg6
S'1960'
p4755
sg8
g52
sg10
S'Actor'
p4756
sg12
S'Kathy_Griffin'
p4757
sg14
S'USA'
p4758
sg16
S'160'
p4759
sa(dp4760
g2
S'610'
p4761
sg4
S'png'
p4762
sg6
S'1978'
p4763
sg8
g52
sg10
S'Actor'
p4764
sg12
S'Katie_Aselton'
p4765
sg14
S'USA'
p4766
sg16
g17
sa(dp4767
g2
S'611'
p4768
sg4
S'png'
p4769
sg6
S'1981'
p4770
sg8
g52
sg10
S'Actor'
p4771
sg12
S'Katie_Cleary'
p4772
sg14
S'USA'
p4773
sg16
g17
sa(dp4774
g2
S'612'
p4775
sg4
S'png'
p4776
sg6
S'1986'
p4777
sg8
g52
sg10
S'Actor'
p4778
sg12
S'Katie_Leclerc'
p4779
sg14
S'USA'
p4780
sg16
g17
sa(dp4781
g2
S'613'
p4782
sg4
S'png'
p4783
sg6
S'1992'
p4784
sg8
g52
sg10
S'Actor'
p4785
sg12
S'Katie_Stevens'
p4786
sg14
S'USA'
p4787
sg16
S'159'
p4788
sa(dp4789
g2
S'614'
p4790
sg4
S'png'
p4791
sg6
S'1984'
p4792
sg8
g52
sg10
S'Musician'
p4793
sg12
S'Katy_Perry'
p4794
sg14
S'USA'
p4795
sg16
S'170'
p4796
sa(dp4797
g2
S'615'
p4798
sg4
S'png'
p4799
sg6
S'1992'
p4800
sg8
g52
sg10
S'Actor'
p4801
sg12
S'Kaya_Scodelario'
p4802
sg14
S'UK'
p4803
sg16
S'168'
p4804
sa(dp4805
g2
S'616'
p4806
sg4
S'png'
p4807
sg6
S'1978'
p4808
sg8
g9
sg10
S'Actor'
p4809
sg12
S'Kayvan_Novak'
p4810
sg14
S'UK'
p4811
sg16
g17
sa(dp4812
g2
S'617'
p4813
sg4
S'png'
p4814
sg6
S'1989'
p4815
sg8
g9
sg10
S'Actor'
p4816
sg12
S'Keegan_Allen'
p4817
sg14
S'USA'
p4818
sg16
S'185'
p4819
sa(dp4820
g2
S'618'
p4821
sg4
S'png'
p4822
sg6
S'1971'
p4823
sg8
g52
sg10
S'Actor'
p4824
sg12
S'Keegan_Connor_Tracy'
p4825
sg14
S'Canada'
p4826
sg16
g17
sa(dp4827
g2
S'619'
p4828
sg4
S'png'
p4829
sg6
S'1976'
p4830
sg8
g52
sg10
S'Actor'
p4831
sg12
S'Keeley_Hawes'
p4832
sg14
S'UK'
p4833
sg16
S'173'
p4834
sa(dp4835
g2
S'620'
p4836
sg4
S'png'
p4837
sg6
S'1978'
p4838
sg8
g9
sg10
S'Actor'
p4839
sg12
S'Kel_Mitchell'
p4840
sg14
S'USA'
p4841
sg16
S'180'
p4842
sa(dp4843
g2
S'621'
p4844
sg4
S'png'
p4845
sg6
S'1985'
p4846
sg8
g9
sg10
S'Actor'
p4847
sg12
S'Kellan_Lutz'
p4848
sg14
S'USA'
p4849
sg16
S'185'
p4850
sa(dp4851
g2
S'622'
p4852
sg4
S'png'
p4853
sg6
S'1996'
p4854
sg8
g52
sg10
S'Actor'
p4855
sg12
S'Kelli_Berglund'
p4856
sg14
S'USA'
p4857
sg16
S'160'
p4858
sa(dp4859
g2
S'623'
p4860
sg4
S'png'
p4861
sg6
S'1980'
p4862
sg8
g52
sg10
S'Actor'
p4863
sg12
S'Kelli_Giddish'
p4864
sg14
S'USA'
p4865
sg16
S'170'
p4866
sa(dp4867
g2
S'624'
p4868
sg4
S'png'
p4869
sg6
S'1970'
p4870
sg8
g52
sg10
S'Actor'
p4871
sg12
S'Kelli_Williams'
p4872
sg14
S'USA'
p4873
sg16
S'165'
p4874
sa(dp4875
g2
S'625'
p4876
sg4
S'png'
p4877
sg6
S'1979'
p4878
sg8
g52
sg10
S'Model'
p4879
sg12
S'Kelly_Brook'
p4880
sg14
S'UK'
p4881
sg16
S'168'
p4882
sa(dp4883
g2
S'626'
p4884
sg4
S'png'
p4885
sg6
S'1976'
p4886
sg8
g52
sg10
S'Actor'
p4887
sg12
S'Kelly_Macdonald'
p4888
sg14
S'UK'
p4889
sg16
S'160'
p4890
sa(dp4891
g2
S'627'
p4892
sg4
S'png'
p4893
sg6
S'1976'
p4894
sg8
g52
sg10
S'Model'
p4895
sg12
S'Kelly_Monaco'
p4896
sg14
S'USA'
p4897
sg16
S'160'
p4898
sa(dp4899
g2
S'628'
p4900
sg4
S'png'
p4901
sg6
S'1977'
p4902
sg8
g52
sg10
S'Actor'
p4903
sg12
S'Kelly_Reilly'
p4904
sg14
S'UK'
p4905
sg16
S'168'
p4906
sa(dp4907
g2
S'629'
p4908
sg4
S'png'
p4909
sg6
S'1968'
p4910
sg8
g52
sg10
S'Actor'
p4911
sg12
S'Kelly_Rutherford'
p4912
sg14
S'USA'
p4913
sg16
g17
sa(dp4914
g2
S'630'
p4915
sg4
S'png'
p4916
sg6
S'1969'
p4917
sg8
g9
sg10
S'Actor'
p4918
sg12
S'Ken_Jeong'
p4919
sg14
S'USA'
p4920
sg16
S'165'
p4921
sa(dp4922
g2
S'631'
p4923
sg4
S'png'
p4924
sg6
S'1968'
p4925
sg8
g9
sg10
S'Actor'
p4926
sg12
S'Ken_Marino'
p4927
sg14
S'USA'
p4928
sg16
g17
sa(dp4929
g2
S'632'
p4930
sg4
S'png'
p4931
sg6
S'1978'
p4932
sg8
g9
sg10
S'Actor'
p4933
sg12
S'Kenan_Thompson'
p4934
sg14
S'USA'
p4935
sg16
S'173'
p4936
sa(dp4937
g2
S'633'
p4938
sg4
S'png'
p4939
sg6
S'1985'
p4940
sg8
g52
sg10
S'Model'
p4941
sg12
S'Kendra_Wilkinson'
p4942
sg14
S'USA'
p4943
sg16
S'163'
p4944
sa(dp4945
g2
S'634'
p4946
sg4
S'png'
p4947
sg6
S'1938'
p4948
sg8
g9
sg10
S'Musician'
p4949
sg12
S'Kenny_Rogers'
p4950
sg14
S'USA'
p4951
sg16
g17
sa(dp4952
g2
S'635'
p4953
sg4
S'png'
p4954
sg6
S'1995'
p4955
sg8
g9
sg10
S'Actor'
p4956
sg12
S'Kenton_Duty'
p4957
sg14
S'USA'
p4958
sg16
S'192'
p4959
sa(dp4960
g2
S'636'
p4961
sg4
S'png'
p4962
sg6
S'1971'
p4963
sg8
g52
sg10
S'Actor'
p4964
sg12
S'Kenya_Moore'
p4965
sg14
S'USA'
p4966
sg16
S'178'
p4967
sa(dp4968
g2
S'637'
p4969
sg4
S'png'
p4970
sg6
S'1982'
p4971
sg8
g52
sg10
S'Musician'
p4972
sg12
S'Keri_Hilson'
p4973
sg14
S'USA'
p4974
sg16
S'175'
p4975
sa(dp4976
g2
S'638'
p4977
sg4
S'png'
p4978
sg6
S'1976'
p4979
sg8
g52
sg10
S'Actor'
p4980
sg12
S'Keri_Russell'
p4981
sg14
S'USA'
p4982
sg16
S'163'
p4983
sa(dp4984
g2
S'639'
p4985
sg4
S'png'
p4986
sg6
S'1987'
p4987
sg8
g52
sg10
S'Musician'
p4988
sg12
S'Kesha'
p4989
sg14
S'USA'
p4990
sg16
S'175'
p4991
sa(dp4992
g2
S'640'
p4993
sg4
S'png'
p4994
sg6
S'1958'
p4995
sg8
g9
sg10
S'Actor'
p4996
sg12
S'Kevin_Bacon'
p4997
sg14
S'USA'
p4998
sg16
S'178'
p4999
sa(dp5000
g2
S'641'
p5001
sg4
S'png'
p5002
sg6
S'1960'
p5003
sg8
g9
sg10
S'Actor'
p5004
sg12
S'Kevin_Clash'
p5005
sg14
S'USA'
p5006
sg16
g17
sa(dp5007
g2
S'642'
p5008
sg4
S'png'
p5009
sg6
S'1957'
p5010
sg8
g9
sg10
S'Player'
p5011
sg12
S'Kevin_McHale'
p5012
sg14
S'USA'
p5013
sg16
S'208'
p5014
sa(dp5015
g2
S'643'
p5016
sg4
S'png'
p5017
sg6
S'1970'
p5018
sg8
g9
sg10
S'Writer'
p5019
sg12
S'Kevin_Smith'
p5020
sg14
S'USA'
p5021
sg16
S'175'
p5022
sa(dp5023
g2
S'644'
p5024
sg4
S'png'
p5025
sg6
S'1971'
p5026
sg8
g9
sg10
S'Musician'
p5027
sg12
S'Kid_Rock'
p5028
sg14
S'USA'
p5029
sg16
g17
sa(dp5030
g2
S'645'
p5031
sg4
S'png'
p5032
sg6
S'1966'
p5033
sg8
g9
sg10
S'Actor'
p5034
sg12
S'Kiefer_Sutherland'
p5035
sg14
S'UK'
p5036
sg16
S'175'
p5037
sa(dp5038
g2
S'646'
p5039
sg4
S'png'
p5040
sg6
S'1999'
p5041
sg8
g52
sg10
S'Actor'
p5042
sg12
S'Kiernan_Shipka'
p5043
sg14
S'USA'
p5044
sg16
S'157'
p5045
sa(dp5046
g2
S'647'
p5047
sg4
S'png'
p5048
sg6
S'1978'
p5049
sg8
g52
sg10
S'Actor'
p5050
sg12
S'Kierston_Wareing'
p5051
sg14
S'UK'
p5052
sg16
g17
sa(dp5053
g2
S'648'
p5054
sg4
S'png'
p5055
sg6
S'1969'
p5056
sg8
g52
sg10
S'Actor'
p5057
sg12
S'Kim_Raver'
p5058
sg14
S'USA'
p5059
sg16
S'172'
p5060
sa(dp5061
g2
S'649'
p5062
sg4
S'png'
p5063
sg6
S'1978'
p5064
sg8
g52
sg10
S'Musician'
p5065
sg12
S'Kim_Zolciak-Biermann'
p5066
sg14
S'USA'
p5067
sg16
S'175'
p5068
sa(dp5069
g2
S'650'
p5070
sg4
S'png'
p5071
sg6
S'1967'
p5072
sg8
g52
sg10
S'Actor'
p5073
sg12
S'Kimberly_Elise'
p5074
sg14
S'USA'
p5075
sg16
g17
sa(dp5076
g2
S'651'
p5077
sg4
S'png'
p5078
sg6
S'1971'
p5079
sg8
g52
sg10
S'Actor'
p5080
sg12
S'Kimberly_Williams-Paisley'
p5081
sg14
S'USA'
p5082
sg16
S'165'
p5083
sa(dp5084
g2
S'652'
p5085
sg4
S'png'
p5086
sg6
S'1972'
p5087
sg8
g52
sg10
S'Actor'
p5088
sg12
S'Kirsten_Vangsness'
p5089
sg14
S'USA'
p5090
sg16
S'170'
p5091
sa(dp5092
g2
S'653'
p5093
sg4
S'png'
p5094
sg6
S'1996'
p5095
sg8
g9
sg10
S'Actor'
p5096
sg12
S'Kodi_Smit-McPhee'
p5097
sg14
S'Austrailia'
p5098
sg16
S'188'
p5099
sa(dp5100
g2
S'654'
p5101
sg4
S'png'
p5102
sg6
S'1955'
p5103
sg8
g52
sg10
S'Broadcaster '
p5104
sg12
S'Kris_Jenner'
p5105
sg14
S'USA'
p5106
sg16
S'168'
p5107
sa(dp5108
g2
S'655'
p5109
sg4
S'png'
p5110
sg6
S'1980'
p5111
sg8
g52
sg10
S'Actor'
p5112
sg12
S'Kristen_Bell'
p5113
sg14
S'USA'
p5114
sg16
S'155'
p5115
sa(dp5116
g2
S'656'
p5117
sg4
S'png'
p5118
sg6
S'1967'
p5119
sg8
g52
sg10
S'Actor'
p5120
sg12
S'Kristen_Johnston'
p5121
sg14
S'USA'
p5122
sg16
S'183'
p5123
sa(dp5124
g2
S'657'
p5125
sg4
S'png'
p5126
sg6
S'1978'
p5127
sg8
g52
sg10
S'Actor'
p5128
sg12
S'Kristen_Schaal'
p5129
sg14
S'USA'
p5130
sg16
g17
sa(dp5131
g2
S'658'
p5132
sg4
S'png'
p5133
sg6
S'1990'
p5134
sg8
g52
sg10
S'Actor'
p5135
sg12
S'Kristen_Stewart'
p5136
sg14
S'USA'
p5137
sg16
S'165'
p5138
sa(dp5139
g2
S'659'
p5140
sg4
S'png'
p5141
sg6
S'1973'
p5142
sg8
g52
sg10
S'Actor'
p5143
sg12
S'Kristen_Wiig'
p5144
sg14
S'USA'
p5145
sg16
S'165'
p5146
sa(dp5147
g2
S'660'
p5148
sg4
S'png'
p5149
sg6
S'1963'
p5150
sg8
g52
sg10
S'Actor'
p5151
sg12
S'Kristian_Alfonso'
p5152
sg14
S'USA'
p5153
sg16
g17
sa(dp5154
g2
S'661'
p5155
sg4
S'png'
p5156
sg6
S'1990'
p5157
sg8
g52
sg10
S'Actor'
p5158
sg12
S'Kriti_Sanon'
p5159
sg14
S'India'
p5160
sg16
S'175'
p5161
sa(dp5162
g2
S'662'
p5163
sg4
S'png'
p5164
sg6
S'1978'
p5165
sg8
g9
sg10
S'Actor'
p5166
sg12
S'Kuno_Becker'
p5167
sg14
S'Mexico'
p5168
sg16
g17
sa(dp5169
g2
S'663'
p5170
sg4
S'png'
p5171
sg6
S'1959'
p5172
sg8
g9
sg10
S'Actor'
p5173
sg12
S'Kyle_MacLachlan'
p5174
sg14
S'USA'
p5175
sg16
S'183'
p5176
sa(dp5177
g2
S'664'
p5178
sg4
S'png'
p5179
sg6
S'1969'
p5180
sg8
g52
sg10
S'Actor'
p5181
sg12
S'Kyle_Richards'
p5182
sg14
S'USA'
p5183
sg16
S'157'
p5184
sa(dp5185
g2
S'665'
p5186
sg4
S'png'
p5187
sg6
S'1968'
p5188
sg8
g52
sg10
S'Musician'
p5189
sg12
S'Kylie_Minogue'
p5190
sg14
S'Austrailia'
p5191
sg16
S'152'
p5192
sa(dp5193
g2
S'666'
p5194
sg4
S'png'
p5195
sg6
S'1961'
p5196
sg8
g52
sg10
S'Comedian'
p5197
sg12
S'Kym_Whitley'
p5198
sg14
S'USA'
p5199
sg16
g17
sa(dp5200
g2
S'667'
p5201
sg4
S'png'
p5202
sg6
S'1979'
p5203
sg8
g52
sg10
S'Broadcaster '
p5204
sg12
S'La_La_Anthony'
p5205
sg14
S'USA'
p5206
sg16
S'168'
p5207
sa(dp5208
g2
S'668'
p5209
sg4
S'png'
p5210
sg6
S'1988'
p5211
sg8
g52
sg10
S'Actor'
p5212
sg12
S'Lacey_Turner'
p5213
sg14
S'UK'
p5214
sg16
S'160'
p5215
sa(dp5216
g2
S'669'
p5217
sg4
S'png'
p5218
sg6
S'1979'
p5219
sg8
g52
sg10
S'Actor'
p5220
sg12
S'Laura_Benanti'
p5221
sg14
S'USA'
p5222
sg16
g17
sa(dp5223
g2
S'670'
p5224
sg4
S'png'
p5225
sg6
S'1986'
p5226
sg8
g52
sg10
S'Actor'
p5227
sg12
S'Laura_Carmichael'
p5228
sg14
S'UK'
p5229
sg16
g17
sa(dp5230
g2
S'671'
p5231
sg4
S'png'
p5232
sg6
S'1967'
p5233
sg8
g52
sg10
S'Actor'
p5234
sg12
S'Laura_Dern'
p5235
sg14
S'USA'
p5236
sg16
S'179'
p5237
sa(dp5238
g2
S'672'
p5239
sg4
S'png'
p5240
sg6
S'1985'
p5241
sg8
g52
sg10
S'Actor'
p5242
sg12
S'Laura_Haddock'
p5243
sg14
S'UK'
p5244
sg16
S'172'
p5245
sa(dp5246
g2
S'673'
p5247
sg4
S'png'
p5248
sg6
S'1975'
p5249
sg8
g52
sg10
S'Musician'
p5250
sg12
S'Lauryn_Hill'
p5251
sg14
S'USA'
p5252
sg16
g17
sa(dp5253
g2
S'674'
p5254
sg4
S'png'
p5255
sg6
S'1968'
p5256
sg8
g9
sg10
S'Comedian'
p5257
sg12
S'Lavell_Crawford'
p5258
sg14
S'USA'
p5259
sg16
S'178'
p5260
sa(dp5261
g2
S'675'
p5262
sg4
S'png'
p5263
sg6
S'1972'
p5264
sg8
g52
sg10
S'Actor'
p5265
sg12
S'Laverne_Cox'
p5266
sg14
S'USA'
p5267
sg16
S'180'
p5268
sa(dp5269
g2
S'676'
p5270
sg4
S'png'
p5271
sg6
S'1974'
p5272
sg8
g9
sg10
S'Actor'
p5273
sg12
S'Laz_Alonso'
p5274
sg14
S'USA'
p5275
sg16
S'183'
p5276
sa(dp5277
g2
S'677'
p5278
sg4
S'png'
p5279
sg6
S'1986'
p5280
sg8
g52
sg10
S'Actor'
p5281
sg12
S'Lea_Michele'
p5282
sg14
S'USA'
p5283
sg16
S'159'
p5284
sa(dp5285
g2
S'678'
p5286
sg4
S'png'
p5287
sg6
S'1971'
p5288
sg8
g52
sg10
S'Musician'
p5289
sg12
S'Lea_Salonga'
p5290
sg14
S'Philippines '
p5291
sg16
g17
sa(dp5292
g2
S'679'
p5293
sg4
S'png'
p5294
sg6
S'1961'
p5295
sg8
g52
sg10
S'Actor'
p5296
sg12
S'Lea_Thompson'
p5297
sg14
S'USA'
p5298
sg16
S'163'
p5299
sa(dp5300
g2
S'680'
p5301
sg4
S'png'
p5302
sg6
S'1917'
p5303
sg8
g52
sg10
S'Musician'
p5304
sg12
S'Lena_Horne'
p5305
sg14
S'USA'
p5306
sg16
g17
sa(dp5307
g2
S'681'
p5308
sg4
S'png'
p5309
sg6
S'1975'
p5310
sg8
g52
sg10
S'Actor'
p5311
sg12
S'Leonor_Watling'
p5312
sg14
S'Spain'
p5313
sg16
g17
sa(dp5314
g2
S'682'
p5315
sg4
S'png'
p5316
sg6
S'1956'
p5317
sg8
g52
sg10
S'Actor'
p5318
sg12
S'Lesley_Manville'
p5319
sg14
S'UK'
p5320
sg16
g17
sa(dp5321
g2
S'683'
p5322
sg4
S'png'
p5323
sg6
S'1974'
p5324
sg8
g52
sg10
S'Actor'
p5325
sg12
S'Leslie_Bibb'
p5326
sg14
S'USA'
p5327
sg16
S'175'
p5328
sa(dp5329
g2
S'684'
p5330
sg4
S'png'
p5331
sg6
S'1972'
p5332
sg8
g52
sg10
S'Actor'
p5333
sg12
S'Leslie_Mann'
p5334
sg14
S'USA'
p5335
sg16
S'169'
p5336
sa(dp5337
g2
S'685'
p5338
sg4
S'png'
p5339
sg6
S'1987'
p5340
sg8
g52
sg10
S'Actor'
p5341
sg12
S'Lily_Cole'
p5342
sg14
S'UK'
p5343
sg16
S'179'
p5344
sa(dp5345
g2
S'686'
p5346
sg4
S'png'
p5347
sg6
S'1989'
p5348
sg8
g52
sg10
S'Actor'
p5349
sg12
S'Lily_Collins'
p5350
sg14
S'UK'
p5351
sg16
S'165'
p5352
sa(dp5353
g2
S'687'
p5354
sg4
S'png'
p5355
sg6
S'1943'
p5356
sg8
g52
sg10
S'Actor'
p5357
sg12
S'Lin_Shaye'
p5358
sg14
S'USA'
p5359
sg16
g17
sa(dp5360
g2
S'688'
p5361
sg4
S'png'
p5362
sg6
S'1975'
p5363
sg8
g52
sg10
S'Actor'
p5364
sg12
S'Linda_Cardellini'
p5365
sg14
S'USA'
p5366
sg16
S'160'
p5367
sa(dp5368
g2
S'689'
p5369
sg4
S'png'
p5370
sg6
S'1942'
p5371
sg8
g52
sg10
S'Actor'
p5372
sg12
S'Linda_Evans'
p5373
sg14
S'USA'
p5374
sg16
S'172'
p5375
sa(dp5376
g2
S'690'
p5377
sg4
S'png'
p5378
sg6
S'1940'
p5379
sg8
g52
sg10
S'Actor'
p5380
sg12
S'Linda_Gray'
p5381
sg14
S'USA'
p5382
sg16
S'172'
p5383
sa(dp5384
g2
S'691'
p5385
sg4
S'png'
p5386
sg6
S'1937'
p5387
sg8
g52
sg10
S'Actor'
p5388
sg12
S'Linda_Lavin'
p5389
sg14
S'USA'
p5390
sg16
g17
sa(dp5391
g2
S'692'
p5392
sg4
S'png'
p5393
sg6
S'1950'
p5394
sg8
g52
sg10
S'Actor'
p5395
sg12
S'Lindsay_Duncan'
p5396
sg14
S'UK'
p5397
sg16
g17
sa(dp5398
g2
S'693'
p5399
sg4
S'png'
p5400
sg6
S'1990'
p5401
sg8
g52
sg10
S'Actor'
p5402
sg12
S'Lindsey_Morgan'
p5403
sg14
S'USA'
p5404
sg16
S'165'
p5405
sa(dp5406
g2
S'694'
p5407
sg4
S'png'
p5408
sg6
S'1966'
p5409
sg8
g52
sg10
S'Actor'
p5410
sg12
S'Lisa_Edelstein'
p5411
sg14
S'USA'
p5412
sg16
S'168'
p5413
sa(dp5414
g2
S'695'
p5415
sg4
S'png'
p5416
sg6
S'1963'
p5417
sg8
g52
sg10
S'Actor'
p5418
sg12
S'Lisa_Kudrow'
p5419
sg14
S'USA'
p5420
sg16
S'173'
p5421
sa(dp5422
g2
S'696'
p5423
sg4
S'png'
p5424
sg6
S'1972'
p5425
sg8
g52
sg10
S'Actor'
p5426
sg12
S'Lisa_Ray'
p5427
sg14
S'Canada'
p5428
sg16
S'163'
p5429
sa(dp5430
g2
S'697'
p5431
sg4
S'png'
p5432
sg6
S'1963'
p5433
sg8
g52
sg10
S'Actor'
p5434
sg12
S'Lisa_Rinna'
p5435
sg14
S'USA'
p5436
sg16
S'170'
p5437
sa(dp5438
g2
S'698'
p5439
sg4
S'png'
p5440
sg6
S'1963'
p5441
sg8
g52
sg10
S'Actor'
p5442
sg12
S'Lisa_Whelchel'
p5443
sg14
S'USA'
p5444
sg16
g17
sa(dp5445
g2
S'699'
p5446
sg4
S'png'
p5447
sg6
S'1982'
p5448
sg8
g52
sg10
S'Actor'
p5449
sg12
S'Lizzy_Caplan'
p5450
sg14
S'USA'
p5451
sg16
S'163'
p5452
sa(dp5453
g2
S'700'
p5454
sg4
S'png'
p5455
sg6
S'1982'
p5456
sg8
g52
sg10
S'Actor'
p5457
sg12
S'Loan_Chabanol'
p5458
sg14
S'France'
p5459
sg16
g17
sa(dp5460
g2
S'701'
p5461
sg4
S'png'
p5462
sg6
S'1982'
p5463
sg8
g52
sg10
S'Player'
p5464
sg12
S'Lolo_Jones'
p5465
sg14
S'USA'
p5466
sg16
S'175'
p5467
sa(dp5468
g2
S'702'
p5469
sg4
S'png'
p5470
sg6
S'1996'
p5471
sg8
g52
sg10
S'Musician'
p5472
sg12
S'Lorde'
p5473
sg14
S'New Zealand '
p5474
sg16
g17
sa(dp5475
g2
S'703'
p5476
sg4
S'png'
p5477
sg6
S'1989'
p5478
sg8
g52
sg10
S'Actor'
p5479
sg12
S'Lorenza_Izzo'
p5480
sg14
S'Chile '
p5481
sg16
S'173'
p5482
sa(dp5483
g2
S'704'
p5484
sg4
S'png'
p5485
sg6
S'1949'
p5486
sg8
g52
sg10
S'Actor'
p5487
sg12
S'Loretta_Devine'
p5488
sg14
S'USA'
p5489
sg16
g17
sa(dp5490
g2
S'705'
p5491
sg4
S'png'
p5492
sg6
S'1937'
p5493
sg8
g52
sg10
S'Actor'
p5494
sg12
S'Loretta_Swit'
p5495
sg14
S'USA'
p5496
sg16
S'168'
p5497
sa(dp5498
g2
S'706'
p5499
sg4
S'png'
p5500
sg6
S'1982'
p5501
sg8
g52
sg10
S'Actor'
p5502
sg12
S'Lotte_Verbeek'
p5503
sg14
S'Netherlands'
p5504
sg16
S'168'
p5505
sa(dp5506
g2
S'707'
p5507
sg4
S'png'
p5508
sg6
S'1962'
p5509
sg8
g9
sg10
S'Actor'
p5510
sg12
S'Lou_Diamond_Phillips'
p5511
sg14
S'Philippines '
p5512
sg16
S'185'
p5513
sa(dp5514
g2
S'708'
p5515
sg4
S'png'
p5516
sg6
S'1951'
p5517
sg8
g9
sg10
S'Actor'
p5518
sg12
S'Lou_Ferrigno'
p5519
sg14
S'USA'
p5520
sg16
S'194'
p5521
sa(dp5522
g2
S'709'
p5523
sg4
S'png'
p5524
sg6
S'1967'
p5525
sg8
g9
sg10
S'Actor'
p5526
sg12
S'Louis_C.K.'
p5527
sg14
S'USA'
p5528
sg16
S'183'
p5529
sa(dp5530
g2
S'710'
p5531
sg4
S'png'
p5532
sg6
S'1970'
p5533
sg8
g9
sg10
S'Director'
p5534
sg12
S'Louis_Theroux'
p5535
sg14
S'USA'
p5536
sg16
g17
sa(dp5537
g2
S'711'
p5538
sg4
S'png'
p5539
sg6
S'1959'
p5540
sg8
g9
sg10
S'Director'
p5541
sg12
S'Luc_Besson'
p5542
sg14
S'France'
p5543
sg16
g17
sa(dp5544
g2
S'712'
p5545
sg4
S'png'
p5546
sg6
S'1993'
p5547
sg8
g9
sg10
S'Actor'
p5548
sg12
S'Lucas_Cruikshank'
p5549
sg14
S'USA'
p5550
sg16
S'173'
p5551
sa(dp5552
g2
S'713'
p5553
sg4
S'png'
p5554
sg6
S'1984'
p5555
sg8
g9
sg10
S'Actor'
p5556
sg12
S'Lucas_Grabeel'
p5557
sg14
S'USA'
p5558
sg16
S'170'
p5559
sa(dp5560
g2
S'714'
p5561
sg4
S'png'
p5562
sg6
S'1951'
p5563
sg8
g52
sg10
S'Actor'
p5564
sg12
S'Lucie_Arnaz'
p5565
sg14
S'USA'
p5566
sg16
S'178'
p5567
sa(dp5568
g2
S'715'
p5569
sg4
S'png'
p5570
sg6
S'1989'
p5571
sg8
g52
sg10
S'Actor'
p5572
sg12
S'Lucy_Hale'
p5573
sg14
S'USA'
p5574
sg16
S'157'
p5575
sa(dp5576
g2
S'716'
p5577
sg4
S'png'
p5578
sg6
S'1977'
p5579
sg8
g52
sg10
S'Actor'
p5580
sg12
S'Lucy_Punch'
p5581
sg14
S'UK'
p5582
sg16
S'173'
p5583
sa(dp5584
g2
S'717'
p5585
sg4
S'png'
p5586
sg6
S'1977'
p5587
sg8
g9
sg10
S'Musician'
p5588
sg12
S'Ludacris'
p5589
sg14
S'USA'
p5590
sg16
S'173'
p5591
sa(dp5592
g2
S'718'
p5593
sg4
S'png'
p5594
sg6
S'1984'
p5595
sg8
g9
sg10
S'Actor'
p5596
sg12
S'Luke_Arnold'
p5597
sg14
S'Austrailia'
p5598
sg16
g17
sa(dp5599
g2
S'719'
p5600
sg4
S'png'
p5601
sg6
S'1979'
p5602
sg8
g9
sg10
S'Actor'
p5603
sg12
S'Luke_Evans'
p5604
sg14
S'UK'
p5605
sg16
S'183'
p5606
sa(dp5607
g2
S'720'
p5608
sg4
S'png'
p5609
sg6
S'1990'
p5610
sg8
g9
sg10
S'Actor'
p5611
sg12
S'Luke_Newberry'
p5612
sg14
S'UK'
p5613
sg16
g17
sa(dp5614
g2
S'721'
p5615
sg4
S'png'
p5616
sg6
S'1977'
p5617
sg8
g52
sg10
S'Actor'
p5618
sg12
S'Maggie_Gyllenhaal'
p5619
sg14
S'USA'
p5620
sg16
S'175'
p5621
sa(dp5622
g2
S'722'
p5623
sg4
S'png'
p5624
sg6
S'1978'
p5625
sg8
g52
sg10
S'Actor'
p5626
sg12
S'Malin_Akerman'
p5627
sg14
S'Canada'
p5628
sg16
S'173'
p5629
sa(dp5630
g2
S'723'
p5631
sg4
S'png'
p5632
sg6
S'1976'
p5633
sg8
g52
sg10
S'Actor'
p5634
sg12
S'Mallika_Sherawat'
p5635
sg14
S'India'
p5636
sg16
S'169'
p5637
sa(dp5638
g2
S'724'
p5639
sg4
S'png'
p5640
sg6
S'1983'
p5641
sg8
g52
sg10
S'Actor'
p5642
sg12
S'Mamie_Gummer'
p5643
sg14
S'USA'
p5644
sg16
g17
sa(dp5645
g2
S'725'
p5646
sg4
S'png'
p5647
sg6
S'1952'
p5648
sg8
g9
sg10
S'Actor'
p5649
sg12
S'Mandy_Patinkin'
p5650
sg14
S'USA'
p5651
sg16
S'185'
p5652
sa(dp5653
g2
S'726'
p5654
sg4
S'png'
p5655
sg6
S'1983'
p5656
sg8
g9
sg10
S'Actor'
p5657
sg12
S'Manish_Dayal'
p5658
sg14
S'USA'
p5659
sg16
g17
sa(dp5660
g2
S'727'
p5661
sg4
S'png'
p5662
sg6
S'1972'
p5663
sg8
g9
sg10
S'Actor'
p5664
sg12
S'Marc_Blucas'
p5665
sg14
S'USA'
p5666
sg16
S'188'
p5667
sa(dp5668
g2
S'728'
p5669
sg4
S'png'
p5670
sg6
S'1969'
p5671
sg8
g9
sg10
S'Director'
p5672
sg12
S'Marc_Forster'
p5673
sg14
S'Germany'
p5674
sg16
g17
sa(dp5675
g2
S'729'
p5676
sg4
S'png'
p5677
sg6
S'1974'
p5678
sg8
g9
sg10
S'Director'
p5679
sg12
S'Marc_Webb'
p5680
sg14
S'USA'
p5681
sg16
g17
sa(dp5682
g2
S'730'
p5683
sg4
S'png'
p5684
sg6
S'1962'
p5685
sg8
g52
sg10
S'Actor'
p5686
sg12
S'Marcia_Cross'
p5687
sg14
S'USA'
p5688
sg16
S'178'
p5689
sa(dp5690
g2
S'731'
p5691
sg4
S'png'
p5692
sg6
S'1959'
p5693
sg8
g52
sg10
S'Actor'
p5694
sg12
S'Marcia_Gay_Harden'
p5695
sg14
S'USA'
p5696
sg16
g17
sa(dp5697
g2
S'732'
p5698
sg4
S'png'
p5699
sg6
S'1951'
p5700
sg8
g52
sg10
S'Actor'
p5701
sg12
S'Margo_Martindale'
p5702
sg14
S'USA'
p5703
sg16
g17
sa(dp5704
g2
S'733'
p5705
sg4
S'png'
p5706
sg6
S'1990'
p5707
sg8
g52
sg10
S'Actor'
p5708
sg12
S'Margot_Robbie'
p5709
sg14
S'Austrailia'
p5710
sg16
S'168'
p5711
sa(dp5712
g2
S'734'
p5713
sg4
S'png'
p5714
sg6
S'1970'
p5715
sg8
g52
sg10
S'Comedian'
p5716
sg12
S'Maria_Bamford'
p5717
sg14
S'USA'
p5718
sg16
g17
sa(dp5719
g2
S'735'
p5720
sg4
S'png'
p5721
sg6
S'1966'
p5722
sg8
g52
sg10
S'Actor'
p5723
sg12
S'Maria_Canals-Barrera'
p5724
sg14
S'USA'
p5725
sg16
g17
sa(dp5726
g2
S'736'
p5727
sg4
S'png'
p5728
sg6
S'1968'
p5729
sg8
g52
sg10
S'Actor'
p5730
sg12
S'Maria_Grazia_Cucinotta'
p5731
sg14
S'Italy'
p5732
sg16
S'177'
p5733
sa(dp5734
g2
S'737'
p5735
sg4
S'png'
p5736
sg6
S'1978'
p5737
sg8
g52
sg10
S'Actor'
p5738
sg12
S'Maria_Menounos'
p5739
sg14
S'USA'
p5740
sg16
S'173'
p5741
sa(dp5742
g2
S'738'
p5743
sg4
S'png'
p5744
sg6
S'1987'
p5745
sg8
g52
sg10
S'Player'
p5746
sg12
S'Maria_Sharapova'
p5747
sg14
S'Russia'
p5748
sg16
S'188'
p5749
sa(dp5750
g2
S'739'
p5751
sg4
S'png'
p5752
sg6
S'1965'
p5753
sg8
g52
sg10
S'Actor'
p5754
sg12
S'Maria_de_Medeiros'
p5755
sg14
S'Portugal'
p5756
sg16
g17
sa(dp5757
g2
S'740'
p5758
sg4
S'png'
p5759
sg6
S'1986'
p5760
sg8
g52
sg10
S'Actor'
p5761
sg12
S'Marie_Avgeropoulos'
p5762
sg14
S'Canada'
p5763
sg16
S'165'
p5764
sa(dp5765
g2
S'741'
p5766
sg4
S'png'
p5767
sg6
S'1959'
p5768
sg8
g52
sg10
S'Musician'
p5769
sg12
S'Marie_Osmond'
p5770
sg14
S'USA'
p5771
sg16
S'165'
p5772
sa(dp5773
g2
S'742'
p5774
sg4
S'png'
p5775
sg6
S'1961'
p5776
sg8
g52
sg10
S'Actor'
p5777
sg12
S'Mariel_Hemingway'
p5778
sg14
S'USA'
p5779
sg16
S'180'
p5780
sa(dp5781
g2
S'743'
p5782
sg4
S'png'
p5783
sg6
S'1952'
p5784
sg8
g52
sg10
S'Actor'
p5785
sg12
S'Marilu_Henner'
p5786
sg14
S'USA'
p5787
sg16
S'170'
p5788
sa(dp5789
g2
S'744'
p5790
sg4
S'png'
p5791
sg6
S'1986'
p5792
sg8
g9
sg10
S'Actor'
p5793
sg12
S'Mario_Casas'
p5794
sg14
S'Spain'
p5795
sg16
S'180'
p5796
sa(dp5797
g2
S'745'
p5798
sg4
S'png'
p5799
sg6
S'1973'
p5800
sg8
g9
sg10
S'Actor'
p5801
sg12
S'Mario_Lopez'
p5802
sg14
S'USA'
p5803
sg16
S'178'
p5804
sa(dp5805
g2
S'746'
p5806
sg4
S'png'
p5807
sg6
S'1975'
p5808
sg8
g52
sg10
S'Actor'
p5809
sg12
S'Marion_Cotillard'
p5810
sg14
S'France'
p5811
sg16
S'169'
p5812
sa(dp5813
g2
S'747'
p5814
sg4
S'png'
p5815
sg6
S'1928'
p5816
sg8
g52
sg10
S'Actor'
p5817
sg12
S'Marion_Ross'
p5818
sg14
S'USA'
p5819
sg16
g17
sa(dp5820
g2
S'748'
p5821
sg4
S'jpg'
p5822
sg6
S'1978'
p5823
sg8
g52
sg10
S'Actor'
p5824
sg12
S'Marisa_Miller'
p5825
sg14
S'USA'
p5826
sg16
S'173'
p5827
sa(dp5828
g2
S'749'
p5829
sg4
S'png'
p5830
sg6
S'1971'
p5831
sg8
g9
sg10
S'Actor'
p5832
sg12
S'Mark_Feuerstein'
p5833
sg14
S'USA'
p5834
sg16
S'173'
p5835
sa(dp5836
g2
S'750'
p5837
sg4
S'png'
p5838
sg6
S'1966'
p5839
sg8
g9
sg10
S'Actor'
p5840
sg12
S'Mark_Gatiss'
p5841
sg14
S'UK'
p5842
sg16
S'185'
p5843
sa(dp5844
g2
S'751'
p5845
sg4
S'png'
p5846
sg6
S'1951'
p5847
sg8
g9
sg10
S'Actor'
p5848
sg12
S'Mark_Hamill'
p5849
sg14
S'USA'
p5850
sg16
S'175'
p5851
sa(dp5852
g2
S'752'
p5853
sg4
S'png'
p5854
sg6
S'1951'
p5855
sg8
g9
sg10
S'Actor'
p5856
sg12
S'Mark_Harmon'
p5857
sg14
S'USA'
p5858
sg16
S'183'
p5859
sa(dp5860
g2
S'753'
p5861
sg4
S'png'
p5862
sg6
S'1967'
p5863
sg8
g9
sg10
S'Actor'
p5864
sg12
S'Mark_Ruffalo'
p5865
sg14
S'USA'
p5866
sg16
S'173'
p5867
sa(dp5868
g2
S'754'
p5869
sg4
S'png'
p5870
sg6
S'1964'
p5871
sg8
g9
sg10
S'Actor'
p5872
sg12
S'Mark_Sheppard'
p5873
sg14
S'UK'
p5874
sg16
S'174'
p5875
sa(dp5876
g2
S'755'
p5877
sg4
S'png'
p5878
sg6
S'1963'
p5879
sg8
g9
sg10
S'Actor'
p5880
sg12
S'Mark_Strong'
p5881
sg14
S'UK'
p5882
sg16
S'188'
p5883
sa(dp5884
g2
S'756'
p5885
sg4
S'png'
p5886
sg6
S'1976'
p5887
sg8
g9
sg10
S'Player'
p5888
sg12
S'Mark_Webber'
p5889
sg14
S'Austrailia'
p5890
sg16
S'184'
p5891
sa(dp5892
g2
S'757'
p5893
sg4
S'png'
p5894
sg6
S'1931'
p5895
sg8
g52
sg10
S'Actor'
p5896
sg12
S'Marla_Gibbs'
p5897
sg14
S'USA'
p5898
sg16
g17
sa(dp5899
g2
S'758'
p5900
sg4
S'png'
p5901
sg6
S'1961'
p5902
sg8
g9
sg10
S'Actor'
p5903
sg12
S'Martin_Clunes'
p5904
sg14
S'UK'
p5905
sg16
S'189'
p5906
sa(dp5907
g2
S'759'
p5908
sg4
S'png'
p5909
sg6
S'1975'
p5910
sg8
g9
sg10
S'Actor'
p5911
sg12
S'Martin_Henderson'
p5912
sg14
S'New Zealand '
p5913
sg16
S'178'
p5914
sa(dp5915
g2
S'760'
p5916
sg4
S'png'
p5917
sg6
S'1946'
p5918
sg8
g9
sg10
S'Actor'
p5919
sg12
S'Martin_Kove'
p5920
sg14
S'USA'
p5921
sg16
S'185'
p5922
sa(dp5923
g2
S'761'
p5924
sg4
S'png'
p5925
sg6
S'1945'
p5926
sg8
g9
sg10
S'Actor'
p5927
sg12
S'Martin_Shaw'
p5928
sg14
S'UK'
p5929
sg16
S'174'
p5930
sa(dp5931
g2
S'762'
p5932
sg4
S'png'
p5933
sg6
S'1976'
p5934
sg8
g52
sg10
S'Actor'
p5935
sg12
S'Martine_McCutcheon'
p5936
sg14
S'UK'
p5937
sg16
g17
sa(dp5938
g2
S'763'
p5939
sg4
S'png'
p5940
sg6
S'1964'
p5941
sg8
g52
sg10
S'Actor'
p5942
sg12
S'Mary-Louise_Parker'
p5943
sg14
S'USA'
p5944
sg16
S'173'
p5945
sa(dp5946
g2
S'764'
p5947
sg4
S'png'
p5948
sg6
S'1984'
p5949
sg8
g52
sg10
S'Actor'
p5950
sg12
S'Mary_Elizabeth_Winstead'
p5951
sg14
S'USA'
p5952
sg16
S'173'
p5953
sa(dp5954
g2
S'765'
p5955
sg4
S'png'
p5956
sg6
S'1971'
p5957
sg8
g52
sg10
S'Actor'
p5958
sg12
S'Mary_Lynn_Rajskub'
p5959
sg14
S'USA'
p5960
sg16
g17
sa(dp5961
g2
S'766'
p5962
sg4
S'png'
p5963
sg6
S'1952'
p5964
sg8
g52
sg10
S'Actor'
p5965
sg12
S'Mary_McDonnell'
p5966
sg14
S'USA'
p5967
sg16
g17
sa(dp5968
g2
S'767'
p5969
sg4
S'png'
p5970
sg6
S'1965'
p5971
sg8
g9
sg10
S'Actor'
p5972
sg12
S'Mathieu_Amalric'
p5973
sg14
S'France'
p5974
sg16
g17
sa(dp5975
g2
S'768'
p5976
sg4
S'png'
p5977
sg6
S'1967'
p5978
sg8
g9
sg10
S'Actor'
p5979
sg12
S'Mathieu_Kassovitz'
p5980
sg14
S'France'
p5981
sg16
S'177'
p5982
sa(dp5983
g2
S'769'
p5984
sg4
S'png'
p5985
sg6
S'1965'
p5986
sg8
g52
sg10
S'Actor'
p5987
sg12
S'Mathilda_May'
p5988
sg14
S'France'
p5989
sg16
S'178'
p5990
sa(dp5991
g2
S'770'
p5992
sg4
S'png'
p5993
sg6
S'1977'
p5994
sg8
g9
sg10
S'Actor'
p5995
sg12
S'Matt_Bomer'
p5996
sg14
S'USA'
p5997
sg16
S'182'
p5998
sa(dp5999
g2
S'771'
p6000
sg4
S'png'
p6001
sg6
S'1982'
p6002
sg8
g9
sg10
S'Actor'
p6003
sg12
S'Matt_Dallas'
p6004
sg14
S'USA'
p6005
sg16
S'183'
p6006
sa(dp6007
g2
S'772'
p6008
sg4
S'png'
p6009
sg6
S'1983'
p6010
sg8
g9
sg10
S'Actor'
p6011
sg12
S'Matt_Lanter'
p6012
sg14
S'USA'
p6013
sg16
S'178'
p6014
sa(dp6015
g2
S'773'
p6016
sg4
S'png'
p6017
sg6
S'1982'
p6018
sg8
g9
sg10
S'Actor'
p6019
sg12
S'Matt_Smith'
p6020
sg14
S'UK'
p6021
sg16
S'182'
p6022
sa(dp6023
g2
S'774'
p6024
sg4
S'png'
p6025
sg6
S'1966'
p6026
sg8
g9
sg10
S'Actor'
p6027
sg12
S'Matthew_Fox'
p6028
sg14
S'USA'
p6029
sg16
S'188'
p6030
sa(dp6031
g2
S'775'
p6032
sg4
S'png'
p6033
sg6
S'1978'
p6034
sg8
g9
sg10
S'Actor'
p6035
sg12
S'Matthew_Goode'
p6036
sg14
S'UK'
p6037
sg16
S'187'
p6038
sa(dp6039
g2
S'776'
p6040
sg4
S'png'
p6041
sg6
S'1970'
p6042
sg8
g9
sg10
S'Actor'
p6043
sg12
S'Matthew_Lillard'
p6044
sg14
S'USA'
p6045
sg16
S'191'
p6046
sa(dp6047
g2
S'777'
p6048
sg4
S'png'
p6049
sg6
S'1974'
p6050
sg8
g9
sg10
S'Actor'
p6051
sg12
S'Matthew_Macfadyen'
p6052
sg14
S'UK'
p6053
sg16
S'191'
p6054
sa(dp6055
g2
S'778'
p6056
sg4
S'png'
p6057
sg6
S'1959'
p6058
sg8
g9
sg10
S'Actor'
p6059
sg12
S'Matthew_Modine'
p6060
sg14
S'USA'
p6061
sg16
S'193'
p6062
sa(dp6063
g2
S'779'
p6064
sg4
S'png'
p6065
sg6
S'1978'
p6066
sg8
g9
sg10
S'Actor'
p6067
sg12
S'Matthew_Morrison'
p6068
sg14
S'USA'
p6069
sg16
S'183'
p6070
sa(dp6071
g2
S'780'
p6072
sg4
S'png'
p6073
sg6
S'1986'
p6074
sg8
g9
sg10
S'Actor'
p6075
sg12
S'Max_Adler'
p6076
sg14
S'USA'
p6077
sg16
g17
sa(dp6078
g2
S'781'
p6079
sg4
S'png'
p6080
sg6
S'1985'
p6081
sg8
g9
sg10
S'Actor'
p6082
sg12
S'Max_Irons'
p6083
sg14
S'UK'
p6084
sg16
S'188'
p6085
sa(dp6086
g2
S'782'
p6087
sg4
S'png'
p6088
sg6
S'1992'
p6089
sg8
g9
sg10
S'Musician'
p6090
sg12
S'Max_Schneider'
p6091
sg14
S'USA'
p6092
sg16
g17
sa(dp6093
g2
S'783'
p6094
sg4
S'png'
p6095
sg6
S'1988'
p6096
sg8
g9
sg10
S'Actor'
p6097
sg12
S'Max_Thieriot'
p6098
sg14
S'USA'
p6099
sg16
S'180'
p6100
sa(dp6101
g2
S'784'
p6102
sg4
S'png'
p6103
sg6
S'1972'
p6104
sg8
g52
sg10
S'Actor'
p6105
sg12
S'Maya_Rudolph'
p6106
sg14
S'USA'
p6107
sg16
g17
sa(dp6108
g2
S'785'
p6109
sg4
S'png'
p6110
sg6
S'1947'
p6111
sg8
g9
sg10
S'Musician'
p6112
sg12
S'Meat_Loaf'
p6113
sg14
S'USA'
p6114
sg16
g17
sa(dp6115
g2
S'786'
p6116
sg4
S'png'
p6117
sg6
S'1986'
p6118
sg8
g52
sg10
S'Actor'
p6119
sg12
S'Megan_Fox'
p6120
sg14
S'USA'
p6121
sg16
S'163'
p6122
sa(dp6123
g2
S'787'
p6124
sg4
S'png'
p6125
sg6
S'1993'
p6126
sg8
g52
sg10
S'Musician'
p6127
sg12
S'Meghan_Trainor'
p6128
sg14
S'USA'
p6129
sg16
S'164'
p6130
sa(dp6131
g2
S'788'
p6132
sg4
S'png'
p6133
sg6
S'1976'
p6134
sg8
g52
sg10
S'Actor'
p6135
sg12
S'Melissa_George'
p6136
sg14
S'Austrailia'
p6137
sg16
S'171'
p6138
sa(dp6139
g2
S'789'
p6140
sg4
S'png'
p6141
sg6
S'1960'
p6142
sg8
g52
sg10
S'Actor'
p6143
sg12
S'Melissa_Leo'
p6144
sg14
S'USA'
p6145
sg16
g17
sa(dp6146
g2
S'790'
p6147
sg4
S'png'
p6148
sg6
S'1970'
p6149
sg8
g52
sg10
S'Actor'
p6150
sg12
S'Melissa_McCarthy'
p6151
sg14
S'USA'
p6152
sg16
S'157'
p6153
sa(dp6154
g2
S'791'
p6155
sg4
S'png'
p6156
sg6
S'1971'
p6157
sg8
g52
sg10
S'Actor'
p6158
sg12
S'Melissa_Peterman'
p6159
sg14
S'USA'
p6160
sg16
S'178'
p6161
sa(dp6162
g2
S'792'
p6163
sg4
S'png'
p6164
sg6
S'1980'
p6165
sg8
g52
sg10
S'Actor'
p6166
sg12
S'Melissa_Rauch'
p6167
sg14
S'USA'
p6168
sg16
S'150'
p6169
sa(dp6170
g2
S'793'
p6171
sg4
S'png'
p6172
sg6
S'1983'
p6173
sg8
g52
sg10
S'Broadcaster '
p6174
sg12
S'Melissa_Rycroft'
p6175
sg14
S'USA'
p6176
sg16
S'160'
p6177
sa(dp6178
g2
S'794'
p6179
sg4
S'png'
p6180
sg6
S'1956'
p6181
sg8
g52
sg10
S'Actor'
p6182
sg12
S'Melody_Thomas_Scott'
p6183
sg14
S'USA'
p6184
sg16
g17
sa(dp6185
g2
S'795'
p6186
sg4
S'png'
p6187
sg6
S'1967'
p6188
sg8
g52
sg10
S'Actor'
p6189
sg12
S'Melora_Hardin'
p6190
sg14
S'USA'
p6191
sg16
S'165'
p6192
sa(dp6193
g2
S'796'
p6194
sg4
S'png'
p6195
sg6
S'1979'
p6196
sg8
g52
sg10
S'Actor'
p6197
sg12
S'Mena_Suvari'
p6198
sg14
S'USA'
p6199
sg16
S'161'
p6200
sa(dp6201
g2
S'797'
p6202
sg4
S'png'
p6203
sg6
S'1947'
p6204
sg8
g52
sg10
S'Actor'
p6205
sg12
S'Meredith_Baxter'
p6206
sg14
S'USA'
p6207
sg16
g17
sa(dp6208
g2
S'798'
p6209
sg4
S'png'
p6210
sg6
S'1989'
p6211
sg8
g52
sg10
S'Actor'
p6212
sg12
S'Mia_Wasikowska'
p6213
sg14
S'Austrailia'
p6214
sg16
S'162'
p6215
sa(dp6216
g2
S'799'
p6217
sg4
S'png'
p6218
sg6
S'1965'
p6219
sg8
g9
sg10
S'Director'
p6220
sg12
S'Michael_Bay'
p6221
sg14
S'USA'
p6222
sg16
S'185'
p6223
sa(dp6224
g2
S'800'
p6225
sg4
S'png'
p6226
sg6
S'1971'
p6227
sg8
g9
sg10
S'Actor'
p6228
sg12
S'Michael_C._Hall'
p6229
sg14
S'USA'
p6230
sg16
S'177'
p6231
sa(dp6232
g2
S'801'
p6233
sg4
S'png'
p6234
sg6
S'1988'
p6235
sg8
g9
sg10
S'Actor'
p6236
sg12
S'Michael_Cera'
p6237
sg14
S'Canada'
p6238
sg16
S'175'
p6239
sa(dp6240
g2
S'802'
p6241
sg4
S'png'
p6242
sg6
S'1982'
p6243
sg8
g9
sg10
S'Actor'
p6244
sg12
S'Michael_Copon'
p6245
sg14
S'USA'
p6246
sg16
g17
sa(dp6247
g2
S'803'
p6248
sg4
S'png'
p6249
sg6
S'1942'
p6250
sg8
g9
sg10
S'Writer'
p6251
sg12
S'Michael_Crichton'
p6252
sg14
S'USA'
p6253
sg16
S'206'
p6254
sa(dp6255
g2
S'804'
p6256
sg4
S'png'
p6257
sg6
S'1964'
p6258
sg8
g9
sg10
S'Actor'
p6259
sg12
S'Michael_Cudlitz'
p6260
sg14
S'USA'
p6261
sg16
S'188'
p6262
sa(dp6263
g2
S'805'
p6264
sg4
S'png'
p6265
sg6
S'1967'
p6266
sg8
g9
sg10
S'Actor'
p6267
sg12
S'Michael_Jai_White'
p6268
sg14
S'USA'
p6269
sg16
S'185'
p6270
sa(dp6271
g2
S'806'
p6272
sg4
S'png'
p6273
sg6
S'1966'
p6274
sg8
g9
sg10
S'Actor'
p6275
sg12
S'Michael_K._Williams'
p6276
sg14
S'USA'
p6277
sg16
S'178'
p6278
sa(dp6279
g2
S'807'
p6280
sg4
S'png'
p6281
sg6
S'1969'
p6282
sg8
g9
sg10
S'Actor'
p6283
sg12
S'Michael_Kelly'
p6284
sg14
S'USA'
p6285
sg16
S'178'
p6286
sa(dp6287
g2
S'808'
p6288
sg4
S'png'
p6289
sg6
S'1958'
p6290
sg8
g9
sg10
S'Actor'
p6291
sg12
S'Michael_Madsen'
p6292
sg14
S'USA'
p6293
sg16
S'188'
p6294
sa(dp6295
g2
S'809'
p6296
sg4
S'png'
p6297
sg6
S'1981'
p6298
sg8
g9
sg10
S'Actor'
p6299
sg12
S'Michael_Mando'
p6300
sg14
S'Canada'
p6301
sg16
g17
sa(dp6302
g2
S'810'
p6303
sg4
S'png'
p6304
sg6
S'1975'
p6305
sg8
g9
sg10
S'Actor'
p6306
sg12
S'Michael_Muhney'
p6307
sg14
S'USA'
p6308
sg16
S'185'
p6309
sa(dp6310
g2
S'811'
p6311
sg4
S'png'
p6312
sg6
S'1974'
p6313
sg8
g9
sg10
S'Actor'
p6314
sg12
S'Michael_Shannon'
p6315
sg14
S'USA'
p6316
sg16
S'190'
p6317
sa(dp6318
g2
S'812'
p6319
sg4
S'png'
p6320
sg6
S'1987'
p6321
sg8
g9
sg10
S'Actor'
p6322
sg12
S'Michael_Socha'
p6323
sg14
S'UK'
p6324
sg16
g17
sa(dp6325
g2
S'813'
p6326
sg4
S'png'
p6327
sg6
S'1985'
p6328
sg8
g9
sg10
S'Actor'
p6329
sg12
S'Michael_Trevino'
p6330
sg14
S'USA'
p6331
sg16
S'175'
p6332
sa(dp6333
g2
S'814'
p6334
sg4
S'png'
p6335
sg6
S'1968'
p6336
sg8
g9
sg10
S'Actor'
p6337
sg12
S'Michael_Weatherly'
p6338
sg14
S'USA'
p6339
sg16
S'188'
p6340
sa(dp6341
g2
S'815'
p6342
sg4
S'jpg'
p6343
sg6
S'1978'
p6344
sg8
g52
sg10
S'Actor'
p6345
sg12
S'Michaela_Conlin'
p6346
sg14
S'USA'
p6347
sg16
S'172'
p6348
sa(dp6349
g2
S'816'
p6350
sg4
S'png'
p6351
sg6
S'1981'
p6352
sg8
g52
sg10
S'Actor'
p6353
sg12
S'Michelle_Dockery'
p6354
sg14
S'UK'
p6355
sg16
S'173'
p6356
sa(dp6357
g2
S'817'
p6358
sg4
S'png'
p6359
sg6
S'1987'
p6360
sg8
g52
sg10
S'Actor'
p6361
sg12
S'Michelle_Keegan'
p6362
sg14
S'UK'
p6363
sg16
S'163'
p6364
sa(dp6365
g2
S'818'
p6366
sg4
S'png'
p6367
sg6
S'1974'
p6368
sg8
g52
sg10
S'Actor'
p6369
sg12
S'Michelle_Krusiec'
p6370
sg14
S'USA'
p6371
sg16
g17
sa(dp6372
g2
S'819'
p6373
sg4
S'png'
p6374
sg6
S'1976'
p6375
sg8
g52
sg10
S'Actor'
p6376
sg12
S'Michelle_Monaghan'
p6377
sg14
S'USA'
p6378
sg16
S'170'
p6379
sa(dp6380
g2
S'820'
p6381
sg4
S'png'
p6382
sg6
S'1965'
p6383
sg8
g52
sg10
S'Actor'
p6384
sg12
S'Michelle_Stafford'
p6385
sg14
S'USA'
p6386
sg16
S'172'
p6387
sa(dp6388
g2
S'821'
p6389
sg4
S'png'
p6390
sg6
S'1980'
p6391
sg8
g52
sg10
S'Actor'
p6392
sg12
S'Michelle_Williams'
p6393
sg14
S'USA'
p6394
sg16
S'163'
p6395
sa(dp6396
g2
S'822'
p6397
sg4
S'png'
p6398
sg6
S'1983'
p6399
sg8
g52
sg10
S'Actor'
p6400
sg12
S'Mila_Kunis'
p6401
sg14
S'USA'
p6402
sg16
S'163'
p6403
sa(dp6404
g2
S'823'
p6405
sg4
S'png'
p6406
sg6
S'1987'
p6407
sg8
g9
sg10
S'Actor'
p6408
sg12
S'Miles_Teller'
p6409
sg14
S'USA'
p6410
sg16
S'183'
p6411
sa(dp6412
g2
S'824'
p6413
sg4
S'png'
p6414
sg6
S'1992'
p6415
sg8
g52
sg10
S'Actor'
p6416
sg12
S'Miley_Cyrus'
p6417
sg14
S'USA'
p6418
sg16
S'165'
p6419
sa(dp6420
g2
S'825'
p6421
sg4
S'png'
p6422
sg6
S'1975'
p6423
sg8
g52
sg10
S'Model'
p6424
sg12
S'Milla_Jovovich'
p6425
sg14
S'USA'
p6426
sg16
S'174'
p6427
sa(dp6428
g2
S'826'
p6429
sg4
S'png'
p6430
sg6
S'1979'
p6431
sg8
g52
sg10
S'Actor'
p6432
sg12
S'Mindy_Kaling'
p6433
sg14
S'USA'
p6434
sg16
S'163'
p6435
sa(dp6436
g2
S'827'
p6437
sg4
S'png'
p6438
sg6
S'1955'
p6439
sg8
g52
sg10
S'Actor'
p6440
sg12
S'Mira_Furlan'
p6441
sg14
S'Croatia'
p6442
sg16
g17
sa(dp6443
g2
S'828'
p6444
sg4
S'png'
p6445
sg6
S'1993'
p6446
sg8
g52
sg10
S'Actor'
p6447
sg12
S'Miranda_Cosgrove'
p6448
sg14
S'USA'
p6449
sg16
S'168'
p6450
sa(dp6451
g2
S'829'
p6452
sg4
S'png'
p6453
sg6
S'1972'
p6454
sg8
g52
sg10
S'Actor'
p6455
sg12
S'Miranda_Hart'
p6456
sg14
S'UK'
p6457
sg16
S'185'
p6458
sa(dp6459
g2
S'830'
p6460
sg4
S'png'
p6461
sg6
S'1983'
p6462
sg8
g52
sg10
S'Model'
p6463
sg12
S'Miranda_Kerr'
p6464
sg14
S'Austrailia'
p6465
sg16
S'175'
p6466
sa(dp6467
g2
S'831'
p6468
sg4
S'png'
p6469
sg6
S'1983'
p6470
sg8
g52
sg10
S'Musician'
p6471
sg12
S'Miranda_Lambert'
p6472
sg14
S'USA'
p6473
sg16
g17
sa(dp6474
g2
S'832'
p6475
sg4
S'png'
p6476
sg6
S'1958'
p6477
sg8
g52
sg10
S'Actor'
p6478
sg12
S'Miranda_Richardson'
p6479
sg14
S'UK'
p6480
sg16
g17
sa(dp6481
g2
S'833'
p6482
sg4
S'png'
p6483
sg6
S'1941'
p6484
sg8
g52
sg10
S'Actor'
p6485
sg12
S'Miriam_Margolyes'
p6486
sg14
S'UK'
p6487
sg16
S'155'
p6488
sa(dp6489
g2
S'834'
p6490
sg4
S'png'
p6491
sg6
S'1986'
p6492
sg8
g52
sg10
S'Actor'
p6493
sg12
S'Mischa_Barton'
p6494
sg14
S'UK'
p6495
sg16
S'175'
p6496
sa(dp6497
g2
S'835'
p6498
sg4
S'png'
p6499
sg6
S'1974'
p6500
sg8
g9
sg10
S'Actor'
p6501
sg12
S'Misha_Collins'
p6502
sg14
S'USA'
p6503
sg16
S'183'
p6504
sa(dp6505
g2
S'836'
p6506
sg4
S'png'
p6507
sg6
S'1972'
p6508
sg8
g52
sg10
S'Actor'
p6509
sg12
S'Missi_Pyle'
p6510
sg14
S'USA'
p6511
sg16
S'180'
p6512
sa(dp6513
g2
S'837'
p6514
sg4
S'png'
p6515
sg6
S'1991'
p6516
sg8
g9
sg10
S'Musician'
p6517
sg12
S'Mitchel_Musso'
p6518
sg14
S'USA'
p6519
sg16
S'170'
p6520
sa(dp6521
g2
S'838'
p6522
sg4
S'png'
p6523
sg6
S'1968'
p6524
sg8
g52
sg10
S'Actor'
p6525
sg12
S'Molly_Ringwald'
p6526
sg14
S'USA'
p6527
sg16
S'173'
p6528
sa(dp6529
g2
S'839'
p6530
sg4
S'png'
p6531
sg6
S'1964'
p6532
sg8
g52
sg10
S'Actor'
p6533
sg12
S'Molly_Shannon'
p6534
sg14
S'USA'
p6535
sg16
g17
sa(dp6536
g2
S'840'
p6537
sg4
S'png'
p6538
sg6
S'1986'
p6539
sg8
g52
sg10
S'Actor'
p6540
sg12
S'Monica_Raymund'
p6541
sg14
S'USA'
p6542
sg16
S'170'
p6543
sa(dp6544
g2
S'841'
p6545
sg4
S'png'
p6546
sg6
S'1975'
p6547
sg8
g52
sg10
S'Actor'
p6548
sg12
S'Moon_Bloodgood'
p6549
sg14
S'USA'
p6550
sg16
g17
sa(dp6551
g2
S'842'
p6552
sg4
S'png'
p6553
sg6
S'1981'
p6554
sg8
g52
sg10
S'Actor'
p6555
sg12
S'Moran_Atias'
p6556
sg14
S'Israel'
p6557
sg16
g17
sa(dp6558
g2
S'843'
p6559
sg4
S'png'
p6560
sg6
S'1979'
p6561
sg8
g52
sg10
S'Actor'
p6562
sg12
S'Morena_Baccarin'
p6563
sg14
S'Brazil'
p6564
sg16
S'171'
p6565
sa(dp6566
g2
S'844'
p6567
sg4
S'png'
p6568
sg6
S'1971'
p6569
sg8
g9
sg10
S'Actor'
p6570
sg12
S'Moritz_Bleibtreu'
p6571
sg14
S'Germany'
p6572
sg16
S'173'
p6573
sa(dp6574
g2
S'845'
p6575
sg4
S'png'
p6576
sg6
S'1979'
p6577
sg8
g52
sg10
S'Actor'
p6578
sg12
S'MyAnna_Buring'
p6579
sg14
S'Sweden'
p6580
sg16
g17
sa(dp6581
g2
S'846'
p6582
sg4
S'png'
p6583
sg6
S'1979'
p6584
sg8
g52
sg10
S'Musician'
p6585
sg12
S'Mya'
p6586
sg14
S'USA'
p6587
sg16
S'164'
p6588
sa(dp6589
g2
S'847'
p6590
sg4
S'png'
p6591
sg6
S'1980'
p6592
sg8
g52
sg10
S'Actor'
p6593
sg12
S'Nadia_Bjorlin'
p6594
sg14
S'USA'
p6595
sg16
S'173'
p6596
sa(dp6597
g2
S'848'
p6598
sg4
S'png'
p6599
sg6
S'1957'
p6600
sg8
g52
sg10
S'Actor'
p6601
sg12
S'Nana_Visitor'
p6602
sg14
S'USA'
p6603
sg16
S'172'
p6604
sa(dp6605
g2
S'849'
p6606
sg4
S'png'
p6607
sg6
S'1957'
p6608
sg8
g52
sg10
S'Actor'
p6609
sg12
S'Nancy_Cartwright'
p6610
sg14
S'USA'
p6611
sg16
g17
sa(dp6612
g2
S'850'
p6613
sg4
S'png'
p6614
sg6
S'1976'
p6615
sg8
g52
sg10
S'Actor'
p6616
sg12
S'Naomie_Harris'
p6617
sg14
S'UK'
p6618
sg16
S'173'
p6619
sa(dp6620
g2
S'851'
p6621
sg4
S'png'
p6622
sg6
S'1950'
p6623
sg8
g9
sg10
S'Actor'
p6624
sg12
S'Naseeruddin_Shah'
p6625
sg14
S'India'
p6626
sg16
S'178'
p6627
sa(dp6628
g2
S'852'
p6629
sg4
S'png'
p6630
sg6
S'1984'
p6631
sg8
g52
sg10
S'Actor'
p6632
sg12
S'Natalia_Tena'
p6633
sg14
S'UK'
p6634
sg16
S'166'
p6635
sa(dp6636
g2
S'853'
p6637
sg4
S'png'
p6638
sg6
S'1982'
p6639
sg8
g52
sg10
S'Actor'
p6640
sg12
S'Natalie_Dormer'
p6641
sg14
S'UK'
p6642
sg16
S'168'
p6643
sa(dp6644
g2
S'854'
p6645
sg4
S'png'
p6646
sg6
S'1984'
p6647
sg8
g52
sg10
S'Actor'
p6648
sg12
S'Natalie_Martinez'
p6649
sg14
S'USA'
p6650
sg16
S'172'
p6651
sa(dp6652
g2
S'855'
p6653
sg4
S'png'
p6654
sg6
S'1981'
p6655
sg8
g52
sg10
S'Director'
p6656
sg12
S'Natalie_Portman'
p6657
sg14
S'USA'
p6658
sg16
S'160'
p6659
sa(dp6660
g2
S'856'
p6661
sg4
S'png'
p6662
sg6
S'1975'
p6663
sg8
g52
sg10
S'Actor'
p6664
sg12
S'Natalie_Zea'
p6665
sg14
S'USA'
p6666
sg16
S'165'
p6667
sa(dp6668
g2
S'857'
p6669
sg4
S'png'
p6670
sg6
S'1969'
p6671
sg8
g52
sg10
S'Actor'
p6672
sg12
S'Natascha_McElhone'
p6673
sg14
S'UK'
p6674
sg16
S'173'
p6675
sa(dp6676
g2
S'858'
p6677
sg4
S'png'
p6678
sg6
S'1979'
p6679
sg8
g9
sg10
S'Actor'
p6680
sg12
S'Nate_Parker'
p6681
sg14
S'USA'
p6682
sg16
g17
sa(dp6683
g2
S'859'
p6684
sg4
S'png'
p6685
sg6
S'1989'
p6686
sg8
g52
sg10
S'Actor'
p6687
sg12
S'Nathalie_Emmanuel'
p6688
sg14
S'UK'
p6689
sg16
S'170'
p6690
sa(dp6691
g2
S'860'
p6692
sg4
S'png'
p6693
sg6
S'1971'
p6694
sg8
g9
sg10
S'Actor'
p6695
sg12
S'Nathan_Fillion'
p6696
sg14
S'Canada'
p6697
sg16
S'187'
p6698
sa(dp6699
g2
S'861'
p6700
sg4
S'png'
p6701
sg6
S'1983'
p6702
sg8
g9
sg10
S'Actor'
p6703
sg12
S'Nathaniel_Buzolic'
p6704
sg14
S'Austrailia'
p6705
sg16
S'185'
p6706
sa(dp6707
g2
S'862'
p6708
sg4
S'png'
p6709
sg6
S'1984'
p6710
sg8
g52
sg10
S'Actor'
p6711
sg12
S'Naturi_Naughton'
p6712
sg14
S'USA'
p6713
sg16
S'152'
p6714
sa(dp6715
g2
S'863'
p6716
sg4
S'png'
p6717
sg6
S'1980'
p6718
sg8
g52
sg10
S'Actor'
p6719
sg12
S'Nazanin_Boniadi'
p6720
sg14
S'Iran'
p6721
sg16
S'162'
p6722
sa(dp6723
g2
S'864'
p6724
sg4
S'png'
p6725
sg6
S'1967'
p6726
sg8
g52
sg10
S'Actor'
p6727
sg12
S'NeNe_Leakes'
p6728
sg14
S'USA'
p6729
sg16
S'178'
p6730
sa(dp6731
g2
S'865'
p6732
sg4
S'png'
p6733
sg6
S'1966'
p6734
sg8
g9
sg10
S'Actor'
p6735
sg12
S'Neal_McDonough'
p6736
sg14
S'USA'
p6737
sg16
S'183'
p6738
sa(dp6739
g2
S'866'
p6740
sg4
S'png'
p6741
sg6
S'1960'
p6742
sg8
g9
sg10
S'Writer'
p6743
sg12
S'Neil_Gaiman'
p6744
sg14
S'UK'
p6745
sg16
g17
sa(dp6746
g2
S'867'
p6747
sg4
S'png'
p6748
sg6
S'1958'
p6749
sg8
g9
sg10
S'Scientist'
p6750
sg12
S'Neil_deGrasse_Tyson'
p6751
sg14
S'USA'
p6752
sg16
g17
sa(dp6753
g2
S'868'
p6754
sg4
S'png'
p6755
sg6
S'1974'
p6756
sg8
g9
sg10
S'Musician'
p6757
sg12
S'Nelly'
p6758
sg14
S'USA'
p6759
sg16
S'173'
p6760
sa(dp6761
g2
S'869'
p6762
sg4
S'png'
p6763
sg6
S'1978'
p6764
sg8
g52
sg10
S'Musician'
p6765
sg12
S'Nelly_Furtado'
p6766
sg14
S'Canada'
p6767
sg16
S'158'
p6768
sa(dp6769
g2
S'870'
p6770
sg4
S'png'
p6771
sg6
S'1973'
p6772
sg8
g52
sg10
S'Actor'
p6773
sg12
S'Neve_Campbell'
p6774
sg14
S'Canada'
p6775
sg16
S'170'
p6776
sa(dp6777
g2
S'871'
p6778
sg4
S'png'
p6779
sg6
S'1993'
p6780
sg8
g9
sg10
S'Musician'
p6781
sg12
S'Niall_Horan'
p6782
sg14
S'Ireland'
p6783
sg16
S'173'
p6784
sa(dp6785
g2
S'872'
p6786
sg4
S'png'
p6787
sg6
S'1932'
p6788
sg8
g52
sg10
S'Actor'
p6789
sg12
S'Nichelle_Nichols'
p6790
sg14
S'USA'
p6791
sg16
g17
sa(dp6792
g2
S'873'
p6793
sg4
S'png'
p6794
sg6
S'1978'
p6795
sg8
g9
sg10
S'Actor'
p6796
sg12
S'Nick_Kroll'
p6797
sg14
S'USA'
p6798
sg16
S'175'
p6799
sa(dp6800
g2
S'874'
p6801
sg4
S'png'
p6802
sg6
S'1979'
p6803
sg8
g9
sg10
S'Actor'
p6804
sg12
S'Nick_Thune'
p6805
sg14
S'USA'
p6806
sg16
S'196'
p6807
sa(dp6808
g2
S'875'
p6809
sg4
S'png'
p6810
sg6
S'1982'
p6811
sg8
g52
sg10
S'Musician'
p6812
sg12
S'Nicki_Minaj'
p6813
sg14
S'USA'
p6814
sg16
S'157'
p6815
sa(dp6816
g2
S'876'
p6817
sg4
S'png'
p6818
sg6
S'1995'
p6819
sg8
g52
sg10
S'Actor'
p6820
sg12
S'Nicola_Peltz'
p6821
sg14
S'USA'
p6822
sg16
S'166'
p6823
sa(dp6824
g2
S'877'
p6825
sg4
S'png'
p6826
sg6
S'1985'
p6827
sg8
g52
sg10
S'Actor'
p6828
sg12
S'Nicole_Beharie'
p6829
sg14
S'USA'
p6830
sg16
S'155'
p6831
sa(dp6832
g2
S'878'
p6833
sg4
S'png'
p6834
sg6
S'1981'
p6835
sg8
g52
sg10
S'Broadcaster '
p6836
sg12
S'Nicole_Richie'
p6837
sg14
S'USA'
p6838
sg16
S'155'
p6839
sa(dp6840
g2
S'879'
p6841
sg4
S'png'
p6842
sg6
S'1978'
p6843
sg8
g52
sg10
S'Musician'
p6844
sg12
S'Nicole_Scherzinger'
p6845
sg14
S'USA'
p6846
sg16
S'165'
p6847
sa(dp6848
g2
S'880'
p6849
sg4
S'png'
p6850
sg6
S'1970'
p6851
sg8
g9
sg10
S'Actor'
p6852
sg12
S'Nikolaj_Coster-Waldau'
p6853
sg14
S'Denmark'
p6854
sg16
S'187'
p6855
sa(dp6856
g2
S'881'
p6857
sg4
S'png'
p6858
sg6
S'1984'
p6859
sg8
g52
sg10
S'Actor'
p6860
sg12
S'Nina_Arianda'
p6861
sg14
S'USA'
p6862
sg16
g17
sa(dp6863
g2
S'882'
p6864
sg4
S'png'
p6865
sg6
S'1975'
p6866
sg8
g52
sg10
S'Actor'
p6867
sg12
S'Nina_Hoss'
p6868
sg14
S'Germany'
p6869
sg16
g17
sa(dp6870
g2
S'883'
p6871
sg4
S'png'
p6872
sg6
S'1965'
p6873
sg8
g9
sg10
S'Actor'
p6874
sg12
S'Noah_Emmerich'
p6875
sg14
S'USA'
p6876
sg16
g17
sa(dp6877
g2
S'884'
p6878
sg4
S'png'
p6879
sg6
S'1975'
p6880
sg8
g9
sg10
S'Actor'
p6881
sg12
S'Noel_Clarke'
p6882
sg14
S'UK'
p6883
sg16
g17
sa(dp6884
g2
S'885'
p6885
sg4
S'png'
p6886
sg6
S'1973'
p6887
sg8
g9
sg10
S'Comedian'
p6888
sg12
S'Noel_Fielding'
p6889
sg14
S'UK'
p6890
sg16
S'180'
p6891
sa(dp6892
g2
S'886'
p6893
sg4
S'png'
p6894
sg6
S'1979'
p6895
sg8
g52
sg10
S'Actor'
p6896
sg12
S'Noomi_Rapace'
p6897
sg14
S'Sweden'
p6898
sg16
S'163'
p6899
sa(dp6900
g2
S'887'
p6901
sg4
S'png'
p6902
sg6
S'1969'
p6903
sg8
g9
sg10
S'Actor'
p6904
sg12
S'Norman_Reedus'
p6905
sg14
S'USA'
p6906
sg16
S'178'
p6907
sa(dp6908
g2
S'888'
p6909
sg4
S'png'
p6910
sg6
S'1970'
p6911
sg8
g52
sg10
S'Actor'
p6912
sg12
S'Octavia_Spencer'
p6913
sg14
S'USA'
p6914
sg16
g17
sa(dp6915
g2
S'889'
p6916
sg4
S'png'
p6917
sg6
S'1985'
p6918
sg8
g52
sg10
S'Actor'
p6919
sg12
S'Odette_Annable'
p6920
sg14
S'USA'
p6921
sg16
S'174'
p6922
sa(dp6923
g2
S'890'
p6924
sg4
S'png'
p6925
sg6
S'1997'
p6926
sg8
g52
sg10
S'Actor'
p6927
sg12
S'Odeya_Rush'
p6928
sg14
S'USA'
p6929
sg16
S'163'
p6930
sa(dp6931
g2
S'891'
p6932
sg4
S'png'
p6933
sg6
S'1979'
p6934
sg8
g52
sg10
S'Actor'
p6935
sg12
S'Olga_Kurylenko'
p6936
sg14
S'France'
p6937
sg16
S'175'
p6938
sa(dp6939
g2
S'892'
p6940
sg4
S'png'
p6941
sg6
S'1960'
p6942
sg8
g9
sg10
S'Actor'
p6943
sg12
S'Oliver_Platt'
p6944
sg14
S'Canada'
p6945
sg16
S'192'
p6946
sa(dp6947
g2
S'893'
p6948
sg4
S'png'
p6949
sg6
S'1974'
p6950
sg8
g52
sg10
S'Actor'
p6951
sg12
S'Olivia_Colman'
p6952
sg14
S'UK'
p6953
sg16
S'170'
p6954
sa(dp6955
g2
S'894'
p6956
sg4
S'png'
p6957
sg6
S'1993'
p6958
sg8
g52
sg10
S'Actor'
p6959
sg12
S'Olivia_Cooke'
p6960
sg14
S'UK'
p6961
sg16
S'166'
p6962
sa(dp6963
g2
S'895'
p6964
sg4
S'png'
p6965
sg6
S'1997'
p6966
sg8
g52
sg10
S'Actor'
p6967
sg12
S'Olivia_Holt'
p6968
sg14
S'USA'
p6969
sg16
S'161'
p6970
sa(dp6971
g2
S'896'
p6972
sg4
S'png'
p6973
sg6
S'1980'
p6974
sg8
g52
sg10
S'Model'
p6975
sg12
S'Olivia_Munn'
p6976
sg14
S'USA'
p6977
sg16
S'163'
p6978
sa(dp6979
g2
S'897'
p6980
sg4
S'png'
p6981
sg6
S'1986'
p6982
sg8
g52
sg10
S'Actor'
p6983
sg12
S'Olivia_Thirlby'
p6984
sg14
S'USA'
p6985
sg16
S'163'
p6986
sa(dp6987
g2
S'898'
p6988
sg4
S'png'
p6989
sg6
S'1984'
p6990
sg8
g52
sg10
S'Actor'
p6991
sg12
S'Olivia_Wilde'
p6992
sg14
S'Ireland'
p6993
sg16
S'171'
p6994
sa(dp6995
g2
S'899'
p6996
sg4
S'png'
p6997
sg6
S'1968'
p6998
sg8
g52
sg10
S'Actor'
p6999
sg12
S'Olivia_Williams'
p7000
sg14
S'UK'
p7001
sg16
g17
sa(dp7002
g2
S'900'
p7003
sg4
S'png'
p7004
sg6
S'1950'
p7005
sg8
g9
sg10
S'Actor'
p7006
sg12
S'Om_Puri'
p7007
sg14
S'India'
p7008
sg16
g17
sa(dp7009
g2
S'901'
p7010
sg4
S'png'
p7011
sg6
S'1974'
p7012
sg8
g9
sg10
S'Actor'
p7013
sg12
S'Omari_Hardwick'
p7014
sg14
S'USA'
p7015
sg16
S'179'
p7016
sa(dp7017
g2
S'902'
p7018
sg4
S'png'
p7019
sg6
S'1986'
p7020
sg8
g52
sg10
S'Actor'
p7021
sg12
S'Oona_Chaplin'
p7022
sg14
S'Spain'
p7023
sg16
S'170'
p7024
sa(dp7025
g2
S'903'
p7026
sg4
S'png'
p7027
sg6
S'1979'
p7028
sg8
g9
sg10
S'Actor'
p7029
sg12
S'Oscar_Isaac'
p7030
sg14
S'Guatemala '
p7031
sg16
S'174'
p7032
sa(dp7033
g2
S'904'
p7034
sg4
S'png'
p7035
sg6
S'1978'
p7036
sg8
g9
sg10
S'Actor'
p7037
sg12
S'Pablo_Schreiber'
p7038
sg14
S'Canada'
p7039
sg16
S'196'
p7040
sa(dp7041
g2
S'905'
p7042
sg4
S'png'
p7043
sg6
S'1973'
p7044
sg8
g9
sg10
S'Actor'
p7045
sg12
S'Paddy_Considine'
p7046
sg14
S'UK'
p7047
sg16
g17
sa(dp7048
g2
S'906'
p7049
sg4
S'png'
p7050
sg6
S'1970'
p7051
sg8
g52
sg10
S'Writer'
p7052
sg12
S'Padma_Lakshmi'
p7053
sg14
S'USA'
p7054
sg16
S'175'
p7055
sa(dp7056
g2
S'907'
p7057
sg4
S'png'
p7058
sg6
S'1969'
p7059
sg8
g52
sg10
S'Actor'
p7060
sg12
S'Paget_Brewster'
p7061
sg14
S'USA'
p7062
sg16
S'173'
p7063
sa(dp7064
g2
S'908'
p7065
sg4
S'png'
p7066
sg6
S'1981'
p7067
sg8
g52
sg10
S'Musician'
p7068
sg12
S'Paloma_Faith'
p7069
sg14
S'UK'
p7070
sg16
g17
sa(dp7071
g2
S'909'
p7072
sg4
S'png'
p7073
sg6
S'1966'
p7074
sg8
g52
sg10
S'Actor'
p7075
sg12
S'Pamela_Adlon'
p7076
sg14
S'USA'
p7077
sg16
S'152'
p7078
sa(dp7079
g2
S'910'
p7080
sg4
S'png'
p7081
sg6
S'1970'
p7082
sg8
g9
sg10
S'Director'
p7083
sg12
S'Paolo_Sorrentino'
p7084
sg14
S'Italy'
p7085
sg16
g17
sa(dp7086
g2
S'911'
p7087
sg4
S'png'
p7088
sg6
S'1988'
p7089
sg8
g52
sg10
S'Actor'
p7090
sg12
S'Parineeti_Chopra'
p7091
sg14
S'India'
p7092
sg16
S'167'
p7093
sa(dp7094
g2
S'912'
p7095
sg4
S'png'
p7096
sg6
S'1969'
p7097
sg8
g9
sg10
S'Musician'
p7098
sg12
S'Pat_Monahan'
p7099
sg14
S'USA'
p7100
sg16
S'181'
p7101
sa(dp7102
g2
S'913'
p7103
sg4
S'png'
p7104
sg6
S'1966'
p7105
sg8
g9
sg10
S'Actor'
p7106
sg12
S'Patrick_Dempsey'
p7107
sg14
S'USA'
p7108
sg16
S'179'
p7109
sa(dp7110
g2
S'914'
p7111
sg4
S'png'
p7112
sg6
S'1949'
p7113
sg8
g9
sg10
S'Actor'
p7114
sg12
S'Patrick_Duffy'
p7115
sg14
S'USA'
p7116
sg16
S'187'
p7117
sa(dp7118
g2
S'915'
p7119
sg4
S'png'
p7120
sg6
S'1982'
p7121
sg8
g9
sg10
S'Actor'
p7122
sg12
S'Patrick_Fugit'
p7123
sg14
S'USA'
p7124
sg16
g17
sa(dp7125
g2
S'916'
p7126
sg4
S'png'
p7127
sg6
S'1952'
p7128
sg8
g9
sg10
S'Actor'
p7129
sg12
S'Patrick_Swayze'
p7130
sg14
S'USA'
p7131
sg16
S'178'
p7132
sa(dp7133
g2
S'917'
p7134
sg4
S'png'
p7135
sg6
S'1973'
p7136
sg8
g9
sg10
S'Actor'
p7137
sg12
S'Patrick_Wilson'
p7138
sg14
S'USA'
p7139
sg16
S'185'
p7140
sa(dp7141
g2
S'918'
p7142
sg4
S'png'
p7143
sg6
S'1969'
p7144
sg8
g9
sg10
S'Comedian'
p7145
sg12
S'Patton_Oswalt'
p7146
sg14
S'USA'
p7147
sg16
S'161'
p7148
sa(dp7149
g2
S'919'
p7150
sg4
S'png'
p7151
sg6
S'1984'
p7152
sg8
g9
sg10
S'Actor'
p7153
sg12
S'Paul_Dano'
p7154
sg14
S'USA'
p7155
sg16
S'180'
p7156
sa(dp7157
g2
S'920'
p7158
sg4
S'png'
p7159
sg6
S'1962'
p7160
sg8
g9
sg10
S'Actor'
p7161
sg12
S'Paul_Feig'
p7162
sg14
S'USA'
p7163
sg16
g17
sa(dp7164
g2
S'921'
p7165
sg4
S'png'
p7166
sg6
S'1967'
p7167
sg8
g9
sg10
S'Actor'
p7168
sg12
S'Paul_Giamatti'
p7169
sg14
S'USA'
p7170
sg16
S'174'
p7171
sa(dp7172
g2
S'922'
p7173
sg4
S'png'
p7174
sg6
S'1959'
p7175
sg8
g9
sg10
S'Actor'
p7176
sg12
S'Paul_Gross'
p7177
sg14
S'Canada'
p7178
sg16
g17
sa(dp7179
g2
S'923'
p7180
sg4
S'png'
p7181
sg6
S'1959'
p7182
sg8
g9
sg10
S'Actor'
p7183
sg12
S'Paul_McGann'
p7184
sg14
S'UK'
p7185
sg16
S'174'
p7186
sa(dp7187
g2
S'924'
p7188
sg4
S'png'
p7189
sg6
S'1952'
p7190
sg8
g9
sg10
S'Actor'
p7191
sg12
S'Paul_Reubens'
p7192
sg14
S'USA'
p7193
sg16
S'178'
p7194
sa(dp7195
g2
S'925'
p7196
sg4
S'png'
p7197
sg6
S'1976'
p7198
sg8
g9
sg10
S'Actor'
p7199
sg12
S'Paul_Scheer'
p7200
sg14
S'USA'
p7201
sg16
g17
sa(dp7202
g2
S'926'
p7203
sg4
S'png'
p7204
sg6
S'1939'
p7205
sg8
g9
sg10
S'Actor'
p7206
sg12
S'Paul_Sorvino'
p7207
sg14
S'USA'
p7208
sg16
S'189'
p7209
sa(dp7210
g2
S'927'
p7211
sg4
S'png'
p7212
sg6
S'1982'
p7213
sg8
g9
sg10
S'Actor'
p7214
sg12
S'Paul_Wesley'
p7215
sg14
S'USA'
p7216
sg16
S'180'
p7217
sa(dp7218
g2
S'928'
p7219
sg4
S'png'
p7220
sg6
S'1955'
p7221
sg8
g9
sg10
S'Magician'
p7222
sg12
S'Penn_Jillette'
p7223
sg14
S'USA'
p7224
sg16
S'199'
p7225
sa(dp7226
g2
S'929'
p7227
sg4
S'png'
p7228
sg6
S'1979'
p7229
sg8
g9
sg10
S'Musician'
p7230
sg12
S'Pete_Wentz'
p7231
sg14
S'USA'
p7232
sg16
S'168'
p7233
sa(dp7234
g2
S'930'
p7235
sg4
S'png'
p7236
sg6
S'1964'
p7237
sg8
g9
sg10
S'Actor'
p7238
sg12
S'Peter_Berg'
p7239
sg14
S'USA'
p7240
sg16
g17
sa(dp7241
g2
S'931'
p7242
sg4
S'png'
p7243
sg6
S'1958'
p7244
sg8
g9
sg10
S'Actor'
p7245
sg12
S'Peter_Capaldi'
p7246
sg14
S'UK'
p7247
sg16
S'183'
p7248
sa(dp7249
g2
S'932'
p7250
sg4
S'png'
p7251
sg6
S'1941'
p7252
sg8
g9
sg10
S'Actor'
p7253
sg12
S'Peter_Coyote'
p7254
sg14
S'USA'
p7255
sg16
g17
sa(dp7256
g2
S'933'
p7257
sg4
S'png'
p7258
sg6
S'1973'
p7259
sg8
g9
sg10
S'Actor'
p7260
sg12
S'Peter_Facinelli'
p7261
sg14
S'USA'
p7262
sg16
S'177'
p7263
sa(dp7264
g2
S'934'
p7265
sg4
S'png'
p7266
sg6
S'1961'
p7267
sg8
g9
sg10
S'Director'
p7268
sg12
S'Peter_Jackson'
p7269
sg14
S'New Zealand '
p7270
sg16
g17
sa(dp7271
g2
S'935'
p7272
sg4
S'png'
p7273
sg6
S'1965'
p7274
sg8
g9
sg10
S'Actor'
p7275
sg12
S'Peter_Jacobson'
p7276
sg14
S'USA'
p7277
sg16
S'168'
p7278
sa(dp7279
g2
S'936'
p7280
sg4
S'png'
p7281
sg6
S'1963'
p7282
sg8
g9
sg10
S'Actor'
p7283
sg12
S'Philip_Glenister'
p7284
sg14
S'UK'
p7285
sg16
S'183'
p7286
sa(dp7287
g2
S'937'
p7288
sg4
S'png'
p7289
sg6
S'1917'
p7290
sg8
g52
sg10
S'Actor'
p7291
sg12
S'Phyllis_Diller'
p7292
sg14
S'USA'
p7293
sg16
g17
sa(dp7294
g2
S'938'
p7295
sg4
S'png'
p7296
sg6
S'1969'
p7297
sg8
g9
sg10
S'Actor'
p7298
sg12
S'Pierfrancesco_Favino'
p7299
sg14
S'Italy'
p7300
sg16
S'180'
p7301
sa(dp7302
g2
S'939'
p7303
sg4
S'png'
p7304
sg6
S'1989'
p7305
sg8
g9
sg10
S'Actor'
p7306
sg12
S'Pierre_Niney'
p7307
sg14
S'France'
p7308
sg16
S'177'
p7309
sa(dp7310
g2
S'940'
p7311
sg4
S'png'
p7312
sg6
S'1977'
p7313
sg8
g52
sg10
S'Actor'
p7314
sg12
S'Pooja_Kumar'
p7315
sg14
S'USA'
p7316
sg16
g17
sa(dp7317
g2
S'941'
p7318
sg4
S'png'
p7319
sg6
S'1972'
p7320
sg8
g52
sg10
S'Actor'
p7321
sg12
S'Poppy_Montgomery'
p7322
sg14
S'Austrailia'
p7323
sg16
S'163'
p7324
sa(dp7325
g2
S'942'
p7326
sg4
S'png'
p7327
sg6
S'1975'
p7328
sg8
g52
sg10
S'Actor'
p7329
sg12
S'Preity_Zinta'
p7330
sg14
S'India'
p7331
sg16
S'163'
p7332
sa(dp7333
g2
S'943'
p7334
sg4
S'png'
p7335
sg6
S'1958'
p7336
sg8
g9
sg10
S'Musician'
p7337
sg12
S'Prince'
p7338
sg14
S'USA'
p7339
sg16
S'157'
p7340
sa(dp7341
g2
S'944'
p7342
sg4
S'png'
p7343
sg6
S'1963'
p7344
sg8
g9
sg10
S'Director'
p7345
sg12
S'Quentin_Tarantino'
p7346
sg14
S'USA'
p7347
sg16
S'185'
p7348
sa(dp7349
g2
S'945'
p7350
sg4
S'png'
p7351
sg6
S'1969'
p7352
sg8
g9
sg10
S'Musician'
p7353
sg12
S'RZA'
p7354
sg14
S'USA'
p7355
sg16
S'188'
p7356
sa(dp7357
g2
S'946'
p7358
sg4
S'png'
p7359
sg6
S'1966'
p7360
sg8
g52
sg10
S'Actor'
p7361
sg12
S'Rachel_Dratch'
p7362
sg14
S'USA'
p7363
sg16
g17
sa(dp7364
g2
S'947'
p7365
sg4
S'png'
p7366
sg6
S'1978'
p7367
sg8
g52
sg10
S'Actor'
p7368
sg12
S'Rachel_McAdams'
p7369
sg14
S'Canada'
p7370
sg16
S'163'
p7371
sa(dp7372
g2
S'948'
p7373
sg4
S'png'
p7374
sg6
S'1946'
p7375
sg8
g9
sg10
S'Actor'
p7376
sg12
S'Rade_Serbedzija'
p7377
sg14
S'Croatia'
p7378
sg16
S'178'
p7379
sa(dp7380
g2
S'949'
p7381
sg4
S'png'
p7382
sg6
S'1993'
p7383
sg8
g52
sg10
S'Actor'
p7384
sg12
S'Raini_Rodriguez'
p7385
sg14
S'USA'
p7386
sg16
S'157'
p7387
sa(dp7388
g2
S'950'
p7389
sg4
S'png'
p7390
sg6
S'1966'
p7391
sg8
g9
sg10
S'Director'
p7392
sg12
S'Rainn_Wilson'
p7393
sg14
S'USA'
p7394
sg16
S'189'
p7395
sa(dp7396
g2
S'951'
p7397
sg4
S'png'
p7398
sg6
S'1980'
p7399
sg8
g9
sg10
S'Actor'
p7400
sg12
S'Ralf_Little'
p7401
sg14
S'UK'
p7402
sg16
g17
sa(dp7403
g2
S'952'
p7404
sg4
S'png'
p7405
sg6
S'1961'
p7406
sg8
g9
sg10
S'Actor'
p7407
sg12
S'Ralph_Macchio'
p7408
sg14
S'USA'
p7409
sg16
S'175'
p7410
sa(dp7411
g2
S'953'
p7412
sg4
S'png'
p7413
sg6
S'1981'
p7414
sg8
g9
sg10
S'Actor'
p7415
sg12
S'Rami_Malek'
p7416
sg14
S'USA'
p7417
sg16
S'175'
p7418
sa(dp7419
g2
S'954'
p7420
sg4
S'png'
p7421
sg6
S'1982'
p7422
sg8
g9
sg10
S'Actor'
p7423
sg12
S'Ranbir_Kapoor'
p7424
sg14
S'India'
p7425
sg16
S'183'
p7426
sa(dp7427
g2
S'955'
p7428
sg4
S'png'
p7429
sg6
S'1976'
p7430
sg8
g9
sg10
S'Actor'
p7431
sg12
S'Randeep_Hooda'
p7432
sg14
S'India'
p7433
sg16
S'180'
p7434
sa(dp7435
g2
S'956'
p7436
sg4
S'png'
p7437
sg6
S'1945'
p7438
sg8
g9
sg10
S'Actor'
p7439
sg12
S'Randolph_Mantooth'
p7440
sg14
S'USA'
p7441
sg16
S'185'
p7442
sa(dp7443
g2
S'957'
p7444
sg4
S'png'
p7445
sg6
S'1971'
p7446
sg8
g9
sg10
S'Actor'
p7447
sg12
S'Raoul_Bova'
p7448
sg14
S'Italy'
p7449
sg16
S'181'
p7450
sa(dp7451
g2
S'958'
p7452
sg4
S'png'
p7453
sg6
S'1957'
p7454
sg8
g9
sg10
S'Actor'
p7455
sg12
S'Ray_Winstone'
p7456
sg14
S'UK'
p7457
sg16
S'178'
p7458
sa(dp7459
g2
S'959'
p7460
sg4
S'png'
p7461
sg6
S'1955'
p7462
sg8
g52
sg10
S'Musician'
p7463
sg12
S'Reba_McEntire'
p7464
sg14
S'USA'
p7465
sg16
S'170'
p7466
sa(dp7467
g2
S'960'
p7468
sg4
S'png'
p7469
sg6
S'1977'
p7470
sg8
g52
sg10
S'Actor'
p7471
sg12
S'Rebecca_Mader'
p7472
sg14
S'UK'
p7473
sg16
S'170'
p7474
sa(dp7475
g2
S'961'
p7476
sg4
S'png'
p7477
sg6
S'1980'
p7478
sg8
g52
sg10
S'Actor'
p7479
sg12
S'Rebel_Wilson'
p7480
sg14
S'Austrailia'
p7481
sg16
S'159'
p7482
sa(dp7483
g2
S'962'
p7484
sg4
S'png'
p7485
sg6
S'1986'
p7486
sg8
g9
sg10
S'Actor'
p7487
sg12
S'Reece_Ritchie'
p7488
sg14
S'UK'
p7489
sg16
g17
sa(dp7490
g2
S'963'
p7491
sg4
S'png'
p7492
sg6
S'1975'
p7493
sg8
g9
sg10
S'Actor'
p7494
sg12
S'Reggie_Lee'
p7495
sg14
S'Philippines '
p7496
sg16
S'174'
p7497
sa(dp7498
g2
S'964'
p7499
sg4
S'png'
p7500
sg6
S'1970'
p7501
sg8
g52
sg10
S'Actor'
p7502
sg12
S'Regina_Hall'
p7503
sg14
S'USA'
p7504
sg16
S'163'
p7505
sa(dp7506
g2
S'965'
p7507
sg4
S'png'
p7508
sg6
S'1977'
p7509
sg8
g9
sg10
S'Actor'
p7510
sg12
S'Reid_Scott'
p7511
sg14
S'USA'
p7512
sg16
g17
sa(dp7513
g2
S'966'
p7514
sg4
S'png'
p7515
sg6
S'1940'
p7516
sg8
g9
sg10
S'Actor'
p7517
sg12
S'Rene_Auberjonois'
p7518
sg14
S'USA'
p7519
sg16
g17
sa(dp7520
g2
S'967'
p7521
sg4
S'png'
p7522
sg6
S'1970'
p7523
sg8
g52
sg10
S'Comedian'
p7524
sg12
S'Retta'
p7525
sg14
S'USA'
p7526
sg16
g17
sa(dp7527
g2
S'968'
p7528
sg4
S'png'
p7529
sg6
S'1974'
p7530
sg8
g9
sg10
S'Actor'
p7531
sg12
S'Rhys_Darby'
p7532
sg14
S'New Zealand '
p7533
sg16
S'177'
p7534
sa(dp7535
g2
S'969'
p7536
sg4
S'png'
p7537
sg6
S'1967'
p7538
sg8
g9
sg10
S'Actor'
p7539
sg12
S'Rhys_Ifans'
p7540
sg14
S'UK'
p7541
sg16
S'188'
p7542
sa(dp7543
g2
S'970'
p7544
sg4
S'png'
p7545
sg6
S'1977'
p7546
sg8
g9
sg10
S'Actor'
p7547
sg12
S'Richard_Ayoade'
p7548
sg14
S'UK'
p7549
sg16
S'188'
p7550
sa(dp7551
g2
S'971'
p7552
sg4
S'png'
p7553
sg6
S'1950'
p7554
sg8
g9
sg10
S'Actor'
p7555
sg12
S'Richard_Dean_Anderson'
p7556
sg14
S'USA'
p7557
sg16
S'185'
p7558
sa(dp7559
g2
S'972'
p7560
sg4
S'png'
p7561
sg6
S'1957'
p7562
sg8
g9
sg10
S'Actor'
p7563
sg12
S'Richard_E._Grant'
p7564
sg14
S'UK'
p7565
sg16
g17
sa(dp7566
g2
S'973'
p7567
sg4
S'png'
p7568
sg6
S'1969'
p7569
sg8
g9
sg10
S'Broadcaster '
p7570
sg12
S'Richard_Hammond'
p7571
sg14
S'UK'
p7572
sg16
S'170'
p7573
sa(dp7574
g2
S'974'
p7575
sg4
S'png'
p7576
sg6
S'1956'
p7577
sg8
g9
sg10
S'Actor'
p7578
sg12
S'Richard_Kind'
p7579
sg14
S'USA'
p7580
sg16
g17
sa(dp7581
g2
S'975'
p7582
sg4
S'png'
p7583
sg6
S'1986'
p7584
sg8
g9
sg10
S'Actor'
p7585
sg12
S'Richard_Madden'
p7586
sg14
S'UK'
p7587
sg16
S'177'
p7588
sa(dp7589
g2
S'976'
p7590
sg4
S'png'
p7591
sg6
S'1961'
p7592
sg8
g9
sg10
S'Actor'
p7593
sg12
S'Ricky_Gervais'
p7594
sg14
S'UK'
p7595
sg16
S'173'
p7596
sa(dp7597
g2
S'977'
p7598
sg4
S'png'
p7599
sg6
S'1998'
p7600
sg8
g9
sg10
S'Actor'
p7601
sg12
S'Rico_Rodriguez'
p7602
sg14
S'USA'
p7603
sg16
S'175'
p7604
sa(dp7605
g2
S'978'
p7606
sg4
S'png'
p7607
sg6
S'1958'
p7608
sg8
g9
sg10
S'Actor'
p7609
sg12
S'Rik_Mayall'
p7610
sg14
S'UK'
p7611
sg16
S'182'
p7612
sa(dp7613
g2
S'979'
p7614
sg4
S'png'
p7615
sg6
S'1978'
p7616
sg8
g9
sg10
S'Actor'
p7617
sg12
S'Riley_Smith'
p7618
sg14
S'USA'
p7619
sg16
g17
sa(dp7620
g2
S'980'
p7621
sg4
S'png'
p7622
sg6
S'1990'
p7623
sg8
g52
sg10
S'Musician'
p7624
sg12
S'Rita_Ora'
p7625
sg14
S'UK'
p7626
sg16
S'166'
p7627
sa(dp7628
g2
S'981'
p7629
sg4
S'png'
p7630
sg6
S'1982'
p7631
sg8
g9
sg10
S'Actor'
p7632
sg12
S'Riz_Ahmed'
p7633
sg14
S'UK'
p7634
sg16
S'172'
p7635
sa(dp7636
g2
S'982'
p7637
sg4
S'png'
p7638
sg6
S'1965'
p7639
sg8
g9
sg10
S'Actor'
p7640
sg12
S'Rob_Brydon'
p7641
sg14
S'UK'
p7642
sg16
S'170'
p7643
sa(dp7644
g2
S'983'
p7645
sg4
S'png'
p7646
sg6
S'1971'
p7647
sg8
g9
sg10
S'Actor'
p7648
sg12
S'Rob_Corddry'
p7649
sg14
S'USA'
p7650
sg16
S'180'
p7651
sa(dp7652
g2
S'984'
p7653
sg4
S'png'
p7654
sg6
S'1974'
p7655
sg8
g9
sg10
S'Actor'
p7656
sg12
S'Rob_Dyrdek'
p7657
sg14
S'USA'
p7658
sg16
S'171'
p7659
sa(dp7660
g2
S'985'
p7661
sg4
S'png'
p7662
sg6
S'1947'
p7663
sg8
g9
sg10
S'Director'
p7664
sg12
S'Rob_Reiner'
p7665
sg14
S'USA'
p7666
sg16
S'188'
p7667
sa(dp7668
g2
S'986'
p7669
sg4
S'png'
p7670
sg6
S'1970'
p7671
sg8
g9
sg10
S'Actor'
p7672
sg12
S'Rob_Riggle'
p7673
sg14
S'USA'
p7674
sg16
S'191'
p7675
sa(dp7676
g2
S'987'
p7677
sg4
S'png'
p7678
sg6
S'1988'
p7679
sg8
g9
sg10
S'Actor'
p7680
sg12
S'Robbie_Amell'
p7681
sg14
S'Canada'
p7682
sg16
S'180'
p7683
sa(dp7684
g2
S'988'
p7685
sg4
S'png'
p7686
sg6
S'1995'
p7687
sg8
g9
sg10
S'Actor'
p7688
sg12
S'Robbie_Kay'
p7689
sg14
S'UK'
p7690
sg16
S'175'
p7691
sa(dp7692
g2
S'989'
p7693
sg4
S'png'
p7694
sg6
S'1961'
p7695
sg8
g9
sg10
S'Actor'
p7696
sg12
S'Robert_Carlyle'
p7697
sg14
S'UK'
p7698
sg16
S'173'
p7699
sa(dp7700
g2
S'990'
p7701
sg4
S'png'
p7702
sg6
S'1951'
p7703
sg8
g9
sg10
S'Actor'
p7704
sg12
S'Robert_Davi'
p7705
sg14
S'USA'
p7706
sg16
g17
sa(dp7707
g2
S'991'
p7708
sg4
S'png'
p7709
sg6
S'1986'
p7710
sg8
g9
sg10
S'Actor'
p7711
sg12
S'Robert_Pattinson'
p7712
sg14
S'UK'
p7713
sg16
S'185'
p7714
sa(dp7715
g2
S'992'
p7716
sg4
S'png'
p7717
sg6
S'1953'
p7718
sg8
g9
sg10
S'Actor'
p7719
sg12
S'Robert_Picardo'
p7720
sg14
S'USA'
p7721
sg16
S'178'
p7722
sa(dp7723
g2
S'993'
p7724
sg4
S'png'
p7725
sg6
S'1988'
p7726
sg8
g9
sg10
S'Actor'
p7727
sg12
S'Robert_Sheehan'
p7728
sg14
S'Ireland'
p7729
sg16
S'183'
p7730
sa(dp7731
g2
S'994'
p7732
sg4
S'png'
p7733
sg6
S'1932'
p7734
sg8
g9
sg10
S'Actor'
p7735
sg12
S'Robert_Vaughn'
p7736
sg14
S'USA'
p7737
sg16
S'178'
p7738
sa(dp7739
g2
S'995'
p7740
sg4
S'png'
p7741
sg6
S'1942'
p7742
sg8
g9
sg10
S'Writer'
p7743
sg12
S'Roger_Ebert'
p7744
sg14
S'USA'
p7745
sg16
g17
sa(dp7746
g2
S'996'
p7747
sg4
S'png'
p7748
sg6
S'1960'
p7749
sg8
g52
sg10
S'Actor'
p7750
sg12
S'Roma_Downey'
p7751
sg14
S'Ireland'
p7752
sg16
g17
sa(dp7753
g2
S'997'
p7754
sg4
S'png'
p7755
sg6
S'1989'
p7756
sg8
g9
sg10
S'Musician'
p7757
sg12
S'Romeo_Miller'
p7758
sg14
S'USA'
p7759
sg16
g17
sa(dp7760
g2
S'998'
p7761
sg4
S'jpg'
p7762
sg6
S'1953'
p7763
sg8
g9
sg10
S'Actor'
p7764
sg12
S'Ron_Jeremy'
p7765
sg14
S'USA'
p7766
sg16
S'168'
p7767
sa(dp7768
g2
S'999'
p7769
sg4
S'png'
p7770
sg6
S'1967'
p7771
sg8
g9
sg10
S'Actor'
p7772
sg12
S'Ron_Livingston'
p7773
sg14
S'USA'
p7774
sg16
S'179'
p7775
sa(dp7776
g2
S'1000'
p7777
sg4
S'png'
p7778
sg6
S'1950'
p7779
sg8
g9
sg10
S'Actor'
p7780
sg12
S'Ron_Perlman'
p7781
sg14
S'USA'
p7782
sg16
S'185'
p7783
sa(dp7784
g2
S'1001'
p7785
sg4
S'png'
p7786
sg6
S'1987'
p7787
sg8
g52
sg10
S'Player'
p7788
sg12
S'Ronda_Rousey'
p7789
sg14
S'USA'
p7790
sg16
S'170'
p7791
sa(dp7792
g2
S'1002'
p7793
sg4
S'png'
p7794
sg6
S'1985'
p7795
sg8
g52
sg10
S'Actor'
p7796
sg12
S'Rooney_Mara'
p7797
sg14
S'USA'
p7798
sg16
S'160'
p7799
sa(dp7800
g2
S'1003'
p7801
sg4
S'png'
p7802
sg6
S'1968'
p7803
sg8
g52
sg10
S'Producer'
p7804
sg12
S'Rory_Kennedy'
p7805
sg14
S'USA'
p7806
sg16
g17
sa(dp7807
g2
S'1004'
p7808
sg4
S'png'
p7809
sg6
S'1988'
p7810
sg8
g52
sg10
S'Actor'
p7811
sg12
S'Rose_McIver'
p7812
sg14
S'New Zealand '
p7813
sg16
S'162'
p7814
sa(dp7815
g2
S'1005'
p7816
sg4
S'png'
p7817
sg6
S'1991'
p7818
sg8
g9
sg10
S'Actor'
p7819
sg12
S'Roshon_Fegan'
p7820
sg14
S'USA'
p7821
sg16
S'173'
p7822
sa(dp7823
g2
S'1006'
p7824
sg4
S'png'
p7825
sg6
S'1987'
p7826
sg8
g52
sg10
S'Model'
p7827
sg12
S'Rosie_Huntington-Whiteley'
p7828
sg14
S'UK'
p7829
sg16
S'175'
p7830
sa(dp7831
g2
S'1007'
p7832
sg4
S'png'
p7833
sg6
S'1955'
p7834
sg8
g9
sg10
S'Actor'
p7835
sg12
S'Rowan_Atkinson'
p7836
sg14
S'UK'
p7837
sg16
S'180'
p7838
sa(dp7839
g2
S'1008'
p7840
sg4
S'png'
p7841
sg6
S'1922'
p7842
sg8
g52
sg10
S'Actor'
p7843
sg12
S'Ruby_Dee'
p7844
sg14
S'USA'
p7845
sg16
g17
sa(dp7846
g2
S'1009'
p7847
sg4
S'png'
p7848
sg6
S'1934'
p7849
sg8
g52
sg10
S'Actor'
p7850
sg12
S'Rue_McClanahan'
p7851
sg14
S'USA'
p7852
sg16
S'160'
p7853
sa(dp7854
g2
S'1010'
p7855
sg4
S'png'
p7856
sg6
S'1970'
p7857
sg8
g9
sg10
S'Actor'
p7858
sg12
S'Russell_Peters'
p7859
sg14
S'Canada'
p7860
sg16
S'180'
p7861
sa(dp7862
g2
S'1011'
p7863
sg4
S'png'
p7864
sg6
S'1981'
p7865
sg8
g9
sg10
S'Actor'
p7866
sg12
S'Russell_Tovey'
p7867
sg14
S'UK'
p7868
sg16
S'177'
p7869
sa(dp7870
g2
S'1012'
p7871
sg4
S'png'
p7872
sg6
S'1935'
p7873
sg8
g52
sg10
S'Actor'
p7874
sg12
S'Ruta_Lee'
p7875
sg14
S'Canada'
p7876
sg16
g17
sa(dp7877
g2
S'1013'
p7878
sg4
S'png'
p7879
sg6
S'1944'
p7880
sg8
g9
sg10
S'Actor'
p7881
sg12
S'Rutger_Hauer'
p7882
sg14
S'Netherlands'
p7883
sg16
S'185'
p7884
sa(dp7885
g2
S'1014'
p7886
sg4
S'png'
p7887
sg6
S'1966'
p7888
sg8
g52
sg10
S'Actor'
p7889
sg12
S'Ruth_Jones'
p7890
sg14
S'UK'
p7891
sg16
g17
sa(dp7892
g2
S'1015'
p7893
sg4
S'png'
p7894
sg6
S'1982'
p7895
sg8
g52
sg10
S'Actor'
p7896
sg12
S'Ruth_Wilson'
p7897
sg14
S'UK'
p7898
sg16
S'168'
p7899
sa(dp7900
g2
S'1016'
p7901
sg4
S'png'
p7902
sg6
S'1976'
p7903
sg8
g9
sg10
S'Actor'
p7904
sg12
S'Ryan_Kwanten'
p7905
sg14
S'Austrailia'
p7906
sg16
S'178'
p7907
sa(dp7908
g2
S'1017'
p7909
sg4
S'png'
p7910
sg6
S'1975'
p7911
sg8
g9
sg10
S'Actor'
p7912
sg12
S'Ryan_McPartlin'
p7913
sg14
S'USA'
p7914
sg16
S'190'
p7915
sa(dp7916
g2
S'1018'
p7917
sg4
S'png'
p7918
sg6
S'1996'
p7919
sg8
g9
sg10
S'Actor'
p7920
sg12
S'Ryan_Ochoa'
p7921
sg14
S'USA'
p7922
sg16
S'165'
p7923
sa(dp7924
g2
S'1019'
p7925
sg4
S'png'
p7926
sg6
S'1974'
p7927
sg8
g9
sg10
S'Actor'
p7928
sg12
S'Ryan_Phillippe'
p7929
sg14
S'USA'
p7930
sg16
S'175'
p7931
sa(dp7932
g2
S'1020'
p7933
sg4
S'png'
p7934
sg6
S'1995'
p7935
sg8
g9
sg10
S'Actor'
p7936
sg12
S'Ryan_Potter'
p7937
sg14
S'USA'
p7938
sg16
S'173'
p7939
sa(dp7940
g2
S'1021'
p7941
sg4
S'png'
p7942
sg6
S'1952'
p7943
sg8
g52
sg10
S'Actor'
p7944
sg12
S'S._Epatha_Merkerson'
p7945
sg14
S'USA'
p7946
sg16
g17
sa(dp7947
g2
S'1022'
p7948
sg4
S'png'
p7949
sg6
S'1976'
p7950
sg8
g52
sg10
S'Actor'
p7951
sg12
S'Sally_Hawkins'
p7952
sg14
S'UK'
p7953
sg16
S'157'
p7954
sa(dp7955
g2
S'1023'
p7956
sg4
S'png'
p7957
sg6
S'1980'
p7958
sg8
g9
sg10
S'Actor'
p7959
sg12
S'Sam_Heughan'
p7960
sg14
S'UK'
p7961
sg16
S'191'
p7962
sa(dp7963
g2
S'1024'
p7964
sg4
S'png'
p7965
sg6
S'1947'
p7966
sg8
g9
sg10
S'Actor'
p7967
sg12
S'Sam_Neill'
p7968
sg14
S'New Zealand '
p7969
sg16
S'182'
p7970
sa(dp7971
g2
S'1025'
p7972
sg4
S'png'
p7973
sg6
S'1986'
p7974
sg8
g9
sg10
S'Actor'
p7975
sg12
S'Sam_Palladio'
p7976
sg14
S'UK'
p7977
sg16
S'188'
p7978
sa(dp7979
g2
S'1026'
p7980
sg4
S'png'
p7981
sg6
S'1959'
p7982
sg8
g9
sg10
S'Director'
p7983
sg12
S'Sam_Raimi'
p7984
sg14
S'USA'
p7985
sg16
g17
sa(dp7986
g2
S'1027'
p7987
sg4
S'png'
p7988
sg6
S'1980'
p7989
sg8
g9
sg10
S'Actor'
p7990
sg12
S'Sam_Riley'
p7991
sg14
S'UK'
p7992
sg16
S'185'
p7993
sa(dp7994
g2
S'1028'
p7995
sg4
S'png'
p7996
sg6
S'1969'
p7997
sg8
g9
sg10
S'Actor'
p7998
sg12
S'Sam_Trammell'
p7999
sg14
S'USA'
p8000
sg16
g17
sa(dp8001
g2
S'1029'
p8002
sg4
S'png'
p8003
sg6
S'1940'
p8004
sg8
g9
sg10
S'Actor'
p8005
sg12
S'Sam_Waterston'
p8006
sg14
S'USA'
p8007
sg16
S'185'
p8008
sa(dp8009
g2
S'1030'
p8010
sg4
S'png'
p8011
sg6
S'1976'
p8012
sg8
g9
sg10
S'Actor'
p8013
sg12
S'Sam_Worthington'
p8014
sg14
S'UK'
p8015
sg16
S'178'
p8016
sa(dp8017
g2
S'1031'
p8018
sg4
S'png'
p8019
sg6
S'1990'
p8020
sg8
g52
sg10
S'Musician'
p8021
sg12
S'Samantha_Barks'
p8022
sg14
S'UK'
p8023
sg16
S'170'
p8024
sa(dp8025
g2
S'1032'
p8026
sg4
S'png'
p8027
sg6
S'1987'
p8028
sg8
g52
sg10
S'Actor'
p8029
sg12
S'Samira_Wiley'
p8030
sg14
S'USA'
p8031
sg16
S'161'
p8032
sa(dp8033
g2
S'1033'
p8034
sg4
S'png'
p8035
sg6
S'1995'
p8036
sg8
g52
sg10
S'Actor'
p8037
sg12
S'Sammi_Hanratty'
p8038
sg14
S'USA'
p8039
sg16
g17
sa(dp8040
g2
S'1034'
p8041
sg4
S'png'
p8042
sg6
S'1925'
p8043
sg8
g9
sg10
S'Actor'
p8044
sg12
S'Sammy_Davis_Jr.'
p8045
sg14
S'USA'
p8046
sg16
S'165'
p8047
sa(dp8048
g2
S'1035'
p8049
sg4
S'png'
p8050
sg6
S'1948'
p8051
sg8
g9
sg10
S'Actor'
p8052
sg12
S'Samuel_L._Jackson'
p8053
sg14
S'USA'
p8054
sg16
S'189'
p8055
sa(dp8056
g2
S'1036'
p8057
sg4
S'png'
p8058
sg6
S'1971'
p8059
sg8
g52
sg10
S'Actor'
p8060
sg12
S'Sanaa_Lathan'
p8061
sg14
S'USA'
p8062
sg16
S'170'
p8063
sa(dp8064
g2
S'1037'
p8065
sg4
S'png'
p8066
sg6
S'1955'
p8067
sg8
g52
sg10
S'Comedian'
p8068
sg12
S'Sandra_Bernhard'
p8069
sg14
S'USA'
p8070
sg16
S'178'
p8071
sa(dp8072
g2
S'1038'
p8073
sg4
S'png'
p8074
sg6
S'1971'
p8075
sg8
g52
sg10
S'Actor'
p8076
sg12
S'Sandra_Oh'
p8077
sg14
S'Canada'
p8078
sg16
S'168'
p8079
sa(dp8080
g2
S'1039'
p8081
sg4
S'png'
p8082
sg6
S'1978'
p8083
sg8
g9
sg10
S'Actor'
p8084
sg12
S'Santiago_Cabrera'
p8085
sg14
S'Chile '
p8086
sg16
S'183'
p8087
sa(dp8088
g2
S'1040'
p8089
sg4
S'png'
p8090
sg6
S'1975'
p8091
sg8
g52
sg10
S'Actor'
p8092
sg12
S'Sara_Gilbert'
p8093
sg14
S'USA'
p8094
sg16
g17
sa(dp8095
g2
S'1041'
p8096
sg4
S'png'
p8097
sg6
S'1975'
p8098
sg8
g52
sg10
S'Actor'
p8099
sg12
S'Sara_Ramirez'
p8100
sg14
S'Mexico'
p8101
sg16
S'175'
p8102
sa(dp8103
g2
S'1042'
p8104
sg4
S'png'
p8105
sg6
S'1991'
p8106
sg8
g52
sg10
S'Actor'
p8107
sg12
S'Sarah_Bolger'
p8108
sg14
S'Ireland'
p8109
sg16
S'159'
p8110
sa(dp8111
g2
S'1043'
p8112
sg4
S'png'
p8113
sg6
S'1980'
p8114
sg8
g52
sg10
S'Actor'
p8115
sg12
S'Sarah_Drew'
p8116
sg14
S'USA'
p8117
sg16
S'164'
p8118
sa(dp8119
g2
S'1044'
p8120
sg4
S'png'
p8121
sg6
S'1987'
p8122
sg8
g52
sg10
S'Actor'
p8123
sg12
S'Sarah_Gadon'
p8124
sg14
S'Canada'
p8125
sg16
S'160'
p8126
sa(dp8127
g2
S'1045'
p8128
sg4
S'png'
p8129
sg6
S'1990'
p8130
sg8
g52
sg10
S'Actor'
p8131
sg12
S'Sarah_Hyland'
p8132
sg14
S'USA'
p8133
sg16
S'157'
p8134
sa(dp8135
g2
S'1046'
p8136
sg4
S'png'
p8137
sg6
S'1964'
p8138
sg8
g52
sg10
S'Politician'
p8139
sg12
S'Sarah_Palin'
p8140
sg14
S'USA'
p8141
sg16
S'165'
p8142
sa(dp8143
g2
S'1047'
p8144
sg4
S'png'
p8145
sg6
S'1974'
p8146
sg8
g52
sg10
S'Actor'
p8147
sg12
S'Sarah_Paulson'
p8148
sg14
S'USA'
p8149
sg16
S'168'
p8150
sa(dp8151
g2
S'1048'
p8152
sg4
S'png'
p8153
sg6
S'1977'
p8154
sg8
g52
sg10
S'Actor'
p8155
sg12
S'Sarah_Wayne_Callies'
p8156
sg14
S'USA'
p8157
sg16
S'174'
p8158
sa(dp8159
g2
S'1049'
p8160
sg4
S'png'
p8161
sg6
S'1996'
p8162
sg8
g52
sg10
S'Actor'
p8163
sg12
S'Sasha_Pieterse'
p8164
sg14
S'USA'
p8165
sg16
S'168'
p8166
sa(dp8167
g2
S'1050'
p8168
sg4
S'png'
p8169
sg6
S'1954'
p8170
sg8
g9
sg10
S'Actor'
p8171
sg12
S'Scott_Bakula'
p8172
sg14
S'USA'
p8173
sg16
S'183'
p8174
sa(dp8175
g2
S'1051'
p8176
sg4
S'png'
p8177
sg6
S'1979'
p8178
sg8
g9
sg10
S'Actor'
p8179
sg12
S'Scott_Porter'
p8180
sg14
S'USA'
p8181
sg16
S'182'
p8182
sa(dp8183
g2
S'1052'
p8184
sg4
S'png'
p8185
sg6
S'1975'
p8186
sg8
g9
sg10
S'Actor'
p8187
sg12
S'Scott_Speedman'
p8188
sg14
S'Canada'
p8189
sg16
S'180'
p8190
sa(dp8191
g2
S'1053'
p8192
sg4
S'png'
p8193
sg6
S'1959'
p8194
sg8
g9
sg10
S'Actor'
p8195
sg12
S'Sean_Bean'
p8196
sg14
S'UK'
p8197
sg16
S'179'
p8198
sa(dp8199
g2
S'1054'
p8200
sg4
S'png'
p8201
sg6
S'1930'
p8202
sg8
g9
sg10
S'Director'
p8203
sg12
S'Sean_Connery'
p8204
sg14
S'UK'
p8205
sg16
S'189'
p8206
sa(dp8207
g2
S'1055'
p8208
sg4
S'png'
p8209
sg6
S'1966'
p8210
sg8
g9
sg10
S'Actor'
p8211
sg12
S'Sean_Kanan'
p8212
sg14
S'USA'
p8213
sg16
S'180'
p8214
sa(dp8215
g2
S'1056'
p8216
sg4
S'png'
p8217
sg6
S'1975'
p8218
sg8
g9
sg10
S'Actor'
p8219
sg12
S'Sean_Maher'
p8220
sg14
S'USA'
p8221
sg16
g17
sa(dp8222
g2
S'1057'
p8223
sg4
S'png'
p8224
sg6
S'1965'
p8225
sg8
g9
sg10
S'Actor'
p8226
sg12
S'Sean_Patrick_Flanery'
p8227
sg14
S'USA'
p8228
sg16
g17
sa(dp8229
g2
S'1058'
p8230
sg4
S'png'
p8231
sg6
S'1964'
p8232
sg8
g9
sg10
S'Actor'
p8233
sg12
S'Sean_Pertwee'
p8234
sg14
S'UK'
p8235
sg16
S'183'
p8236
sa(dp8237
g2
S'1059'
p8238
sg4
S'png'
p8239
sg6
S'1976'
p8240
sg8
g9
sg10
S'Actor'
p8241
sg12
S'Seann_William_Scott'
p8242
sg14
S'USA'
p8243
sg16
S'180'
p8244
sa(dp8245
g2
S'1060'
p8246
sg4
S'png'
p8247
sg6
S'1993'
p8248
sg8
g9
sg10
S'Actor'
p8249
sg12
S'Sebastian_De_Souza'
p8250
sg14
S'UK'
p8251
sg16
S'175'
p8252
sa(dp8253
g2
S'1061'
p8254
sg4
S'png'
p8255
sg6
S'1956'
p8256
sg8
g52
sg10
S'Actor'
p8257
sg12
S'Sela_Ward'
p8258
sg14
S'USA'
p8259
sg16
S'171'
p8260
sa(dp8261
g2
S'1062'
p8262
sg4
S'png'
p8263
sg6
S'1972'
p8264
sg8
g52
sg10
S'Actor'
p8265
sg12
S'Selma_Blair'
p8266
sg14
S'USA'
p8267
sg16
S'160'
p8268
sa(dp8269
g2
S'1063'
p8270
sg4
S'png'
p8271
sg6
S'1974'
p8272
sg8
g9
sg10
S'Actor'
p8273
sg12
S'Sendhil_Ramamurthy'
p8274
sg14
S'USA'
p8275
sg16
g17
sa(dp8276
g2
S'1064'
p8277
sg4
S'png'
p8278
sg6
S'1941'
p8279
sg8
g52
sg10
S'Actor'
p8280
sg12
S'Senta_Berger'
p8281
sg14
S'Austrailia'
p8282
sg16
S'163'
p8283
sa(dp8284
g2
S'1065'
p8285
sg4
S'png'
p8286
sg6
S'1984'
p8287
sg8
g52
sg10
S'Actor'
p8288
sg12
S'Serinda_Swan'
p8289
sg14
S'Canada'
p8290
sg16
S'170'
p8291
sa(dp8292
g2
S'1066'
p8293
sg4
S'png'
p8294
sg6
S'1974'
p8295
sg8
g9
sg10
S'Actor'
p8296
sg12
S'Seth_Green'
p8297
sg14
S'USA'
p8298
sg16
S'163'
p8299
sa(dp8300
g2
S'1067'
p8301
sg4
S'png'
p8302
sg6
S'1973'
p8303
sg8
g9
sg10
S'Actor'
p8304
sg12
S'Seth_MacFarlane'
p8305
sg14
S'USA'
p8306
sg16
S'178'
p8307
sa(dp8308
g2
S'1068'
p8309
sg4
S'png'
p8310
sg6
S'1973'
p8311
sg8
g9
sg10
S'Actor'
p8312
sg12
S'Seth_Meyers'
p8313
sg14
S'USA'
p8314
sg16
S'183'
p8315
sa(dp8316
g2
S'1069'
p8317
sg4
S'png'
p8318
sg6
S'1982'
p8319
sg8
g9
sg10
S'Actor'
p8320
sg12
S'Seth_Rogen'
p8321
sg14
S'Canada'
p8322
sg16
S'180'
p8323
sa(dp8324
g2
S'1070'
p8325
sg4
S'png'
p8326
sg6
S'1981'
p8327
sg8
g9
sg10
S'Actor'
p8328
sg12
S'Shahid_Kapoor'
p8329
sg14
S'India'
p8330
sg16
S'174'
p8331
sa(dp8332
g2
S'1071'
p8333
sg4
S'png'
p8334
sg6
S'1991'
p8335
sg8
g52
sg10
S'Actor'
p8336
sg12
S'Shailene_Woodley'
p8337
sg14
S'USA'
p8338
sg16
S'173'
p8339
sa(dp8340
g2
S'1072'
p8341
sg4
S'png'
p8342
sg6
S'1978'
p8343
sg8
g9
sg10
S'Actor'
p8344
sg12
S'Shane_West'
p8345
sg14
S'USA'
p8346
sg16
S'182'
p8347
sa(dp8348
g2
S'1073'
p8349
sg4
S'png'
p8350
sg6
S'1971'
p8351
sg8
g52
sg10
S'Actor'
p8352
sg12
S'Shannen_Doherty'
p8353
sg14
S'USA'
p8354
sg16
S'160'
p8355
sa(dp8356
g2
S'1074'
p8357
sg4
S'png'
p8358
sg6
S'1973'
p8359
sg8
g9
sg10
S'Actor'
p8360
sg12
S'Sharlto_Copley'
p8361
sg14
S'South Africa'
p8362
sg16
S'183'
p8363
sa(dp8364
g2
S'1075'
p8365
sg4
S'png'
p8366
sg6
S'1983'
p8367
sg8
g52
sg10
S'Actor'
p8368
sg12
S'Sharni_Vinson'
p8369
sg14
S'Austrailia'
p8370
sg16
g17
sa(dp8371
g2
S'1076'
p8372
sg4
S'png'
p8373
sg6
S'1943'
p8374
sg8
g52
sg10
S'Actor'
p8375
sg12
S'Sharon_Gless'
p8376
sg14
S'USA'
p8377
sg16
g17
sa(dp8378
g2
S'1077'
p8379
sg4
S'png'
p8380
sg6
S'1987'
p8381
sg8
g52
sg10
S'Actor'
p8382
sg12
S'Shay_Mitchell'
p8383
sg14
S'Canada'
p8384
sg16
S'171'
p8385
sa(dp8386
g2
S'1078'
p8387
sg4
S'png'
p8388
sg6
S'1970'
p8389
sg8
g9
sg10
S'Actor'
p8390
sg12
S'Shemar_Moore'
p8391
sg14
S'USA'
p8392
sg16
S'185'
p8393
sa(dp8394
g2
S'1079'
p8395
sg4
S'png'
p8396
sg6
S'1981'
p8397
sg8
g52
sg10
S'Actor'
p8398
sg12
S'Sheridan_Smith'
p8399
sg14
S'UK'
p8400
sg16
S'157'
p8401
sa(dp8402
g2
S'1080'
p8403
sg4
S'png'
p8404
sg6
S'1974'
p8405
sg8
g52
sg10
S'Actor'
p8406
sg12
S'Sherri_Saum'
p8407
sg14
S'USA'
p8408
sg16
S'170'
p8409
sa(dp8410
g2
S'1081'
p8411
sg4
S'png'
p8412
sg6
S'1967'
p8413
sg8
g52
sg10
S'Actor'
p8414
sg12
S'Sherri_Shepherd'
p8415
sg14
S'USA'
p8416
sg16
S'155'
p8417
sa(dp8418
g2
S'1082'
p8419
sg4
S'png'
p8420
sg6
S'1956'
p8421
sg8
g52
sg10
S'Actor'
p8422
sg12
S'Sheryl_Lee_Ralph'
p8423
sg14
S'USA'
p8424
sg16
g17
sa(dp8425
g2
S'1083'
p8426
sg4
S'png'
p8427
sg6
S'1985'
p8428
sg8
g9
sg10
S'Actor'
p8429
sg12
S'Shiloh_Fernandez'
p8430
sg14
S'USA'
p8431
sg16
g17
sa(dp8432
g2
S'1084'
p8433
sg4
S'png'
p8434
sg6
S'1978'
p8435
sg8
g52
sg10
S'Actor'
p8436
sg12
S'Shiri_Appleby'
p8437
sg14
S'USA'
p8438
sg16
S'159'
p8439
sa(dp8440
g2
S'1085'
p8441
sg4
S'png'
p8442
sg6
S'1966'
p8443
sg8
g52
sg10
S'Musician'
p8444
sg12
S'Shirley_Manson'
p8445
sg14
S'UK'
p8446
sg16
S'170'
p8447
sa(dp8448
g2
S'1086'
p8449
sg4
S'png'
p8450
sg6
S'1952'
p8451
sg8
g52
sg10
S'Actor'
p8452
sg12
S'Shohreh_Aghdashloo'
p8453
sg14
S'Iran'
p8454
sg16
g17
sa(dp8455
g2
S'1087'
p8456
sg4
S'png'
p8457
sg6
S'1970'
p8458
sg8
g52
sg10
S'Producer'
p8459
sg12
S'Shonda_Rhimes'
p8460
sg14
S'USA'
p8461
sg16
g17
sa(dp8462
g2
S'1088'
p8463
sg4
S'png'
p8464
sg6
S'1987'
p8465
sg8
g52
sg10
S'Actor'
p8466
sg12
S'Shraddha_Kapoor'
p8467
sg14
S'India'
p8468
sg16
S'168'
p8469
sa(dp8470
g2
S'1089'
p8471
sg4
S'png'
p8472
sg6
S'1985'
p8473
sg8
g9
sg10
S'Actor'
p8474
sg12
S'Sidharth_Malhotra'
p8475
sg14
S'India'
p8476
sg16
S'185'
p8477
sa(dp8478
g2
S'1090'
p8479
sg4
S'png'
p8480
sg6
S'1968'
p8481
sg8
g52
sg10
S'Actor'
p8482
sg12
S'Sidse_Babett_Knudsen'
p8483
sg14
S'Denmark'
p8484
sg16
g17
sa(dp8485
g2
S'1091'
p8486
sg4
S'png'
p8487
sg6
S'1975'
p8488
sg8
g52
sg10
S'Actor'
p8489
sg12
S'Sienna_Guillory'
p8490
sg14
S'UK'
p8491
sg16
g17
sa(dp8492
g2
S'1092'
p8493
sg4
S'png'
p8494
sg6
S'1829'
p8495
sg8
g9
sg10
S'Doctor'
p8496
sg12
S'Silas_Weir_Mitchell'
p8497
sg14
S'USA'
p8498
sg16
g17
sa(dp8499
g2
S'1093'
p8500
sg4
S'png'
p8501
sg6
S'1969'
p8502
sg8
g9
sg10
S'Actor'
p8503
sg12
S'Simon_Baker'
p8504
sg14
S'Austrailia'
p8505
sg16
S'178'
p8506
sa(dp8507
g2
S'1094'
p8508
sg4
S'png'
p8509
sg6
S'1949'
p8510
sg8
g9
sg10
S'Actor'
p8511
sg12
S'Simon_Callow'
p8512
sg14
S'UK'
p8513
sg16
g17
sa(dp8514
g2
S'1095'
p8515
sg4
S'png'
p8516
sg6
S'1970'
p8517
sg8
g9
sg10
S'Actor'
p8518
sg12
S'Simon_Pegg'
p8519
sg14
S'UK'
p8520
sg16
S'178'
p8521
sa(dp8522
g2
S'1096'
p8523
sg4
S'png'
p8524
sg6
S'1987'
p8525
sg8
g9
sg10
S'Actor'
p8526
sg12
S'Skylar_Astin'
p8527
sg14
S'USA'
p8528
sg16
S'178'
p8529
sa(dp8530
g2
S'1097'
p8531
sg4
S'png'
p8532
sg6
S'1940'
p8533
sg8
g9
sg10
S'Musician'
p8534
sg12
S'Smokey_Robinson'
p8535
sg14
S'USA'
p8536
sg16
g17
sa(dp8537
g2
S'1098'
p8538
sg4
S'png'
p8539
sg6
S'1971'
p8540
sg8
g52
sg10
S'Director'
p8541
sg12
S'Sofia_Coppola'
p8542
sg14
S'USA'
p8543
sg16
S'164'
p8544
sa(dp8545
g2
S'1099'
p8546
sg4
S'png'
p8547
sg6
S'1985'
p8548
sg8
g52
sg10
S'Actor'
p8549
sg12
S'Sonam_Kapoor'
p8550
sg14
S'India'
p8551
sg16
S'177'
p8552
sa(dp8553
g2
S'1100'
p8554
sg4
S'png'
p8555
sg6
S'1964'
p8556
sg8
g52
sg10
S'Actor'
p8557
sg12
S'Sonja_Sohn'
p8558
sg14
S'USA'
p8559
sg16
g17
sa(dp8560
g2
S'1101'
p8561
sg4
S'png'
p8562
sg6
S'1968'
p8563
sg8
g52
sg10
S'Actor'
p8564
sg12
S'Sophie_Okonedo'
p8565
sg14
S'UK'
p8566
sg16
g17
sa(dp8567
g2
S'1102'
p8568
sg4
S'png'
p8569
sg6
S'1992'
p8570
sg8
g9
sg10
S'Actor'
p8571
sg12
S'Spencer_Boldman'
p8572
sg14
S'USA'
p8573
sg16
S'188'
p8574
sa(dp8575
g2
S'1103'
p8576
sg4
S'png'
p8577
sg6
S'1941'
p8578
sg8
g9
sg10
S'Actor'
p8579
sg12
S'Stacy_Keach'
p8580
sg14
S'USA'
p8581
sg16
S'182'
p8582
sa(dp8583
g2
S'1104'
p8584
sg4
S'png'
p8585
sg6
S'1922'
p8586
sg8
g9
sg10
S'Writer'
p8587
sg12
S'Stan_Lee'
p8588
sg14
S'USA'
p8589
sg16
S'180'
p8590
sa(dp8591
g2
S'1105'
p8592
sg4
S'png'
p8593
sg6
S'1978'
p8594
sg8
g52
sg10
S'Actor'
p8595
sg12
S'Stana_Katic'
p8596
sg14
S'Canada'
p8597
sg16
S'175'
p8598
sa(dp8599
g2
S'1106'
p8600
sg4
S'png'
p8601
sg6
S'1960'
p8602
sg8
g9
sg10
S'Actor'
p8603
sg12
S'Stanley_Tucci'
p8604
sg14
S'USA'
p8605
sg16
S'172'
p8606
sa(dp8607
g2
S'1107'
p8608
sg4
S'png'
p8609
sg6
S'1942'
p8610
sg8
g52
sg10
S'Actor'
p8611
sg12
S'Stefanie_Powers'
p8612
sg14
S'USA'
p8613
sg16
S'170'
p8614
sa(dp8615
g2
S'1108'
p8616
sg4
S'png'
p8617
sg6
S'1966'
p8618
sg8
g9
sg10
S'Actor'
p8619
sg12
S'Stephen_Baldwin'
p8620
sg14
S'USA'
p8621
sg16
S'178'
p8622
sa(dp8623
g2
S'1109'
p8624
sg4
S'png'
p8625
sg6
S'1964'
p8626
sg8
g9
sg10
S'Comedian'
p8627
sg12
S'Stephen_Colbert'
p8628
sg14
S'USA'
p8629
sg16
S'180'
p8630
sa(dp8631
g2
S'1110'
p8632
sg4
S'png'
p8633
sg6
S'1957'
p8634
sg8
g9
sg10
S'Actor'
p8635
sg12
S'Stephen_Fry'
p8636
sg14
S'UK'
p8637
sg16
S'196'
p8638
sa(dp8639
g2
S'1111'
p8640
sg4
S'png'
p8641
sg6
S'1952'
p8642
sg8
g9
sg10
S'Actor'
p8643
sg12
S'Stephen_Lang'
p8644
sg14
S'USA'
p8645
sg16
S'179'
p8646
sa(dp8647
g2
S'1112'
p8648
sg4
S'png'
p8649
sg6
S'1968'
p8650
sg8
g9
sg10
S'Actor'
p8651
sg12
S'Stephen_Mangan'
p8652
sg14
S'UK'
p8653
sg16
g17
sa(dp8654
g2
S'1113'
p8655
sg4
S'png'
p8656
sg6
S'1974'
p8657
sg8
g9
sg10
S'Writer'
p8658
sg12
S'Stephen_Merchant'
p8659
sg14
S'UK'
p8660
sg16
S'201'
p8661
sa(dp8662
g2
S'1114'
p8663
sg4
S'png'
p8664
sg6
S'1989'
p8665
sg8
g9
sg10
S'Actor'
p8666
sg12
S'Sterling_Knight'
p8667
sg14
S'USA'
p8668
sg16
S'177'
p8669
sa(dp8670
g2
S'1115'
p8671
sg4
S'png'
p8672
sg6
S'1970'
p8673
sg8
g9
sg10
S'Actor'
p8674
sg12
S'Steve_Burton'
p8675
sg14
S'USA'
p8676
sg16
S'180'
p8677
sa(dp8678
g2
S'1116'
p8679
sg4
S'png'
p8680
sg6
S'1962'
p8681
sg8
g9
sg10
S'Comedian'
p8682
sg12
S'Steve_Carell'
p8683
sg14
S'USA'
p8684
sg16
S'175'
p8685
sa(dp8686
g2
S'1117'
p8687
sg4
S'png'
p8688
sg6
S'1957'
p8689
sg8
g9
sg10
S'Comedian'
p8690
sg12
S'Steve_Harvey'
p8691
sg14
S'USA'
p8692
sg16
S'188'
p8693
sa(dp8694
g2
S'1118'
p8695
sg4
S'png'
p8696
sg6
S'1955'
p8697
sg8
g9
sg10
S'Entrepreneur'
p8698
sg12
S'Steve_Jobs'
p8699
sg14
S'USA'
p8700
sg16
g17
sa(dp8701
g2
S'1119'
p8702
sg4
S'png'
p8703
sg6
S'1945'
p8704
sg8
g9
sg10
S'Actor'
p8705
sg12
S'Steve_Martin'
p8706
sg14
S'USA'
p8707
sg16
S'183'
p8708
sa(dp8709
g2
S'1120'
p8710
sg4
S'png'
p8711
sg6
S'1956'
p8712
sg8
g9
sg10
S'Actor'
p8713
sg12
S'Steven_Bauer'
p8714
sg14
S'USA'
p8715
sg16
S'185'
p8716
sa(dp8717
g2
S'1121'
p8718
sg4
S'png'
p8719
sg6
S'1937'
p8720
sg8
g9
sg10
S'Actor'
p8721
sg12
S'Steven_Berkoff'
p8722
sg14
S'UK'
p8723
sg16
g17
sa(dp8724
g2
S'1122'
p8725
sg4
S'png'
p8726
sg6
S'1961'
p8727
sg8
g9
sg10
S'Writer'
p8728
sg12
S'Steven_Moffat'
p8729
sg14
S'UK'
p8730
sg16
g17
sa(dp8731
g2
S'1123'
p8732
sg4
S'png'
p8733
sg6
S'1988'
p8734
sg8
g9
sg10
S'Actor'
p8735
sg12
S'Steven_R._McQueen'
p8736
sg14
S'USA'
p8737
sg16
S'183'
p8738
sa(dp8739
g2
S'1124'
p8740
sg4
S'png'
p8741
sg6
S'1963'
p8742
sg8
g9
sg10
S'Director'
p8743
sg12
S'Steven_Soderbergh'
p8744
sg14
S'USA'
p8745
sg16
g17
sa(dp8746
g2
S'1125'
p8747
sg4
S'png'
p8748
sg6
S'1983'
p8749
sg8
g9
sg10
S'Actor'
p8750
sg12
S'Steven_Yeun'
p8751
sg14
S'Korea'
p8752
sg16
S'175'
p8753
sa(dp8754
g2
S'1126'
p8755
sg4
S'png'
p8756
sg6
S'1950'
p8757
sg8
g9
sg10
S'Musician'
p8758
sg12
S'Stevie_Wonder'
p8759
sg14
S'USA'
p8760
sg16
g17
sa(dp8761
g2
S'1127'
p8762
sg4
S'png'
p8763
sg6
S'1972'
p8764
sg8
g9
sg10
S'Actor'
p8765
sg12
S'Sung_Kang'
p8766
sg14
S'Korea'
p8767
sg16
S'183'
p8768
sa(dp8769
g2
S'1128'
p8770
sg4
S'png'
p8771
sg6
S'1981'
p8772
sg8
g52
sg10
S'Actor'
p8773
sg12
S'Sunny_Leone'
p8774
sg14
S'Canada'
p8775
sg16
S'163'
p8776
sa(dp8777
g2
S'1129'
p8778
sg4
S'png'
p8779
sg6
S'1994'
p8780
sg8
g9
sg10
S'Actor'
p8781
sg12
S'Suraj_Sharma'
p8782
sg14
S'India'
p8783
sg16
g17
sa(dp8784
g2
S'1130'
p8785
sg4
S'png'
p8786
sg6
S'1946'
p8787
sg8
g52
sg10
S'Actor'
p8788
sg12
S'Susan_Lucci'
p8789
sg14
S'USA'
p8790
sg16
S'155'
p8791
sa(dp8792
g2
S'1131'
p8793
sg4
S'png'
p8794
sg6
S'1960'
p8795
sg8
g52
sg10
S'Director'
p8796
sg12
S'Susanne_Bier'
p8797
sg14
S'Denmark'
p8798
sg16
g17
sa(dp8799
g2
S'1132'
p8800
sg4
S'png'
p8801
sg6
S'1937'
p8802
sg8
g52
sg10
S'Actor'
p8803
sg12
S'Suzanne_Pleshette'
p8804
sg14
S'USA'
p8805
sg16
g17
sa(dp8806
g2
S'1133'
p8807
sg4
S'png'
p8808
sg6
S'1934'
p8809
sg8
g9
sg10
S'Director'
p8810
sg12
S'Sydney_Pollack'
p8811
sg14
S'USA'
p8812
sg16
g17
sa(dp8813
g2
S'1134'
p8814
sg4
S'png'
p8815
sg6
S'1981'
p8816
sg8
g9
sg10
S'Actor'
p8817
sg12
S'T.J._Miller'
p8818
sg14
S'USA'
p8819
sg16
S'188'
p8820
sa(dp8821
g2
S'1135'
p8822
sg4
S'png'
p8823
sg6
S'1971'
p8824
sg8
g52
sg10
S'Actor'
p8825
sg12
S'Tabu'
p8826
sg14
S'India'
p8827
sg16
S'174'
p8828
sa(dp8829
g2
S'1136'
p8830
sg4
S'png'
p8831
sg6
S'1986'
p8832
sg8
g9
sg10
S'Actor'
p8833
sg12
S'Tahj_Mowry'
p8834
sg14
S'USA'
p8835
sg16
S'168'
p8836
sa(dp8837
g2
S'1137'
p8838
sg4
S'png'
p8839
sg6
S'1975'
p8840
sg8
g9
sg10
S'Actor'
p8841
sg12
S'Tahmoh_Penikett'
p8842
sg14
S'Canada'
p8843
sg16
g17
sa(dp8844
g2
S'1138'
p8845
sg4
S'png'
p8846
sg6
S'1974'
p8847
sg8
g52
sg10
S'Actor'
p8848
sg12
S'Tamala_Jones'
p8849
sg14
S'USA'
p8850
sg16
g17
sa(dp8851
g2
S'1139'
p8852
sg4
S'png'
p8853
sg6
S'1970'
p8854
sg8
g52
sg10
S'Actor'
p8855
sg12
S'Tamara_Taylor'
p8856
sg14
S'Canada'
p8857
sg16
g17
sa(dp8858
g2
S'1140'
p8859
sg4
S'png'
p8860
sg6
S'1959'
p8861
sg8
g52
sg10
S'Actor'
p8862
sg12
S'Tamara_Tunie'
p8863
sg14
S'USA'
p8864
sg16
g17
sa(dp8865
g2
S'1141'
p8866
sg4
S'png'
p8867
sg6
S'1968'
p8868
sg8
g9
sg10
S'Actor'
p8869
sg12
S'Tamer_Hassan'
p8870
sg14
S'UK'
p8871
sg16
S'190'
p8872
sa(dp8873
g2
S'1142'
p8874
sg4
S'png'
p8875
sg6
S'1978'
p8876
sg8
g52
sg10
S'Actor'
p8877
sg12
S'Tamera_Mowry-Housley'
p8878
sg14
S'USA'
p8879
sg16
S'164'
p8880
sa(dp8881
g2
S'1143'
p8882
sg4
S'png'
p8883
sg6
S'1966'
p8884
sg8
g52
sg10
S'Actor'
p8885
sg12
S'Tamsin_Greig'
p8886
sg14
S'UK'
p8887
sg16
g17
sa(dp8888
g2
S'1144'
p8889
sg4
S'png'
p8890
sg6
S'1979'
p8891
sg8
g52
sg10
S'Model'
p8892
sg12
S'Tanya_Tate'
p8893
sg14
S'UK'
p8894
sg16
g17
sa(dp8895
g2
S'1145'
p8896
sg4
S'png'
p8897
sg6
S'1970'
p8898
sg8
g52
sg10
S'Actor'
p8899
sg12
S'Taraji_P._Henson'
p8900
sg14
S'USA'
p8901
sg16
S'165'
p8902
sa(dp8903
g2
S'1146'
p8904
sg4
S'png'
p8905
sg6
S'1978'
p8906
sg8
g52
sg10
S'Actor'
p8907
sg12
S'Taryn_Manning'
p8908
sg14
S'USA'
p8909
sg16
S'158'
p8910
sa(dp8911
g2
S'1147'
p8912
sg4
S'png'
p8913
sg6
S'1985'
p8914
sg8
g52
sg10
S'Actor'
p8915
sg12
S'Tatiana_Maslany'
p8916
sg14
S'Canada'
p8917
sg16
S'163'
p8918
sa(dp8919
g2
S'1148'
p8920
sg4
S'png'
p8921
sg6
S'1979'
p8922
sg8
g52
sg10
S'Actor'
p8923
sg12
S'Tatyana_Ali'
p8924
sg14
S'USA'
p8925
sg16
S'162'
p8926
sa(dp8927
g2
S'1149'
p8928
sg4
S'png'
p8929
sg6
S'1996'
p8930
sg8
g52
sg10
S'Writer'
p8931
sg12
S'Tavi_Gevinson'
p8932
sg14
S'USA'
p8933
sg16
g17
sa(dp8934
g2
S'1150'
p8935
sg4
S'png'
p8936
sg6
S'1981'
p8937
sg8
g9
sg10
S'Actor'
p8938
sg12
S'Taylor_Kitsch'
p8939
sg14
S'Canada'
p8940
sg16
S'181'
p8941
sa(dp8942
g2
S'1151'
p8943
sg4
S'png'
p8944
sg6
S'1992'
p8945
sg8
g9
sg10
S'Actor'
p8946
sg12
S'Taylor_Lautner'
p8947
sg14
S'USA'
p8948
sg16
S'174'
p8949
sa(dp8950
g2
S'1152'
p8951
sg4
S'png'
p8952
sg6
S'1993'
p8953
sg8
g52
sg10
S'Musician'
p8954
sg12
S'Taylor_Momsen'
p8955
sg14
S'USA'
p8956
sg16
S'173'
p8957
sa(dp8958
g2
S'1153'
p8959
sg4
S'png'
p8960
sg6
S'1989'
p8961
sg8
g52
sg10
S'Musician'
p8962
sg12
S'Taylor_Swift'
p8963
sg14
S'USA'
p8964
sg16
S'178'
p8965
sa(dp8966
g2
S'1154'
p8967
sg4
S'png'
p8968
sg6
S'1996'
p8969
sg8
g52
sg10
S'Actor'
p8970
sg12
S'Teala_Dunn'
p8971
sg14
S'USA'
p8972
sg16
S'159'
p8973
sa(dp8974
g2
S'1155'
p8975
sg4
S'png'
p8976
sg6
S'1947'
p8977
sg8
g9
sg10
S'Actor'
p8978
sg12
S'Ted_Danson'
p8979
sg14
S'USA'
p8980
sg16
S'188'
p8981
sa(dp8982
g2
S'1156'
p8983
sg4
S'png'
p8984
sg6
S'1938'
p8985
sg8
g9
sg10
S'Actor'
p8986
sg12
S'Terence_Stamp'
p8987
sg14
S'UK'
p8988
sg16
S'183'
p8989
sa(dp8990
g2
S'1157'
p8991
sg4
S'png'
p8992
sg6
S'1964'
p8993
sg8
g52
sg10
S'Actor'
p8994
sg12
S'Teri_Hatcher'
p8995
sg14
S'USA'
p8996
sg16
S'168'
p8997
sa(dp8998
g2
S'1158'
p8999
sg4
S'png'
p9000
sg6
S'1969'
p9001
sg8
g9
sg10
S'Actor'
p9002
sg12
S'Terrence_Howard'
p9003
sg14
S'USA'
p9004
sg16
S'184'
p9005
sa(dp9006
g2
S'1159'
p9007
sg4
S'png'
p9008
sg6
S'1972'
p9009
sg8
g52
sg10
S'Actor'
p9010
sg12
S'Thandie_Newton'
p9011
sg14
S'UK'
p9012
sg16
S'160'
p9013
sa(dp9014
g2
S'1160'
p9015
sg4
S'png'
p9016
sg6
S'1984'
p9017
sg8
g9
sg10
S'Actor'
p9018
sg12
S'Theo_James'
p9019
sg14
S'UK'
p9020
sg16
S'183'
p9021
sa(dp9022
g2
S'1161'
p9023
sg4
S'png'
p9024
sg6
S'1975'
p9025
sg8
g9
sg10
S'Actor'
p9026
sg12
S'Theo_Rossi'
p9027
sg14
S'USA'
p9028
sg16
S'180'
p9029
sa(dp9030
g2
S'1162'
p9031
sg4
S'png'
p9032
sg6
S'1987'
p9033
sg8
g9
sg10
S'Actor'
p9034
sg12
S'Thomas_Dekker'
p9035
sg14
S'USA'
p9036
sg16
S'175'
p9037
sa(dp9038
g2
S'1163'
p9039
sg4
S'png'
p9040
sg6
S'1962'
p9041
sg8
g9
sg10
S'Actor'
p9042
sg12
S'Thomas_Gibson'
p9043
sg14
S'USA'
p9044
sg16
S'187'
p9045
sa(dp9046
g2
S'1164'
p9047
sg4
S'png'
p9048
sg6
S'1960'
p9049
sg8
g9
sg10
S'Actor'
p9050
sg12
S'Thomas_Haden_Church'
p9051
sg14
S'USA'
p9052
sg16
S'183'
p9053
sa(dp9054
g2
S'1165'
p9055
sg4
S'png'
p9056
sg6
S'1980'
p9057
sg8
g9
sg10
S'Actor'
p9058
sg12
S'Thomas_Ian_Nicholas'
p9059
sg14
S'USA'
p9060
sg16
S'173'
p9061
sa(dp9062
g2
S'1166'
p9063
sg4
S'png'
p9064
sg6
S'1969'
p9065
sg8
g9
sg10
S'Actor'
p9066
sg12
S'Thomas_Jane'
p9067
sg14
S'USA'
p9068
sg16
S'180'
p9069
sa(dp9070
g2
S'1167'
p9071
sg4
S'png'
p9072
sg6
S'1970'
p9073
sg8
g9
sg10
S'Actor'
p9074
sg12
S'Thomas_Lennon'
p9075
sg14
S'USA'
p9076
sg16
g17
sa(dp9077
g2
S'1168'
p9078
sg4
S'png'
p9079
sg6
S'1960'
p9080
sg8
g52
sg10
S'Actor'
p9081
sg12
S'Tilda_Swinton'
p9082
sg14
S'UK'
p9083
sg16
S'179'
p9084
sa(dp9085
g2
S'1169'
p9086
sg4
S'png'
p9087
sg6
S'1958'
p9088
sg8
g9
sg10
S'Director'
p9089
sg12
S'Tim_Burton'
p9090
sg14
S'USA'
p9091
sg16
g17
sa(dp9092
g2
S'1170'
p9093
sg4
S'png'
p9094
sg6
S'1956'
p9095
sg8
g9
sg10
S'Actor'
p9096
sg12
S'Tim_Daly'
p9097
sg14
S'USA'
p9098
sg16
S'185'
p9099
sa(dp9100
g2
S'1171'
p9101
sg4
S'png'
p9102
sg6
S'1953'
p9103
sg8
g9
sg10
S'Broadcaster '
p9104
sg12
S'Tim_Gunn'
p9105
sg14
S'USA'
p9106
sg16
S'188'
p9107
sa(dp9108
g2
S'1172'
p9109
sg4
S'png'
p9110
sg6
S'1975'
p9111
sg8
g9
sg10
S'Comedian'
p9112
sg12
S'Tim_Minchin'
p9113
sg14
S'Austrailia'
p9114
sg16
g17
sa(dp9115
g2
S'1173'
p9116
sg4
S'png'
p9117
sg6
S'1957'
p9118
sg8
g9
sg10
S'Actor'
p9119
sg12
S'Timothy_Spall'
p9120
sg14
S'UK'
p9121
sg16
g17
sa(dp9122
g2
S'1174'
p9123
sg4
S'png'
p9124
sg6
S'1980'
p9125
sg8
g52
sg10
S'Actor'
p9126
sg12
S'Tinsel_Korey'
p9127
sg14
S'Canada'
p9128
sg16
g17
sa(dp9129
g2
S'1175'
p9130
sg4
S'png'
p9131
sg6
S'1961'
p9132
sg8
g9
sg10
S'Actor'
p9133
sg12
S'Titus_Welliver'
p9134
sg14
S'USA'
p9135
sg16
S'182'
p9136
sa(dp9137
g2
S'1176'
p9138
sg4
S'png'
p9139
sg6
S'1966'
p9140
sg8
g9
sg10
S'Actor'
p9141
sg12
S'Toby_Jones'
p9142
sg14
S'UK'
p9143
sg16
S'165'
p9144
sa(dp9145
g2
S'1177'
p9146
sg4
S'png'
p9147
sg6
S'1969'
p9148
sg8
g9
sg10
S'Actor'
p9149
sg12
S'Toby_Stephens'
p9150
sg14
S'UK'
p9151
sg16
S'180'
p9152
sa(dp9153
g2
S'1178'
p9154
sg4
S'png'
p9155
sg6
S'1985'
p9156
sg8
g9
sg10
S'Actor'
p9157
sg12
S'Todd_Lasance'
p9158
sg14
S'Austrailia'
p9159
sg16
g17
sa(dp9160
g2
S'1179'
p9161
sg4
S'png'
p9162
sg6
S'1959'
p9163
sg8
g9
sg10
S'Actor'
p9164
sg12
S'Tom_Arnold'
p9165
sg14
S'USA'
p9166
sg16
g17
sa(dp9167
g2
S'1180'
p9168
sg4
S'png'
p9169
sg6
S'1955'
p9170
sg8
g9
sg10
S'Broadcaster '
p9171
sg12
S'Tom_Bergeron'
p9172
sg14
S'USA'
p9173
sg16
S'175'
p9174
sa(dp9175
g2
S'1181'
p9176
sg4
S'png'
p9177
sg6
S'1961'
p9178
sg8
g9
sg10
S'Director'
p9179
sg12
S'Tom_Ford'
p9180
sg14
S'USA'
p9181
sg16
S'183'
p9182
sa(dp9183
g2
S'1182'
p9184
sg4
S'png'
p9185
sg6
S'1981'
p9186
sg8
g9
sg10
S'Actor'
p9187
sg12
S'Tom_Hiddleston'
p9188
sg14
S'UK'
p9189
sg16
S'188'
p9190
sa(dp9191
g2
S'1183'
p9192
sg4
S'png'
p9193
sg6
S'1972'
p9194
sg8
g9
sg10
S'Director'
p9195
sg12
S'Tom_Hooper'
p9196
sg14
S'UK'
p9197
sg16
g17
sa(dp9198
g2
S'1184'
p9199
sg4
S'png'
p9200
sg6
S'1962'
p9201
sg8
g9
sg10
S'Actor'
p9202
sg12
S'Tom_Kenny'
p9203
sg14
S'USA'
p9204
sg16
S'180'
p9205
sa(dp9206
g2
S'1185'
p9207
sg4
S'png'
p9208
sg6
S'1982'
p9209
sg8
g9
sg10
S'Actor'
p9210
sg12
S'Tom_Mison'
p9211
sg14
S'UK'
p9212
sg16
S'185'
p9213
sa(dp9214
g2
S'1186'
p9215
sg4
S'png'
p9216
sg6
S'1945'
p9217
sg8
g9
sg10
S'Actor'
p9218
sg12
S'Tom_Selleck'
p9219
sg14
S'USA'
p9220
sg16
S'192'
p9221
sa(dp9222
g2
S'1187'
p9223
sg4
S'png'
p9224
sg6
S'1969'
p9225
sg8
g9
sg10
S'Actor'
p9226
sg12
S'Tony_Curran'
p9227
sg14
S'UK'
p9228
sg16
g17
sa(dp9229
g2
S'1188'
p9230
sg4
S'png'
p9231
sg6
S'1969'
p9232
sg8
g52
sg10
S'Actor'
p9233
sg12
S'Tracey_Gold'
p9234
sg14
S'USA'
p9235
sg16
g17
sa(dp9236
g2
S'1189'
p9237
sg4
S'png'
p9238
sg6
S'1968'
p9239
sg8
g9
sg10
S'Comedian'
p9240
sg12
S'Tracy_Morgan'
p9241
sg14
S'USA'
p9242
sg16
S'178'
p9243
sa(dp9244
g2
S'1190'
p9245
sg4
S'png'
p9246
sg6
S'1989'
p9247
sg8
g9
sg10
S'Actor'
p9248
sg12
S'Tristan_Wilds'
p9249
sg14
S'USA'
p9250
sg16
S'182'
p9251
sa(dp9252
g2
S'1191'
p9253
sg4
S'jpg'
p9254
sg6
S'1995'
p9255
sg8
g9
sg10
S'Actor'
p9256
sg12
S'Troye_Sivan'
p9257
sg14
S'Austrailia'
p9258
sg16
S'174'
p9259
sa(dp9260
g2
S'1192'
p9261
sg4
S'jpg'
p9262
sg6
S'1971'
p9263
sg8
g9
sg10
S'Musician'
p9264
sg12
S'Tupac_Shakur'
p9265
sg14
S'USA'
p9266
sg16
g17
sa(dp9267
g2
S'1193'
p9268
sg4
S'jpg'
p9269
sg6
S'1964'
p9270
sg8
g9
sg10
S'Actor'
p9271
sg12
S'Ty_Pennington'
p9272
sg14
S'USA'
p9273
sg16
S'183'
p9274
sa(dp9275
g2
S'1194'
p9276
sg4
S'jpg'
p9277
sg6
S'1996'
p9278
sg8
g9
sg10
S'Actor'
p9279
sg12
S'Tye_Sheridan'
p9280
sg14
S'USA'
p9281
sg16
S'171'
p9282
sa(dp9283
g2
S'1195'
p9284
sg4
S'jpg'
p9285
sg6
S'1986'
p9286
sg8
g9
sg10
S'Actor'
p9287
sg12
S'Tyler_Blackburn'
p9288
sg14
S'USA'
p9289
sg16
S'179'
p9290
sa(dp9291
g2
S'1196'
p9292
sg4
S'jpg'
p9293
sg6
S'1987'
p9294
sg8
g9
sg10
S'Actor'
p9295
sg12
S'Tyler_Hoechlin'
p9296
sg14
S'USA'
p9297
sg16
S'183'
p9298
sa(dp9299
g2
S'1197'
p9300
sg4
S'jpg'
p9301
sg6
S'1992'
p9302
sg8
g9
sg10
S'Actor'
p9303
sg12
S'Tyler_James_Williams'
p9304
sg14
S'USA'
p9305
sg16
S'173'
p9306
sa(dp9307
g2
S'1198'
p9308
sg4
S'jpg'
p9309
sg6
S'1978'
p9310
sg8
g9
sg10
S'Musician'
p9311
sg12
S'Usher_Raymond'
p9312
sg14
S'USA'
p9313
sg16
S'171'
p9314
sa(dp9315
g2
S'1199'
p9316
sg4
S'jpg'
p9317
sg6
S'1981'
p9318
sg8
g52
sg10
S'Actor'
p9319
sg12
S'Uzo_Aduba'
p9320
sg14
S'USA'
p9321
sg16
g17
sa(dp9322
g2
S'1200'
p9323
sg4
S'jpg'
p9324
sg6
S'1988'
p9325
sg8
g52
sg10
S'Actor'
p9326
sg12
S'Vanessa_Hudgens'
p9327
sg14
S'USA'
p9328
sg16
S'155'
p9329
sa(dp9330
g2
S'1201'
p9331
sg4
S'jpg'
p9332
sg6
S'1980'
p9333
sg8
g52
sg10
S'Model'
p9334
sg12
S'Vanessa_Lachey'
p9335
sg14
S'USA'
p9336
sg16
g17
sa(dp9337
g2
S'1202'
p9338
sg4
S'jpg'
p9339
sg6
S'1968'
p9340
sg8
g52
sg10
S'Actor'
p9341
sg12
S'Vanessa_Marcil'
p9342
sg14
S'USA'
p9343
sg16
S'163'
p9344
sa(dp9345
g2
S'1203'
p9346
sg4
S'jpg'
p9347
sg6
S'1967'
p9348
sg8
g9
sg10
S'Musician'
p9349
sg12
S'Vanilla_Ice'
p9350
sg14
S'USA'
p9351
sg16
S'180'
p9352
sa(dp9353
g2
S'1204'
p9354
sg4
S'jpg'
p9355
sg6
S'1965'
p9356
sg8
g52
sg10
S'Actor'
p9357
sg12
S'Veronica_Ferres'
p9358
sg14
S'Germany'
p9359
sg16
S'178'
p9360
sa(dp9361
g2
S'1205'
p9362
sg4
S'jpg'
p9363
sg6
S'1983'
p9364
sg8
g52
sg10
S'Actor'
p9365
sg12
S'Vicky_McClure'
p9366
sg14
S'England'
p9367
sg16
g17
sa(dp9368
g2
S'1206'
p9369
sg4
S'jpg'
p9370
sg6
S'1993'
p9371
sg8
g52
sg10
S'Musician'
p9372
sg12
S'Victoria_Justice'
p9373
sg14
S'USA'
p9374
sg16
S'166'
p9375
sa(dp9376
g2
S'1207'
p9377
sg4
S'jpg'
p9378
sg6
S'1959'
p9379
sg8
g52
sg10
S'Actor'
p9380
sg12
S'Victoria_Rowell'
p9381
sg14
S'USA'
p9382
sg16
S'170'
p9383
sa(dp9384
g2
S'1208'
p9385
sg4
S'jpg'
p9386
sg6
S'1979'
p9387
sg8
g52
sg10
S'Actor'
p9388
sg12
S'Vidya_Balan'
p9389
sg14
S'India'
p9390
sg16
S'163'
p9391
sa(dp9392
g2
S'1209'
p9393
sg4
S'jpg'
p9394
sg6
S'1958'
p9395
sg8
g9
sg10
S'Actor'
p9396
sg12
S'Viggo_Mortensen'
p9397
sg14
S'Denmark'
p9398
sg16
S'180'
p9399
sa(dp9400
g2
S'1210'
p9401
sg4
S'jpg'
p9402
sg6
S'1967'
p9403
sg8
g9
sg10
S'Writer'
p9404
sg12
S'Vince_Gilligan'
p9405
sg14
S'USA'
p9406
sg16
g17
sa(dp9407
g2
S'1211'
p9408
sg4
S'jpg'
p9409
sg6
S'1966'
p9410
sg8
g9
sg10
S'Actor'
p9411
sg12
S'Vincent_Cassel'
p9412
sg14
S'France'
p9413
sg16
S'187'
p9414
sa(dp9415
g2
S'1212'
p9416
sg4
S'jpg'
p9417
sg6
S'1992'
p9418
sg8
g9
sg10
S'Actor'
p9419
sg12
S'Vincent_Martella'
p9420
sg14
S'USA'
p9421
sg16
g17
sa(dp9422
g2
S'1213'
p9423
sg4
S'jpg'
p9424
sg6
S'1946'
p9425
sg8
g9
sg10
S'Actor'
p9426
sg12
S'Vincent_Pastore'
p9427
sg14
S'USA'
p9428
sg16
g17
sa(dp9429
g2
S'1214'
p9430
sg4
S'jpg'
p9431
sg6
S'1976'
p9432
sg8
g52
sg10
S'Musician'
p9433
sg12
S'Violante_Placido'
p9434
sg14
S'Italy'
p9435
sg16
g17
sa(dp9436
g2
S'1215'
p9437
sg4
S'jpg'
p9438
sg6
S'1961'
p9439
sg8
g52
sg10
S'Actor'
p9440
sg12
S'Virginia_Madsen'
p9441
sg14
S'USA'
p9442
sg16
g17
sa(dp9443
g2
S'1216'
p9444
sg4
S'jpg'
p9445
sg6
S'1920'
p9446
sg8
g9
sg10
S'Actor'
p9447
sg12
S'Walter_Matthau'
p9448
sg14
S'USA'
p9449
sg16
S'189'
p9450
sa(dp9451
g2
S'1217'
p9452
sg4
S'jpg'
p9453
sg6
S'1971'
p9454
sg8
g9
sg10
S'Actor'
p9455
sg12
S'Walton_Goggins'
p9456
sg14
S'USA'
p9457
sg16
S'178'
p9458
sa(dp9459
g2
S'1218'
p9460
sg4
S'jpg'
p9461
sg6
S'1964'
p9462
sg8
g52
sg10
S'Actor'
p9463
sg12
S'Wanda_Sykes'
p9464
sg14
S'USA'
p9465
sg16
g17
sa(dp9466
g2
S'1219'
p9467
sg4
S'jpg'
p9468
sg6
S'1963'
p9469
sg8
g9
sg10
S'Actor'
p9470
sg12
S'Wendell_Pierce'
p9471
sg14
S'USA'
p9472
sg16
g17
sa(dp9473
g2
S'1220'
p9474
sg4
S'jpg'
p9475
sg6
S'1969'
p9476
sg8
g52
sg10
S'Actor'
p9477
sg12
S'Wendi_McLendon-Covey'
p9478
sg14
S'USA'
p9479
sg16
S'172'
p9480
sa(dp9481
g2
S'1221'
p9482
sg4
S'jpg'
p9483
sg6
S'1964'
p9484
sg8
g52
sg10
S'Actor'
p9485
sg12
S'Wendy_Williams'
p9486
sg14
S'USA'
p9487
sg16
S'180'
p9488
sa(dp9489
g2
S'1222'
p9490
sg4
S'jpg'
p9491
sg6
S'1972'
p9492
sg8
g9
sg10
S'Actor'
p9493
sg12
S'Wentworth_Miller'
p9494
sg14
S'England'
p9495
sg16
S'185'
p9496
sa(dp9497
g2
S'1223'
p9498
sg4
S'jpg'
p9499
sg6
S'1978'
p9500
sg8
g9
sg10
S'Actor'
p9501
sg12
S'Wes_Bentley'
p9502
sg14
S'USA'
p9503
sg16
S'180'
p9504
sa(dp9505
g2
S'1224'
p9506
sg4
S'jpg'
p9507
sg6
S'1962'
p9508
sg8
g9
sg10
S'Actor'
p9509
sg12
S'Wesley_Snipes'
p9510
sg14
S'USA'
p9511
sg16
S'175'
p9512
sa(dp9513
g2
S'1225'
p9514
sg4
S'jpg'
p9515
sg6
S'1982'
p9516
sg8
g52
sg10
S'Actor'
p9517
sg12
S'Whitney_Cummings'
p9518
sg14
S'USA'
p9519
sg16
S'180'
p9520
sa(dp9521
g2
S'1226'
p9522
sg4
S'jpg'
p9523
sg6
S'1970'
p9524
sg8
g9
sg10
S'Actor'
p9525
sg12
S'Will_Arnett'
p9526
sg14
S'Canada'
p9527
sg16
S'189'
p9528
sa(dp9529
g2
S'1227'
p9530
sg4
S'jpg'
p9531
sg6
S'1970'
p9532
sg8
g9
sg10
S'Actor'
p9533
sg12
S'Will_Forte'
p9534
sg14
S'USA'
p9535
sg16
S'175'
p9536
sa(dp9537
g2
S'1228'
p9538
sg4
S'jpg'
p9539
sg6
S'1976'
p9540
sg8
g9
sg10
S'Actor'
p9541
sg12
S'Will_Mellor'
p9542
sg14
S'England'
p9543
sg16
g17
sa(dp9544
g2
S'1229'
p9545
sg4
S'jpg'
p9546
sg6
S'1993'
p9547
sg8
g9
sg10
S'Actor'
p9548
sg12
S'Will_Poulter'
p9549
sg14
S'England'
p9550
sg16
S'188'
p9551
sa(dp9552
g2
S'1230'
p9553
sg4
S'jpg'
p9554
sg6
S'1971'
p9555
sg8
g9
sg10
S'Actor'
p9556
sg12
S'Will_Yun_Lee'
p9557
sg14
S'USA'
p9558
sg16
g17
sa(dp9559
g2
S'1231'
p9560
sg4
S'jpg'
p9561
sg6
S'1955'
p9562
sg8
g9
sg10
S'Actor'
p9563
sg12
S'Willem_Dafoe'
p9564
sg14
S'USA'
p9565
sg16
S'178'
p9566
sa(dp9567
g2
S'1232'
p9568
sg4
S'jpg'
p9569
sg6
S'1963'
p9570
sg8
g9
sg10
S'Actor'
p9571
sg12
S'William_Baldwin'
p9572
sg14
S'USA'
p9573
sg16
S'187'
p9574
sa(dp9575
g2
S'1233'
p9576
sg4
S'jpg'
p9577
sg6
S'1956'
p9578
sg8
g9
sg10
S'Actor'
p9579
sg12
S'William_Fichtner'
p9580
sg14
S'USA'
p9581
sg16
S'184'
p9582
sa(dp9583
g2
S'1234'
p9584
sg4
S'jpg'
p9585
sg6
S'1980'
p9586
sg8
g9
sg10
S'Actor'
p9587
sg12
S'William_Levy'
p9588
sg14
S'USA'
p9589
sg16
S'183'
p9590
sa(dp9591
g2
S'1235'
p9592
sg4
S'jpg'
p9593
sg6
S'1973'
p9594
sg8
g9
sg10
S'Actor'
p9595
sg12
S'Wilson_Cruz'
p9596
sg14
S'USA'
p9597
sg16
g17
sa(dp9598
g2
S'1236'
p9599
sg4
S'jpg'
p9600
sg6
S'1945'
p9601
sg8
g9
sg10
S'Director'
p9602
sg12
S'Wim_Wenders'
p9603
sg14
S'Germany'
p9604
sg16
g17
sa(dp9605
g2
S'1237'
p9606
sg4
S'jpg'
p9607
sg6
S'1993'
p9608
sg8
g52
sg10
S'Dancer'
p9609
sg12
S'Witney_Carson'
p9610
sg14
S'USA'
p9611
sg16
S'160'
p9612
sa(dp9613
g2
S'1238'
p9614
sg4
S'jpg'
p9615
sg6
S'1961'
p9616
sg8
g9
sg10
S'Actor'
p9617
sg12
S'Woody_Harrelson'
p9618
sg14
S'USA'
p9619
sg16
S'178'
p9620
sa(dp9621
g2
S'1239'
p9622
sg4
S'jpg'
p9623
sg6
S'1983'
p9624
sg8
g9
sg10
S'Actor'
p9625
sg12
S'Xavier_Samuel'
p9626
sg14
S'Austrailia'
p9627
sg16
S'179'
p9628
sa(dp9629
g2
S'1240'
p9630
sg4
S'jpg'
p9631
sg6
S'1964'
p9632
sg8
g52
sg10
S'Actor'
p9633
sg12
S'Yeardley_Smith'
p9634
sg14
S'USA'
p9635
sg16
g17
sa(dp9636
g2
S'1241'
p9637
sg4
S'jpg'
p9638
sg6
S'1971'
p9639
sg8
g52
sg10
S'Actor'
p9640
sg12
S'Yvette_Nicole_Brown'
p9641
sg14
S'USA'
p9642
sg16
g17
sa(dp9643
g2
S'1242'
p9644
sg4
S'jpg'
p9645
sg6
S'1987'
p9646
sg8
g9
sg10
S'Actor'
p9647
sg12
S'Zac_Efron'
p9648
sg14
S'USA'
p9649
sg16
S'173'
p9650
sa(dp9651
g2
S'1243'
p9652
sg4
S'jpg'
p9653
sg6
S'1975'
p9654
sg8
g9
sg10
S'Actor'
p9655
sg12
S'Zach_Braff'
p9656
sg14
S'USA'
p9657
sg16
S'183'
p9658
sa(dp9659
g2
S'1244'
p9660
sg4
S'jpg'
p9661
sg6
S'1969'
p9662
sg8
g9
sg10
S'Actor'
p9663
sg12
S'Zach_Galifianakis'
p9664
sg14
S'USA'
p9665
sg16
S'170'
p9666
sa(dp9667
g2
S'1245'
p9668
sg4
S'jpg'
p9669
sg6
S'1998'
p9670
sg8
g9
sg10
S'Actor'
p9671
sg12
S'Zachary_Gordon'
p9672
sg14
S'USA'
p9673
sg16
S'175'
p9674
sa(dp9675
g2
S'1246'
p9676
sg4
S'jpg'
p9677
sg6
S'1980'
p9678
sg8
g9
sg10
S'Actor'
p9679
sg12
S'Zachary_Levi'
p9680
sg14
S'USA'
p9681
sg16
S'191'
p9682
sa(dp9683
g2
S'1247'
p9684
sg4
S'jpg'
p9685
sg6
S'1977'
p9686
sg8
g9
sg10
S'Actor'
p9687
sg12
S'Zachary_Quinto'
p9688
sg14
S'USA'
p9689
sg16
S'188'
p9690
sa(dp9691
g2
S'1248'
p9692
sg4
S'jpg'
p9693
sg6
S'1966'
p9694
sg8
g9
sg10
S'Actor'
p9695
sg12
S'Zack_Snyder'
p9696
sg14
S'USA'
p9697
sg16
S'170'
p9698
sa(dp9699
g2
S'1249'
p9700
sg4
S'jpg'
p9701
sg6
S'1978'
p9702
sg8
g52
sg10
S'Actor'
p9703
sg12
S'Zoe_Saldana'
p9704
sg14
S'USA'
p9705
sg16
S'170'
p9706
sa(dp9707
g2
S'1250'
p9708
sg4
S'jpg'
p9709
sg6
S'1979'
p9710
sg8
g52
sg10
S'Actor'
p9711
sg12
S'Zulay_Henao'
p9712
sg14
S'Columbia'
p9713
sg16
S'165'
p9714
sa.