(dp0
I0
(dp1
S'index'
p2
S'0'
p3
sS'picture'
p4
S'jpg'
p5
sS'age'
p6
S'1978'
p7
sS'sex'
p8
S'M'
p9
sS'Job'
p10
S'Actor'
p11
sS'full_name'
p12
S'A.J._Buckley'
p13
sS'nationality'
p14
S'Ireland'
p15
sS'Height'
p16
S''
p17
ssI1
(dp18
g2
S'1'
p19
sg4
g5
sg6
S'1967'
p20
sg8
g9
sg10
S'Musician'
p21
sg12
S'A.R._Rahman'
p22
sg14
S'India'
p23
sg16
g17
ssI2
(dp24
g2
S'2'
p25
sg4
g5
sg6
S'1965'
p26
sg8
g9
sg10
S'Actor'
p27
sg12
S'Aamir_Khan'
p28
sg14
S'India'
p29
sg16
S'168'
p30
ssI3
(dp31
g2
S'3'
p32
sg4
g5
sg6
S'1983'
p33
sg8
g9
sg10
S'Actor'
p34
sg12
S'Aaron_Tveit'
p35
sg14
S'USA'
p36
sg16
S'183'
p37
ssI4
(dp38
g2
S'4'
p39
sg4
g5
sg6
S'1979'
p40
sg8
g9
sg10
S'Actor'
p41
sg12
S'Aaron_Yoo'
p42
sg14
S'USA'
p43
sg16
g17
ssI5
(dp44
g2
S'5'
p45
sg4
g5
sg6
S'1982'
p46
sg8
S'F'
p47
sg10
S'Actor'
p48
sg12
S'Abbie_Cornish'
p49
sg14
S'Austrailia'
p50
sg16
S'173'
p51
ssI6
(dp52
g2
S'6'
p53
sg4
g5
sg6
S'1996'
p54
sg8
g47
sg10
S'Actor'
p55
sg12
S'Abigail_Breslin'
p56
sg14
S'USA'
p57
sg16
S'155'
p58
ssI7
(dp59
g2
S'7'
p60
sg4
g5
sg6
S'1981'
p61
sg8
g47
sg10
S'Actor'
p62
sg12
S'Abigail_Spencer'
p63
sg14
S'USA'
p64
sg16
S'165'
p65
ssI8
(dp66
g2
S'8'
p67
sg4
S'png'
p68
sg6
S'1972'
p69
sg8
g9
sg10
S'Actor'
p70
sg12
S'Adam_Beach'
p71
sg14
S'Canada'
p72
sg16
g17
ssI9
(dp73
g2
S'9'
p74
sg4
g5
sg6
S'1979'
p75
sg8
g9
sg10
S'Actor'
p76
sg12
S'Adam_Brody'
p77
sg14
S'USA'
p78
sg16
S'180'
p79
ssI10
(dp80
g2
S'10'
p81
sg4
g5
sg6
S'1973'
p82
sg8
g9
sg10
S'Sports'
p83
sg12
S'Adam_Copeland'
p84
sg14
S'Canada'
p85
sg16
S'196'
p86
ssI11
(dp87
g2
S'11'
p88
sg4
g5
sg6
S'1983'
p89
sg8
g9
sg10
S'Actor'
p90
sg12
S'Adam_Driver'
p91
sg14
S'USA'
p92
sg16
S'189'
p93
ssI12
(dp94
g2
S'12'
p95
sg4
g5
sg6
S'1982'
p96
sg8
g47
sg10
S'Actor'
p97
sg12
S'Adrianne_Curry'
p98
sg14
S'USA'
p99
sg16
S'179'
p100
ssI13
(dp101
g2
S'13'
p102
sg4
g5
sg6
S'1983'
p103
sg8
g47
sg10
S'Actor'
p104
sg12
S'Adrianne_Palicki'
p105
sg14
S'USA'
p106
sg16
S'180'
p107
ssI14
(dp108
g2
S'14'
p109
sg4
g5
sg6
S'1983'
p110
sg8
g47
sg10
S'Model'
p111
sg12
S'Agyness_Deyn'
p112
sg14
S'UK'
p113
sg16
S'173'
p114
ssI15
(dp115
g2
S'15'
p116
sg4
g5
sg6
S'1983'
p117
sg8
g9
sg10
S'Actor'
p118
sg12
S'Aidan_Turner'
p119
sg14
S'Ireland'
p120
sg16
S'183'
p121
ssI16
(dp122
g2
S'16'
p123
sg4
g5
sg6
S'1969'
p124
sg8
g9
sg10
S'Actor'
p125
sg12
S'Ajay_Devgn'
p126
sg14
S'India'
p127
sg16
S'175'
p128
ssI17
(dp129
g2
S'17'
p130
sg4
g5
sg6
S'1967'
p131
sg8
g9
sg10
S'Actor'
p132
sg12
S'Akshay_Kumar'
p133
sg14
S'India'
p134
sg16
g17
ssI18
(dp135
g2
S'18'
p136
sg4
g68
sg6
S'1935'
p137
sg8
g9
sg10
S'Actor'
p138
sg12
S'Alain_Delon'
p139
sg14
S'France'
p140
sg16
S'177'
p141
ssI19
(dp142
g2
S'19'
p143
sg4
g5
sg6
S'1936'
p144
sg8
g9
sg10
S'Actor'
p145
sg12
S'Alan_Alda'
p146
sg14
S'USA'
p147
sg16
S'188'
p148
ssI20
(dp149
g2
S'20'
p150
sg4
g5
sg6
S'1965'
p151
sg8
g9
sg10
S'Actor'
p152
sg12
S'Alan_Cumming'
p153
sg14
S'Scotland'
p154
sg16
S'178'
p155
ssI21
(dp156
g2
S'21'
p157
sg4
g5
sg6
S'1946'
p158
sg8
g9
sg10
S'Actor'
p159
sg12
S'Alan_Rickman'
p160
sg14
S'UK'
p161
sg16
S'185'
p162
ssI22
(dp163
g2
S'22'
p164
sg4
g5
sg6
S'1971'
p165
sg8
g9
sg10
S'Actor'
p166
sg12
S'Alan_Tudyk'
p167
sg14
S'USA'
p168
sg16
S'183'
p169
ssI23
(dp170
g2
S'23'
p171
sg4
g5
sg6
S'1979'
p172
sg8
g47
sg10
S'Actor'
p173
sg12
S'Alba_Rohrwacher'
p174
sg14
S'Italy'
p175
sg16
g17
ssI24
(dp176
g2
S'24'
p177
sg4
g5
sg6
S'1986'
p178
sg8
g9
sg10
S'Actor'
p179
sg12
S'Aldis_Hodge'
p180
sg14
S'USA'
p181
sg16
g17
ssI25
(dp182
g2
S'25'
p183
sg4
g5
sg6
S'1971'
p184
sg8
g47
sg10
S'Actor'
p185
sg12
S'Alex_Borstein'
p186
sg14
S'USA'
p187
sg16
S'152'
p188
ssI26
(dp189
g2
S'26'
p190
sg4
g5
sg6
S'1963'
p191
sg8
g47
sg10
S'Actor'
p192
sg12
S'Alex_Kingston'
p193
sg14
S'UK'
p194
sg16
S'170'
p195
ssI27
(dp196
g2
S'27'
p197
sg4
g5
sg6
S'1990'
p198
sg8
g9
sg10
S'Actor'
p199
sg12
S'Alex_Pettyfer'
p200
sg14
S'UK'
p201
sg16
S'181'
p202
ssI28
(dp203
g2
S'28'
p204
sg4
g5
sg6
S'1940'
p205
sg8
g9
sg10
S'Anchor'
p206
sg12
S'Alex_Trebek'
p207
sg14
S'Canada'
p208
sg16
S'173'
p209
ssI29
(dp210
g2
S'29'
p211
sg4
g5
sg6
S'1982'
p212
sg8
g47
sg10
S'Actor'
p213
sg12
S'Alexa_Davalos'
p214
sg14
S'USA'
p215
sg16
S'170'
p216
ssI30
(dp217
g2
S'30'
p218
sg4
g5
sg6
S'1965'
p219
sg8
g9
sg10
S'Actor'
p220
sg12
S'Alexander_Siddig'
p221
sg14
S'Sudan'
p222
sg16
S'182'
p223
ssI31
(dp224
g2
S'31'
p225
sg4
g5
sg6
S'1986'
p226
sg8
g47
sg10
S'Actor'
p227
sg12
S'Alexandra_Daddario'
p228
sg14
S'USA'
p229
sg16
S'173'
p230
ssI32
(dp231
g2
S'32'
p232
sg4
g5
sg6
S'1987'
p233
sg8
g47
sg10
S'Actor'
p234
sg12
S'Alexandra_Roach'
p235
sg14
S'UK'
p236
sg16
g17
ssI33
(dp237
g2
S'33'
p238
sg4
g5
sg6
S'1986'
p239
sg8
g47
sg10
S'Musician'
p240
sg12
S'Alexz_Johnson'
p241
sg14
S'Canada'
p242
sg16
g17
ssI34
(dp243
g2
S'34'
p244
sg4
g5
sg6
S'1952'
p245
sg8
g47
sg10
S'Actor'
p246
sg12
S'Alfre_Woodard'
p247
sg14
S'USA'
p248
sg16
g17
ssI35
(dp249
g2
S'35'
p250
sg4
g5
sg6
S'1982'
p251
sg8
g47
sg10
S'Actor'
p252
sg12
S'Alice_Eve'
p253
sg14
S'UK'
p254
sg16
S'166'
p255
ssI36
(dp256
g2
S'36'
p257
sg4
g5
sg6
S'1983'
p258
sg8
g47
sg10
S'Actor'
p259
sg12
S'Alicja_Bachleda'
p260
sg14
S'USA'
p261
sg16
S'168'
p262
ssI37
(dp263
g2
S'37'
p264
sg4
g5
sg6
S'1962'
p265
sg8
g47
sg10
S'Actor'
p266
sg12
S'Alison_Arngrim'
p267
sg14
S'USA'
p268
sg16
S'162'
p269
ssI38
(dp270
g2
S'38'
p271
sg4
g5
sg6
S'1985'
p272
sg8
g47
sg10
S'Actor'
p273
sg12
S'Alison_Pill'
p274
sg14
S'Canada'
p275
sg16
S'168'
p276
ssI39
(dp277
g2
S'39'
p278
sg4
g5
sg6
S'1988'
p279
sg8
g47
sg10
S'Actor'
p280
sg12
S'Allison_Williams'
p281
sg14
S'USA'
p282
sg16
S'167'
p283
ssI40
(dp284
g2
S'40'
p285
sg4
g5
sg6
S'1985'
p286
sg8
g47
sg10
S'Actor'
p287
sg12
S'Amanda_Seyfried'
p288
sg14
S'USA'
p289
sg16
S'159'
p290
ssI41
(dp291
g2
S'41'
p292
sg4
g5
sg6
S'1970'
p293
sg8
g9
sg10
S'Actor'
p294
sg12
S'Amaury_Nolasco'
p295
sg14
S'Puertorico'
p296
sg16
S'179'
p297
ssI42
(dp298
g2
S'42'
p299
sg4
g5
sg6
S'1986'
p300
sg8
g47
sg10
S'Actor'
p301
sg12
S'Amber_Riley'
p302
sg14
S'USA'
p303
sg16
g17
ssI43
(dp304
g2
S'43'
p305
sg4
g5
sg6
S'1984'
p306
sg8
g47
sg10
S'Actor'
p307
sg12
S'America_Ferrera'
p308
sg14
S'USA'
p309
sg16
S'155'
p310
ssI44
(dp311
g2
S'44'
p312
sg4
g5
sg6
S'1942'
p313
sg8
g9
sg10
S'Actor'
p314
sg12
S'Amitabh_Bachchan'
p315
sg14
S'India'
p316
sg16
S'188'
p317
ssI45
(dp318
g2
S'45'
p319
sg4
g5
sg6
S'1971'
p320
sg8
g47
sg10
S'Actor'
p321
sg12
S'Amy_Poehler'
p322
sg14
S'USA'
p323
sg16
S'157'
p324
ssI46
(dp325
g2
S'46'
p326
sg4
g5
sg6
S'1981'
p327
sg8
g47
sg10
S'Actor'
p328
sg12
S'Amy_Schumer'
p329
sg14
S'USA'
p330
sg16
S'170'
p331
ssI47
(dp332
g2
S'47'
p333
sg4
g5
sg6
S'1967'
p334
sg8
g47
sg10
S'Actor'
p335
sg12
S'Ana_Gasteyer'
p336
sg14
S'USA'
p337
sg16
g17
ssI48
(dp338
g2
S'48'
p339
sg4
g5
sg6
S'1962'
p340
sg8
g9
sg10
S'Actor'
p341
sg12
S'Andre_Braugher'
p342
sg14
S'USA'
p343
sg16
S'183'
p344
ssI49
(dp345
g2
S'49'
p346
sg4
g5
sg6
S'1981'
p347
sg8
g47
sg10
S'Actor'
p348
sg12
S'Andrea_Riseborough'
p349
sg14
S'UK'
p350
sg16
S'170'
p351
ssI50
(dp352
g2
S'50'
p353
sg4
g5
sg6
S'1957'
p354
sg8
g9
sg10
S'Actor'
p355
sg12
S'Andrew_Dice_Clay'
p356
sg14
S'USA'
p357
sg16
S'180'
p358
ssI51
(dp359
g2
S'51'
p360
sg4
g5
sg6
S'1983'
p361
sg8
g9
sg10
S'Actor'
p362
sg12
S'Andrew_Garfield'
p363
sg14
S'USA'
p364
sg16
S'179'
p365
ssI52
(dp366
g2
S'52'
p367
sg4
g5
sg6
S'1979'
p368
sg8
g9
sg10
S'Actor'
p369
sg12
S'Andrew_Lee_Potts'
p370
sg14
S'UK'
p371
sg16
g17
ssI53
(dp372
g2
S'53'
p373
sg4
g5
sg6
S'1978'
p374
sg8
g9
sg10
S'Actor'
p375
sg12
S'Andrew_Rannells'
p376
sg14
S'USA'
p377
sg16
S'185'
p378
ssI54
(dp379
g2
S'54'
p380
sg4
g5
sg6
S'1976'
p381
sg8
g9
sg10
S'Actor'
p382
sg12
S'Andrew_Scott'
p383
sg14
S'Ireland'
p384
sg16
S'173'
p385
ssI55
(dp386
g2
S'55'
p387
sg4
g5
sg6
S'1966'
p388
sg8
g9
sg10
S'Actor'
p389
sg12
S'Andy_Richter'
p390
sg14
S'USA'
p391
sg16
S'188'
p392
ssI56
(dp393
g2
S'56'
p394
sg4
g5
sg6
S'1978'
p395
sg8
g9
sg10
S'Actor'
p396
sg12
S'Andy_Samberg'
p397
sg14
S'USA'
p398
sg16
S'177'
p399
ssI57
(dp400
g2
S'57'
p401
sg4
g5
sg6
S'1987'
p402
sg8
g9
sg10
S'Actor'
p403
sg12
S'Aneurin_Barnard'
p404
sg14
S'UK'
p405
sg16
S'175'
p406
ssI58
(dp407
g2
S'58'
p408
sg4
g5
sg6
S'1954'
p409
sg8
g9
sg10
S'Director'
p410
sg12
S'Ang_Lee'
p411
sg14
S'China'
p412
sg16
g17
ssI59
(dp413
g2
S'59'
p414
sg4
g5
sg6
S'1971'
p415
sg8
g47
sg10
S'Actor'
p416
sg12
S'Angela_Kinsey'
p417
sg14
S'USA'
p418
sg16
S'155'
p419
ssI60
(dp420
g2
S'60'
p421
sg4
g5
sg6
S'1982'
p422
sg8
g47
sg10
S'Actor'
p423
sg12
S'Anne_Hathaway'
p424
sg14
S'USA'
p425
sg16
S'173'
p426
ssI61
(dp427
g2
S'61'
p428
sg4
g5
sg6
S'1994'
p429
sg8
g9
sg10
S'Actor'
p430
sg12
S'Ansel_Elgort'
p431
sg14
S'USA'
p432
sg16
S'191'
p433
ssI62
(dp434
g2
S'62'
p435
sg4
g5
sg6
S'1970'
p436
sg8
g9
sg10
S'Actor'
p437
sg12
S'Anthony_Anderson'
p438
sg14
S'USA'
p439
sg16
S'178'
p440
ssI63
(dp441
g2
S'63'
p442
sg4
g5
sg6
S'1978'
p443
sg8
g9
sg10
S'Actor'
p444
sg12
S'Anthony_Mackie'
p445
sg14
S'USA'
p446
sg16
S'178'
p447
ssI64
(dp448
g2
S'64'
p449
sg4
g68
sg6
S'1971'
p450
sg8
g9
sg10
S'Actor'
p451
sg12
S'Anthony_Rapp'
p452
sg14
S'USA'
p453
sg16
S'173'
p454
ssI65
(dp455
g2
S'65'
p456
sg4
g5
sg6
S'1989'
p457
sg8
g9
sg10
S'Actor'
p458
sg12
S'Anton_Yelchin'
p459
sg14
S'Russia'
p460
sg16
S'175'
p461
ssI66
(dp462
g2
S'66'
p463
sg4
g5
sg6
S'1978'
p464
sg8
g9
sg10
S'Actor'
p465
sg12
S'Antonio_Cupo'
p466
sg14
S'Canada'
p467
sg16
S'185'
p468
ssI67
(dp469
g2
S'67'
p470
sg4
g5
sg6
S'1985'
p471
sg8
g47
sg10
S'Actor'
p472
sg12
S'Arden_Cho'
p473
sg14
S'USA'
p474
sg16
S'163'
p475
ssI68
(dp476
g2
S'68'
p477
sg4
g5
sg6
S'1949'
p478
sg8
g9
sg10
S'Actor'
p479
sg12
S'Armand_Assante'
p480
sg14
S'USA'
p481
sg16
S'178'
p482
ssI69
(dp483
g2
S'69'
p484
sg4
g5
sg6
S'1986'
p485
sg8
g9
sg10
S'Actor'
p486
sg12
S'Armie_Hammer'
p487
sg14
S'USA'
p488
sg16
S'196'
p489
ssI70
(dp490
g2
S'70'
p491
sg4
g5
sg6
S'1997'
p492
sg8
g9
sg10
S'Actor'
p493
sg12
S'Asa_Butterfield'
p494
sg14
S'UK'
p495
sg16
S'183'
p496
ssI71
(dp497
g2
S'71'
p498
sg4
g5
sg6
S'1987'
p499
sg8
g47
sg10
S'Actor'
p500
sg12
S'Ashley_Greene'
p501
sg14
S'USA'
p502
sg16
S'165'
p503
ssI72
(dp504
g2
S'72'
p505
sg4
g5
sg6
S'1969'
p506
sg8
g47
sg10
S'Actor'
p507
sg12
S'Ashley_Jensen'
p508
sg14
S'Scotland'
p509
sg16
g17
ssI73
(dp510
g2
S'73'
p511
sg4
g5
sg6
S'1970'
p512
sg8
g47
sg10
S'Actor'
p513
sg12
S'Audra_McDonald'
p514
sg14
S'Germany'
p515
sg16
g17
ssI74
(dp516
g2
S'74'
p517
sg4
g5
sg6
S'1985'
p518
sg8
g47
sg10
S'Actor'
p519
sg12
S'Audrina_Patridge'
p520
sg14
S'USA'
p521
sg16
S'171'
p522
ssI75
(dp523
g2
S'75'
p524
sg4
g5
sg6
S'1992'
p525
sg8
g9
sg10
S'Actor'
p526
sg12
S'Avan_Jogia'
p527
sg14
S'Canada'
p528
sg16
S'178'
p529
ssI76
(dp530
g2
S'76'
p531
sg4
g5
sg6
S'1979'
p532
sg8
g9
sg10
S'Actor'
p533
sg12
S'B.J._Novak'
p534
sg14
S'USA'
p535
sg16
S'174'
p536
ssI77
(dp537
g2
S'77'
p538
sg4
g5
sg6
S'1931'
p539
sg8
g47
sg10
S'Actor'
p540
sg12
S'Barbara_Eden'
p541
sg14
S'USA'
p542
sg16
S'162'
p543
ssI78
(dp544
g2
S'78'
p545
sg4
g5
sg6
S'1948'
p546
sg8
g47
sg10
S'Actor'
p547
sg12
S'Barbara_Hershey'
p548
sg14
S'USA'
p549
sg16
g17
ssI79
(dp550
g2
S'79'
p551
sg4
g5
sg6
S'1974'
p552
sg8
g9
sg10
S'Activist'
p553
sg12
S'Bear_Grylls'
p554
sg14
S'UK'
p555
sg16
S'182'
p556
ssI80
(dp557
g2
S'80'
p558
sg4
g5
sg6
S'1970'
p559
sg8
g47
sg10
S'Actor'
p560
sg12
S'Bellamy_Young'
p561
sg14
S'USA'
p562
sg16
S'170'
p563
ssI81
(dp564
g2
S'81'
p565
sg4
g5
sg6
S'1980'
p566
sg8
g9
sg10
S'Actor'
p567
sg12
S'Ben_Feldman'
p568
sg14
S'USA'
p569
sg16
S'173'
p570
ssI82
(dp571
g2
S'82'
p572
sg4
g5
sg6
S'1978'
p573
sg8
g9
sg10
S'Actor'
p574
sg12
S'Ben_McKenzie'
p575
sg14
S'USA'
p576
sg16
S'173'
p577
ssI83
(dp578
g2
S'83'
p579
sg4
g5
sg6
S'1965'
p580
sg8
g9
sg10
S'Actor'
p581
sg12
S'Ben_Stiller'
p582
sg14
S'USA'
p583
sg16
S'170'
p584
ssI84
(dp585
g2
S'84'
p586
sg4
g68
sg6
S'1980'
p587
sg8
g9
sg10
S'Actor'
p588
sg12
S'Ben_Whishaw'
p589
sg14
S'UK'
p590
sg16
S'175'
p591
ssI85
(dp592
g2
S'85'
p593
sg4
g5
sg6
S'1949'
p594
sg8
g47
sg10
S'Actor'
p595
sg12
S'Beth_Grant'
p596
sg14
S'USA'
p597
sg16
g17
ssI86
(dp598
g2
S'86'
p599
sg4
g5
sg6
S'1995'
p600
sg8
g47
sg10
S'Actor'
p601
sg12
S'Bethany_Mota'
p602
sg14
S'USA'
p603
sg16
S'163'
p604
ssI87
(dp605
g2
S'87'
p606
sg4
g5
sg6
S'1922'
p607
sg8
g47
sg10
S'Actor'
p608
sg12
S'Betty_White'
p609
sg14
S'USA'
p610
sg16
S'163'
p611
ssI88
(dp612
g2
S'88'
p613
sg4
g5
sg6
S'1949'
p614
sg8
g9
sg10
S'Actor'
p615
sg12
S'Bill_Nighy'
p616
sg14
S'UK'
p617
sg16
S'188'
p618
ssI89
(dp619
g2
S'89'
p620
sg4
g5
sg6
S'1953'
p621
sg8
g9
sg10
S'Actor'
p622
sg12
S'Bill_Pullman'
p623
sg14
S'USA'
p624
sg16
S'187'
p625
ssI90
(dp626
g2
S'90'
p627
sg4
g5
sg6
S'1972'
p628
sg8
g9
sg10
S'Musician'
p629
sg12
S'Billie_Joe_Armstrong'
p630
sg14
S'USA'
p631
sg16
S'170'
p632
ssI91
(dp633
g2
S'91'
p634
sg4
g5
sg6
S'1973'
p635
sg8
g47
sg10
S'Actor'
p636
sg12
S'Bingbing_Li'
p637
sg14
S'China'
p638
sg16
S'165'
p639
ssI92
(dp640
g2
S'92'
p641
sg4
g5
sg6
S'1964'
p642
sg8
g9
sg10
S'Actor'
p643
sg12
S'Blair_Underwood'
p644
sg14
S'USA'
p645
sg16
S'180'
p646
ssI93
(dp647
g2
S'93'
p648
sg4
g5
sg6
S'1996'
p649
sg8
g9
sg10
S'Actor'
p650
sg12
S'Blake_Michael'
p651
sg14
S'USA'
p652
sg16
g17
ssI94
(dp653
g2
S'94'
p654
sg4
g5
sg6
S'1976'
p655
sg8
g9
sg10
S'Musician'
p656
sg12
S'Blake_Shelton'
p657
sg14
S'USA'
p658
sg16
S'196'
p659
ssI95
(dp660
g2
S'95'
p661
sg4
g5
sg6
S'1923'
p662
sg8
g9
sg10
S'Anchor'
p663
sg12
S'Bob_Barker'
p664
sg14
S'USA'
p665
sg16
S'185'
p666
ssI96
(dp667
g2
S'96'
p668
sg4
g5
sg6
S'1970'
p669
sg8
g9
sg10
S'Actor'
p670
sg12
S'Bobby_Cannavale'
p671
sg14
S'USA'
p672
sg16
S'188'
p673
ssI97
(dp674
g2
S'97'
p675
sg4
g5
sg6
S'1991'
p676
sg8
g47
sg10
S'Actor'
p677
sg12
S'Bonnie_Wright'
p678
sg14
S'UK'
p679
sg16
S'168'
p680
ssI98
(dp681
g2
S'98'
p682
sg4
g5
sg6
S'1994'
p683
sg8
g9
sg10
S'Actor'
p684
sg12
S'Booboo_Stewart'
p685
sg14
S'USA'
p686
sg16
S'173'
p687
ssI99
(dp688
g2
S'99'
p689
sg4
g5
sg6
S'1972'
p690
sg8
g9
sg10
S'Musician'
p691
sg12
S'Brad_Paisley'
p692
sg14
S'USA'
p693
sg16
g17
ssI100
(dp694
g2
S'100'
p695
sg4
g5
sg6
S'1998'
p696
sg8
g9
sg10
S'Actor'
p697
sg12
S'Bradley_Steven_Perry'
p698
sg14
S'USA'
p699
sg16
S'170'
p700
ssI101
(dp701
g2
S'101'
p702
sg4
g5
sg6
S'1974'
p703
sg8
g9
sg10
S'Actor'
p704
sg12
S'Breckin_Meyer'
p705
sg14
S'USA'
p706
sg16
S'165'
p707
ssI102
(dp708
g2
S'102'
p709
sg4
g5
sg6
S'1946'
p710
sg8
g47
sg10
S'Actor'
p711
sg12
S'Brenda_Blethyn'
p712
sg14
S'UK'
p713
sg16
g17
ssI103
(dp714
g2
S'103'
p715
sg4
g68
sg6
S'1955'
p716
sg8
g9
sg10
S'Actor'
p717
sg12
S'Brendan_Gleeson'
p718
sg14
S'Ireland'
p719
sg16
S'188'
p720
ssI104
(dp721
g2
S'104'
p722
sg4
g68
sg6
S'1992'
p723
sg8
g9
sg10
S'Actor'
p724
sg12
S'Brett_Davern'
p725
sg14
S'USA'
p726
sg16
S'175'
p727
ssI105
(dp728
g2
S'105'
p729
sg4
g68
sg6
S'1936'
p730
sg8
g9
sg10
S'Actor'
p731
sg12
S'Brian_Blessed'
p732
sg14
S'UK'
p733
sg16
S'175'
p734
ssI106
(dp735
g2
S'106'
p736
sg4
g68
sg6
S'1946'
p737
sg8
g9
sg10
S'Actor'
p738
sg12
S'Brian_Cox'
p739
sg14
S'UK'
p740
sg16
S'176'
p741
ssI107
(dp742
g2
S'107'
p743
sg4
g68
sg6
S'1938'
p744
sg8
g9
sg10
S'Actor'
p745
sg12
S'Brian_Dennehy'
p746
sg14
S'USA'
p747
sg16
S'190'
p748
ssI108
(dp749
g2
S'108'
p750
sg4
g68
sg6
S'1971'
p751
sg8
g47
sg10
S'Actor'
p752
sg12
S'Bridget_Moynahan'
p753
sg14
S'USA'
p754
sg16
S'177'
p755
ssI109
(dp756
g2
S'109'
p757
sg4
g68
sg6
S'1982'
p758
sg8
g47
sg10
S'Actor'
p759
sg12
S'Bridget_Regan'
p760
sg14
S'USA'
p761
sg16
S'175'
p762
ssI110
(dp763
g2
S'110'
p764
sg4
g68
sg6
S'1982'
p765
sg8
g47
sg10
S'Actor'
p766
sg12
S'Brit_Marling'
p767
sg14
S'USA'
p768
sg16
S'170'
p769
ssI111
(dp770
g2
S'111'
p771
sg4
g68
sg6
S'1971'
p772
sg8
g47
sg10
S'Actor'
p773
sg12
S'Brooke_Burke-Charvet'
p774
sg14
S'USA'
p775
sg16
S'170'
p776
ssI112
(dp777
g2
S'112'
p778
sg4
g68
sg6
S'1950'
p779
sg8
g9
sg10
S'Actor'
p780
sg12
S'Bruce_Boxleitner'
p781
sg14
S'USA'
p782
sg16
g17
ssI113
(dp783
g2
S'113'
p784
sg4
g68
sg6
S'1941'
p785
sg8
g9
sg10
S'Actor'
p786
sg12
S'Bruno_Ganz'
p787
sg14
S'Switzerland'
p788
sg16
S'168'
p789
ssI114
(dp790
g2
S'114'
p791
sg4
g68
sg6
S'1985'
p792
sg8
g9
sg10
S'Musician'
p793
sg12
S'Bruno_Mars'
p794
sg14
S'USA'
p795
sg16
S'165'
p796
ssI115
(dp797
g2
S'115'
p798
sg4
g68
sg6
S'1936'
p799
sg8
g9
sg10
S'Actor'
p800
sg12
S'Burt_Reynolds'
p801
sg14
S'USA'
p802
sg16
S'180'
p803
ssI116
(dp804
g2
S'116'
p805
sg4
g68
sg6
S'1952'
p806
sg8
g47
sg10
S'Actor'
p807
sg12
S'CCH_Pounder'
p808
sg14
S'USA'
p809
sg16
g17
ssI117
(dp810
g2
S'117'
p811
sg4
g68
sg6
S'1979'
p812
sg8
g47
sg10
S'Actor'
p813
sg12
S'Caitriona_Balfe'
p814
sg14
S'Ireland'
p815
sg16
S'177'
p816
ssI118
(dp817
g2
S'118'
p818
sg4
g68
sg6
S'1986'
p819
sg8
g47
sg10
S'Actor'
p820
sg12
S'Caity_Lotz'
p821
sg14
S'USA'
p822
sg16
S'168'
p823
ssI119
(dp824
g2
S'119'
p825
sg4
g68
sg6
S'1995'
p826
sg8
g9
sg10
S'Actor'
p827
sg12
S'Callan_McAuliffe'
p828
sg14
S'Austrailia'
p829
sg16
S'178'
p830
ssI120
(dp831
g2
S'120'
p832
sg4
g68
sg6
S'1969'
p833
sg8
g47
sg10
S'Actor'
p834
sg12
S'Callie_Thorne'
p835
sg14
S'USA'
p836
sg16
g17
ssI121
(dp837
g2
S'121'
p838
sg4
g68
sg6
S'1999'
p839
sg8
g9
sg10
S'Actor'
p840
sg12
S'Cameron_Boyce'
p841
sg14
S'USA'
p842
sg16
S'168'
p843
ssI122
(dp844
g2
S'122'
p845
sg4
g68
sg6
S'1976'
p846
sg8
g47
sg10
S'Actor'
p847
sg12
S'Candace_Cameron_Bure'
p848
sg14
S'USA'
p849
sg16
S'157'
p850
ssI123
(dp851
g2
S'123'
p852
sg4
g68
sg6
S'1987'
p853
sg8
g47
sg10
S'Actor'
p854
sg12
S'Candice_Accola'
p855
sg14
S'USA'
p856
sg16
S'173'
p857
ssI124
(dp858
g2
S'124'
p859
sg4
g68
sg6
S'1988'
p860
sg8
g47
sg10
S'Actor'
p861
sg12
S'Candice_Patton'
p862
sg14
S'USA'
p863
sg16
g17
ssI125
(dp864
g2
S'125'
p865
sg4
g68
sg6
S'1964'
p866
sg8
g47
sg10
S'Actor'
p867
sg12
S'Caroline_Rhea'
p868
sg14
S'Canada'
p869
sg16
g17
ssI126
(dp870
g2
S'126'
p871
sg4
g68
sg6
S'1962'
p872
sg8
g47
sg10
S'Actor'
p873
sg12
S'Carolyn_Hennesy'
p874
sg14
S'USA'
p875
sg16
g17
ssI127
(dp876
g2
S'127'
p877
sg4
g68
sg6
S'1968'
p878
sg8
g47
sg10
S'Actor'
p879
sg12
S'Carrie_Ann_Inaba'
p880
sg14
S'USA'
p881
sg16
g17
ssI128
(dp882
g2
S'128'
p883
sg4
g68
sg6
S'1956'
p884
sg8
g47
sg10
S'Actor'
p885
sg12
S'Carrie_Fisher'
p886
sg14
S'USA'
p887
sg16
S'155'
p888
ssI129
(dp889
g2
S'129'
p890
sg4
g68
sg6
S'1983'
p891
sg8
g47
sg10
S'Musician'
p892
sg12
S'Carrie_Underwood'
p893
sg14
S'USA'
p894
sg16
S'160'
p895
ssI130
(dp896
g2
S'130'
p897
sg4
g68
sg6
S'1975'
p898
sg8
g9
sg10
S'Actor'
p899
sg12
S'Casey_Affleck'
p900
sg14
S'USA'
p901
sg16
S'175'
p902
ssI131
(dp903
g2
S'131'
p904
sg4
g68
sg6
S'1980'
p905
sg8
g47
sg10
S'Actor'
p906
sg12
S'Casey_Wilson'
p907
sg14
S'USA'
p908
sg16
g17
ssI132
(dp909
g2
S'132'
p910
sg4
g68
sg6
S'1951'
p911
sg8
g47
sg10
S'Actor'
p912
sg12
S'Cassandra_Peterson'
p913
sg14
S'USA'
p914
sg16
S'170'
p915
ssI133
(dp916
g2
S'133'
p917
sg4
g68
sg6
S'1977'
p918
sg8
g47
sg10
S'Actor'
p919
sg12
S'Caterina_Murino'
p920
sg14
S'Italy'
p921
sg16
g17
ssI134
(dp922
g2
S'134'
p923
sg4
g68
sg6
S'1981'
p924
sg8
g47
sg10
S'Actor'
p925
sg12
S'Caterina_Scorsone'
p926
sg14
S'Canada'
p927
sg16
S'162'
p928
ssI135
(dp929
g2
S'135'
p930
sg4
g68
sg6
S'1955'
p931
sg8
g47
sg10
S'Director'
p932
sg12
S'Catherine_Hardwicke'
p933
sg14
S'USA'
p934
sg16
g17
ssI136
(dp935
g2
S'136'
p936
sg4
g68
sg6
S'1964'
p937
sg8
g9
sg10
S'Actor'
p938
sg12
S'Cedric_the_Entertainer'
p939
sg14
S'USA'
p940
sg16
g17
ssI137
(dp941
g2
S'137'
p942
sg4
g68
sg6
S'1952'
p943
sg8
g47
sg10
S'Actor'
p944
sg12
S'Celia_Imrie'
p945
sg14
S'UK'
p946
sg16
g17
ssI138
(dp947
g2
S'138'
p948
sg4
g68
sg6
S'1985'
p949
sg8
g9
sg10
S'Actor'
p950
sg12
S'Chace_Crawford'
p951
sg14
S'USA'
p952
sg16
S'183'
p953
ssI139
(dp954
g2
S'139'
p955
sg4
g68
sg6
S'1976'
p956
sg8
g9
sg10
S'Actor'
p957
sg12
S'Chadwick_Boseman'
p958
sg14
S'USA'
p959
sg16
S'183'
p960
ssI140
(dp961
g2
S'140'
p962
sg4
g68
sg6
S'1992'
p963
sg8
g47
sg10
S'Musician'
p964
sg12
S'Charice'
p965
sg14
S'Philippines '
p966
sg16
S'155'
p967
ssI141
(dp968
g2
S'141'
p969
sg4
g68
sg6
S'1946'
p970
sg8
g9
sg10
S'Actor'
p971
sg12
S'Charles_Dance'
p972
sg14
S'UK'
p973
sg16
S'191'
p974
ssI142
(dp975
g2
S'142'
p976
sg4
g68
sg6
S'1951'
p977
sg8
g9
sg10
S'Actor'
p978
sg12
S'Charles_S._Dutton'
p979
sg14
S'USA'
p980
sg16
S'179'
p981
ssI143
(dp982
g2
S'143'
p983
sg4
g68
sg6
S'1976'
p984
sg8
g9
sg10
S'Actor'
p985
sg12
S'Charlie_Day'
p986
sg14
S'USA'
p987
sg16
S'170'
p988
ssI144
(dp989
g2
S'144'
p990
sg4
g68
sg6
S'1971'
p991
sg8
g47
sg10
S'Actor'
p992
sg12
S'Charlotte_Gainsbourg'
p993
sg14
S'UK'
p994
sg16
g17
ssI145
(dp995
g2
S'145'
p996
sg4
g68
sg6
S'1952'
p997
sg8
g9
sg10
S'Actor'
p998
sg12
S'Chazz_Palminteri'
p999
sg14
S'USA'
p1000
sg16
S'191'
p1001
ssI146
(dp1002
g2
S'146'
p1003
sg4
g68
sg6
S'1975'
p1004
sg8
g47
sg10
S'Actor'
p1005
sg12
S'Chelsea_Handler'
p1006
sg14
S'USA'
p1007
sg16
S'168'
p1008
ssI147
(dp1009
g2
S'147'
p1010
sg4
g68
sg6
S'1946'
p1011
sg8
g47
sg10
S'Musician'
p1012
sg12
S'Cher'
p1013
sg14
S'USA'
p1014
sg16
S'174'
p1015
ssI148
(dp1016
g2
S'148'
p1017
sg4
g68
sg6
S'1951'
p1018
sg8
g47
sg10
S'Actor'
p1019
sg12
S'Cheryl_Ladd'
p1020
sg14
S'USA'
p1021
sg16
S'163'
p1022
ssI149
(dp1023
g2
S'149'
p1024
sg4
g68
sg6
S'1961'
p1025
sg8
g9
sg10
S'Actor'
p1026
sg12
S'Chi_McBride'
p1027
sg14
S'USA'
p1028
sg16
S'194'
p1029
ssI150
(dp1030
g2
S'150'
p1031
sg4
g68
sg6
S'1977'
p1032
sg8
g9
sg10
S'Actor'
p1033
sg12
S'Chiwetel_Ejiofor'
p1034
sg14
S'UK'
p1035
sg16
S'178'
p1036
ssI151
(dp1037
g2
S'151'
p1038
sg4
g68
sg6
S'1992'
p1039
sg8
g47
sg10
S'Actor'
p1040
sg12
S'Chloe_Bennet'
p1041
sg14
S'USA'
p1042
sg16
S'167'
p1043
ssI152
(dp1044
g2
S'152'
p1045
sg4
g68
sg6
S'1988'
p1046
sg8
g47
sg10
S'Actor'
p1047
sg12
S'Chloe_Dykstra'
p1048
sg14
S'USA'
p1049
sg16
g17
ssI153
(dp1050
g2
S'153'
p1051
sg4
g68
sg6
S'1990'
p1052
sg8
g9
sg10
S'Actor'
p1053
sg12
S'Chris_Colfer'
p1054
sg14
S'USA'
p1055
sg16
S'179'
p1056
ssI154
(dp1057
g2
S'154'
p1058
sg4
g68
sg6
S'1983'
p1059
sg8
g9
sg10
S'Actor'
p1060
sg12
S'Chris_Hemsworth'
p1061
sg14
S'Austrailia'
p1062
sg16
S'190'
p1063
ssI155
(dp1064
g2
S'155'
p1065
sg4
g68
sg6
S'1984'
p1066
sg8
g9
sg10
S'Actor'
p1067
sg12
S'Chris_Lowell'
p1068
sg14
S'USA'
p1069
sg16
g17
ssI156
(dp1070
g2
S'156'
p1071
sg4
g68
sg6
S'1977'
p1072
sg8
g9
sg10
S'Musician'
p1073
sg12
S'Chris_Martin'
p1074
sg14
S'UK'
p1075
sg16
S'186'
p1076
ssI157
(dp1077
g2
S'157'
p1078
sg4
g68
sg6
S'1974'
p1079
sg8
g9
sg10
S'Actor'
p1080
sg12
S'Chris_Messina'
p1081
sg14
S'USA'
p1082
sg16
S'175'
p1083
ssI158
(dp1084
g2
S'158'
p1085
sg4
g68
sg6
S'1980'
p1086
sg8
g9
sg10
S'Actor'
p1087
sg12
S'Chris_Pine'
p1088
sg14
S'USA'
p1089
sg16
S'183'
p1090
ssI159
(dp1091
g2
S'159'
p1092
sg4
g68
sg6
S'1972'
p1093
sg8
g9
sg10
S'Actor'
p1094
sg12
S'Christian_Kane'
p1095
sg14
S'USA'
p1096
sg16
S'174'
p1097
ssI160
(dp1098
g2
S'160'
p1099
sg4
g68
sg6
S'1975'
p1100
sg8
g47
sg10
S'Actor'
p1101
sg12
S'Christina_Hendricks'
p1102
sg14
S'USA'
p1103
sg16
S'171'
p1104
ssI161
(dp1105
g2
S'161'
p1106
sg4
g68
sg6
S'1980'
p1107
sg8
g47
sg10
S'Actor'
p1108
sg12
S'Christina_Ricci'
p1109
sg14
S'USA'
p1110
sg16
S'155'
p1111
ssI162
(dp1112
g2
S'162'
p1113
sg4
g68
sg6
S'1989'
p1114
sg8
g9
sg10
S'Actor'
p1115
sg12
S'Christopher_Mintz-Plasse'
p1116
sg14
S'USA'
p1117
sg16
S'173'
p1118
ssI163
(dp1119
g2
S'163'
p1120
sg4
g68
sg6
S'1995'
p1121
sg8
g47
sg10
S'Actor'
p1122
sg12
S'Cierra_Ramirez'
p1123
sg14
S'USA'
p1124
sg16
S'155'
p1125
ssI164
(dp1126
g2
S'164'
p1127
sg4
g68
sg6
S'1943'
p1128
sg8
g47
sg10
S'Musician'
p1129
sg12
S'Cilla_Black'
p1130
sg14
S'UK'
p1131
sg16
g17
ssI165
(dp1132
g2
S'165'
p1133
sg4
g68
sg6
S'1976'
p1134
sg8
g9
sg10
S'Actor'
p1135
sg12
S'Cillian_Murphy'
p1136
sg14
S'Ireland'
p1137
sg16
S'175'
p1138
ssI166
(dp1139
g2
S'166'
p1140
sg4
g68
sg6
S'1947'
p1141
sg8
g47
sg10
S'Actor'
p1142
sg12
S'Cindy_Williams'
p1143
sg14
S'USA'
p1144
sg16
S'163'
p1145
ssI167
(dp1146
g2
S'167'
p1147
sg4
g68
sg6
S'1972'
p1148
sg8
g47
sg10
S'Actor'
p1149
sg12
S'Claudia_Black'
p1150
sg14
S'Austrailia'
p1151
sg16
g17
ssI168
(dp1152
g2
S'168'
p1153
sg4
g5
sg6
S'1996'
p1154
sg8
g47
sg10
S'Actor'
p1155
sg12
S'Claudia_Lee'
p1156
sg14
S'USA'
p1157
sg16
S'168'
p1158
ssI169
(dp1159
g2
S'169'
p1160
sg4
g68
sg6
S'1968'
p1161
sg8
g9
sg10
S'Actor'
p1162
sg12
S'Cliff_Curtis'
p1163
sg14
S'New Zealand '
p1164
sg16
S'184'
p1165
ssI170
(dp1166
g2
S'170'
p1167
sg4
g68
sg6
S'1964'
p1168
sg8
g9
sg10
S'Actor'
p1169
sg12
S'Clive_Owen'
p1170
sg14
S'UK'
p1171
sg16
S'189'
p1172
ssI171
(dp1173
g2
S'171'
p1174
sg4
g68
sg6
S'1982'
p1175
sg8
g9
sg10
S'Actor'
p1176
sg12
S'Colin_Donnell'
p1177
sg14
S'USA'
p1178
sg16
S'179'
p1179
ssI172
(dp1180
g2
S'172'
p1181
sg4
g68
sg6
S'1970'
p1182
sg8
g47
sg10
S'Actor'
p1183
sg12
S'Constance_Zimmer'
p1184
sg14
S'USA'
p1185
sg16
g17
ssI173
(dp1186
g2
S'173'
p1187
sg4
g68
sg6
S'1989'
p1188
sg8
g9
sg10
S'Actor'
p1189
sg12
S'Corbin_Bleu'
p1190
sg14
S'USA'
p1191
sg16
S'174'
p1192
ssI174
(dp1193
g2
S'174'
p1194
sg4
g68
sg6
S'1976'
p1195
sg8
g9
sg10
S'Actor'
p1196
sg12
S'Corey_Stoll'
p1197
sg14
S'USA'
p1198
sg16
S'187'
p1199
ssI175
(dp1200
g2
S'175'
p1201
sg4
g68
sg6
S'1982'
p1202
sg8
g9
sg10
S'Actor'
p1203
sg12
S'Cory_Monteith'
p1204
sg14
S'Canada'
p1205
sg16
S'192'
p1206
ssI176
(dp1207
g2
S'176'
p1208
sg4
g68
sg6
S'1965'
p1209
sg8
g9
sg10
S'Actor'
p1210
sg12
S'Costas_Mandylor'
p1211
sg14
S'Austrailia'
p1212
sg16
g17
ssI177
(dp1213
g2
S'177'
p1214
sg4
g68
sg6
S'1979'
p1215
sg8
g47
sg10
S'Actor'
p1216
sg12
S'Cote_de_Pablo'
p1217
sg14
S'USA'
p1218
sg16
S'169'
p1219
ssI178
(dp1220
g2
S'178'
p1221
sg4
g68
sg6
S'1985'
p1222
sg8
g47
sg10
S'Actor'
p1223
sg12
S'Cristin_Milioti'
p1224
sg14
S'USA'
p1225
sg16
S'158'
p1226
ssI179
(dp1227
g2
S'179'
p1228
sg4
g68
sg6
S'1953'
p1229
sg8
g47
sg10
S'Musician'
p1230
sg12
S'Cyndi_Lauper'
p1231
sg14
S'USA'
p1232
sg16
S'160'
p1233
ssI180
(dp1234
g2
S'180'
p1235
sg4
g68
sg6
S'1994'
p1236
sg8
g47
sg10
S'Actor'
p1237
sg12
S'Dakota_Fanning'
p1238
sg14
S'USA'
p1239
sg16
S'163'
p1240
ssI181
(dp1241
g2
S'181'
p1242
sg4
g68
sg6
S'1971'
p1243
sg8
g9
sg10
S'Actor'
p1244
sg12
S'Damian_Lewis'
p1245
sg14
S'UK'
p1246
sg16
S'185'
p1247
ssI182
(dp1248
g2
S'182'
p1249
sg4
g68
sg6
S'1973'
p1250
sg8
g9
sg10
S'Writer'
p1251
sg12
S'Damon_Lindelof'
p1252
sg14
S'USA'
p1253
sg16
g17
ssI183
(dp1254
g2
S'183'
p1255
sg4
g68
sg6
S'1960'
p1256
sg8
g9
sg10
S'Actor'
p1257
sg12
S'Damon_Wayans'
p1258
sg14
S'USA'
p1259
sg16
S'188'
p1260
ssI184
(dp1261
g2
S'184'
p1262
sg4
g68
sg6
S'1952'
p1263
sg8
g9
sg10
S'Actor'
p1264
sg12
S'Dan_Aykroyd'
p1265
sg14
S'Canada'
p1266
sg16
S'185'
p1267
ssI185
(dp1268
g2
S'185'
p1269
sg4
g68
sg6
S'1976'
p1270
sg8
g9
sg10
S'Actor'
p1271
sg12
S'Dan_Fogler'
p1272
sg14
S'USA'
p1273
sg16
S'170'
p1274
ssI186
(dp1275
g2
S'186'
p1276
sg4
g68
sg6
S'1982'
p1277
sg8
g9
sg10
S'Actor'
p1278
sg12
S'Dan_Stevens'
p1279
sg14
S'UK'
p1280
sg16
S'183'
p1281
ssI187
(dp1282
g2
S'187'
p1283
sg4
g68
sg6
S'1956'
p1284
sg8
g47
sg10
S'Actor'
p1285
sg12
S'Dana_Delany'
p1286
sg14
S'USA'
p1287
sg16
S'167'
p1288
ssI188
(dp1289
g2
S'188'
p1290
sg4
g68
sg6
S'1972'
p1291
sg8
g9
sg10
S'Actor'
p1292
sg12
S'Dane_Cook'
p1293
sg14
S'USA'
p1294
sg16
S'183'
p1295
ssI189
(dp1296
g2
S'189'
p1297
sg4
g5
sg6
S'1975'
p1298
sg8
g47
sg10
S'Actor'
p1299
sg12
S'Danica_McKellar'
p1300
sg14
S'USA'
p1301
sg16
S'163'
p1302
ssI190
(dp1303
g2
S'190'
p1304
sg4
g68
sg6
S'1950'
p1305
sg8
g9
sg10
S'Actor'
p1306
sg12
S'Daniel_Auteuil'
p1307
sg14
S'France'
p1308
sg16
S'170'
p1309
ssI191
(dp1310
g2
S'191'
p1311
sg4
g68
sg6
S'1968'
p1312
sg8
g9
sg10
S'Actor'
p1313
sg12
S'Daniel_Craig'
p1314
sg14
S'UK'
p1315
sg16
S'178'
p1316
ssI192
(dp1317
g2
S'192'
p1318
sg4
g68
sg6
S'1968'
p1319
sg8
g9
sg10
S'Actor'
p1320
sg12
S'Daniel_Dae_Kim'
p1321
sg14
S'Korea'
p1322
sg16
S'175'
p1323
ssI193
(dp1324
g2
S'193'
p1325
sg4
g68
sg6
S'1975'
p1326
sg8
g9
sg10
S'Actor'
p1327
sg12
S'Daniel_Tosh'
p1328
sg14
S'Germany'
p1329
sg16
S'191'
p1330
ssI194
(dp1331
g2
S'194'
p1332
sg4
g68
sg6
S'1995'
p1333
sg8
g47
sg10
S'Actor'
p1334
sg12
S'Danielle_Campbell'
p1335
sg14
S'USA'
p1336
sg16
S'160'
p1337
ssI195
(dp1338
g2
S'195'
p1339
sg4
g68
sg6
S'1987'
p1340
sg8
g47
sg10
S'Actor'
p1341
sg12
S'Danielle_Panabaker'
p1342
sg14
S'USA'
p1343
sg16
S'168'
p1344
ssI196
(dp1345
g2
S'196'
p1346
sg4
g68
sg6
S'1977'
p1347
sg8
g9
sg10
S'Actor'
p1348
sg12
S'Danny_Dyer'
p1349
sg14
S'UK'
p1350
sg16
S'183'
p1351
ssI197
(dp1352
g2
S'197'
p1353
sg4
g68
sg6
S'1976'
p1354
sg8
g9
sg10
S'Actor'
p1355
sg12
S'Danny_McBride'
p1356
sg14
S'USA'
p1357
sg16
S'178'
p1358
ssI198
(dp1359
g2
S'198'
p1360
sg4
g68
sg6
S'1974'
p1361
sg8
g9
sg10
S'Actor'
p1362
sg12
S'Danny_Pino'
p1363
sg14
S'USA'
p1364
sg16
S'183'
p1365
ssI199
(dp1366
g2
S'199'
p1367
sg4
g68
sg6
S'1987'
p1368
sg8
g9
sg10
S'Actor'
p1369
sg12
S'Darren_Criss'
p1370
sg14
S'USA'
p1371
sg16
S'173'
p1372
ssI200
(dp1373
g2
S'200'
p1374
sg4
g68
sg6
S'1969'
p1375
sg8
g9
sg10
S'Actor'
p1376
sg12
S'Dave_Bautista'
p1377
sg14
S'USA'
p1378
sg16
S'190'
p1379
ssI201
(dp1380
g2
S'201'
p1381
sg4
g68
sg6
S'1963'
p1382
sg8
g9
sg10
S'Actor'
p1383
sg12
S'Dave_Foley'
p1384
sg14
S'Canada'
p1385
sg16
g17
ssI202
(dp1386
g2
S'202'
p1387
sg4
g68
sg6
S'1926'
p1388
sg8
g9
sg10
S'Broadcaster '
p1389
sg12
S'David_Attenborough'
p1390
sg14
S'UK'
p1391
sg16
g17
ssI203
(dp1392
g2
S'203'
p1393
sg4
g68
sg6
S'1950'
p1394
sg8
g9
sg10
S'Actor'
p1395
sg12
S'David_Cassidy'
p1396
sg14
S'USA'
p1397
sg16
g17
ssI204
(dp1398
g2
S'204'
p1399
sg4
g68
sg6
S'1974'
p1400
sg8
g9
sg10
S'Actor'
p1401
sg12
S'David_Faustino'
p1402
sg14
S'USA'
p1403
sg16
S'160'
p1404
ssI205
(dp1405
g2
S'205'
p1406
sg4
g68
sg6
S'1980'
p1407
sg8
g9
sg10
S'Actor'
p1408
sg12
S'David_Giuntoli'
p1409
sg14
S'USA'
p1410
sg16
S'180'
p1411
ssI206
(dp1412
g2
S'206'
p1413
sg4
g68
sg6
S'1965'
p1414
sg8
g9
sg10
S'Actor'
p1415
sg12
S'David_Harewood'
p1416
sg14
S'UK'
p1417
sg16
S'183'
p1418
ssI207
(dp1419
g2
S'207'
p1420
sg4
g68
sg6
S'1989'
p1421
sg8
g9
sg10
S'Actor'
p1422
sg12
S'David_Henrie'
p1423
sg14
S'USA'
p1424
sg16
S'180'
p1425
ssI208
(dp1426
g2
S'208'
p1427
sg4
g68
sg6
S'1940'
p1428
sg8
g9
sg10
S'Actor'
p1429
sg12
S'David_Jason'
p1430
sg14
S'UK'
p1431
sg16
S'168'
p1432
ssI209
(dp1433
g2
S'209'
p1434
sg4
g68
sg6
S'1962'
p1435
sg8
g9
sg10
S'Actor'
p1436
sg12
S'David_Koechner'
p1437
sg14
S'USA'
p1438
sg16
S'188'
p1439
ssI210
(dp1440
g2
S'210'
p1441
sg4
g68
sg6
S'1990'
p1442
sg8
g9
sg10
S'Actor'
p1443
sg12
S'David_Kross'
p1444
sg14
S'Germany'
p1445
sg16
S'181'
p1446
ssI211
(dp1447
g2
S'211'
p1448
sg4
g68
sg6
S'1947'
p1449
sg8
g9
sg10
S'Comedian'
p1450
sg12
S'David_Letterman'
p1451
sg14
S'USA'
p1452
sg16
S'188'
p1453
ssI212
(dp1454
g2
S'212'
p1455
sg4
g68
sg6
S'1976'
p1456
sg8
g9
sg10
S'Actor'
p1457
sg12
S'David_Lyons'
p1458
sg14
S'Austrailia'
p1459
sg16
g17
ssI213
(dp1460
g2
S'213'
p1461
sg4
g68
sg6
S'1947'
p1462
sg8
g9
sg10
S'Writer'
p1463
sg12
S'David_Mamet'
p1464
sg14
S'USA'
p1465
sg16
g17
ssI214
(dp1466
g2
S'214'
p1467
sg4
g68
sg6
S'2001'
p1468
sg8
g9
sg10
S'Actor'
p1469
sg12
S'David_Mazouz'
p1470
sg14
S'USA'
p1471
sg16
S'173'
p1472
ssI215
(dp1473
g2
S'215'
p1474
sg4
g68
sg6
S'1964'
p1475
sg8
g9
sg10
S'Actor'
p1476
sg12
S'David_Morrissey'
p1477
sg14
S'UK'
p1478
sg16
S'191'
p1479
ssI216
(dp1480
g2
S'216'
p1481
sg4
g5
sg6
S'1953'
p1482
sg8
g9
sg10
S'Actor'
p1483
sg12
S'David_Morse'
p1484
sg14
S'USA'
p1485
sg16
S'193'
p1486
ssI217
(dp1487
g2
S'217'
p1488
sg4
g68
sg6
S'1976'
p1489
sg8
g9
sg10
S'Actor'
p1490
sg12
S'David_Oyelowo'
p1491
sg14
S'UK'
p1492
sg16
S'175'
p1493
ssI218
(dp1494
g2
S'218'
p1495
sg4
g68
sg6
S'1966'
p1496
sg8
g9
sg10
S'Actor'
p1497
sg12
S'David_Schwimmer'
p1498
sg14
S'USA'
p1499
sg16
S'185'
p1500
ssI219
(dp1501
g2
S'219'
p1502
sg4
g68
sg6
S'1946'
p1503
sg8
g9
sg10
S'Actor'
p1504
sg12
S'David_Suchet'
p1505
sg14
S'UK'
p1506
sg16
S'170'
p1507
ssI220
(dp1508
g2
S'220'
p1509
sg4
g68
sg6
S'1971'
p1510
sg8
g9
sg10
S'Actor'
p1511
sg12
S'David_Tennant'
p1512
sg14
S'UK'
p1513
sg16
S'185'
p1514
ssI221
(dp1515
g2
S'221'
p1516
sg4
g68
sg6
S'1941'
p1517
sg8
g9
sg10
S'Actor'
p1518
sg12
S'David_Warner'
p1519
sg14
S'UK'
p1520
sg16
S'188'
p1521
ssI222
(dp1522
g2
S'222'
p1523
sg4
g68
sg6
S'1965'
p1524
sg8
g9
sg10
S'Actor'
p1525
sg12
S'David_Wenham'
p1526
sg14
S'Austrailia'
p1527
sg16
S'178'
p1528
ssI223
(dp1529
g2
S'223'
p1530
sg4
g68
sg6
S'1962'
p1531
sg8
g9
sg10
S'Actor'
p1532
sg12
S'David_Zayas'
p1533
sg14
S'USA'
p1534
sg16
g17
ssI224
(dp1535
g2
S'224'
p1536
sg4
g5
sg6
S'1957'
p1537
sg8
g47
sg10
S'Actor'
p1538
sg12
S'Dawn_French'
p1539
sg14
S'UK'
p1540
sg16
S'152'
p1541
ssI225
(dp1542
g2
S'225'
p1543
sg4
g68
sg6
S'1938'
p1544
sg8
g47
sg10
S'Actor'
p1545
sg12
S'Dawn_Wells'
p1546
sg14
S'USA'
p1547
sg16
S'163'
p1548
ssI226
(dp1549
g2
S'226'
p1550
sg4
g68
sg6
S'1966'
p1551
sg8
g9
sg10
S'Actor'
p1552
sg12
S'Dean_Cain'
p1553
sg14
S'USA'
p1554
sg16
S'182'
p1555
ssI227
(dp1556
g2
S'227'
p1557
sg4
g68
sg6
S'1964'
p1558
sg8
g47
sg10
S'Actor'
p1559
sg12
S'Debi_Mazar'
p1560
sg14
S'USA'
p1561
sg16
g17
ssI228
(dp1562
g2
S'228'
p1563
sg4
g68
sg6
S'1951'
p1564
sg8
g47
sg10
S'Actor'
p1565
sg12
S'Debra_Jo_Rupp'
p1566
sg14
S'USA'
p1567
sg16
S'158'
p1568
ssI229
(dp1569
g2
S'229'
p1570
sg4
g68
sg6
S'1947'
p1571
sg8
g47
sg10
S'Actor'
p1572
sg12
S'Deidre_Hall'
p1573
sg14
S'USA'
p1574
sg16
S'170'
p1575
ssI230
(dp1576
g2
S'230'
p1577
sg4
g68
sg6
S'1931'
p1578
sg8
g47
sg10
S'Musician'
p1579
sg12
S'Della_Reese'
p1580
sg14
S'USA'
p1581
sg16
g17
ssI231
(dp1582
g2
S'231'
p1583
sg4
g68
sg6
S'1963'
p1584
sg8
g9
sg10
S'Actor'
p1585
sg12
S'Demian_Bichir'
p1586
sg14
S'Mexico'
p1587
sg16
S'178'
p1588
ssI232
(dp1589
g2
S'232'
p1590
sg4
g68
sg6
S'1957'
p1591
sg8
g9
sg10
S'Actor'
p1592
sg12
S'Denis_Leary'
p1593
sg14
S'USA'
p1594
sg16
S'188'
p1595
ssI233
(dp1596
g2
S'233'
p1597
sg4
g68
sg6
S'1957'
p1598
sg8
g47
sg10
S'Actor'
p1599
sg12
S'Denise_Crosby'
p1600
sg14
S'USA'
p1601
sg16
g17
ssI234
(dp1602
g2
S'234'
p1603
sg4
g68
sg6
S'1938'
p1604
sg8
g9
sg10
S'Actor'
p1605
sg12
S'Derek_Jacobi'
p1606
sg14
S'UK'
p1607
sg16
g17
ssI235
(dp1608
g2
S'235'
p1609
sg4
g68
sg6
S'1972'
p1610
sg8
g9
sg10
S'Actor'
p1611
sg12
S'Derek_Mears'
p1612
sg14
S'USA'
p1613
sg16
S'196'
p1614
ssI236
(dp1615
g2
S'236'
p1616
sg4
g68
sg6
S'1986'
p1617
sg8
g9
sg10
S'Actor'
p1618
sg12
S'Derek_Theler'
p1619
sg14
S'USA'
p1620
sg16
S'196'
p1621
ssI237
(dp1622
g2
S'237'
p1623
sg4
g68
sg6
S'1963'
p1624
sg8
g9
sg10
S'Actor'
p1625
sg12
S'Dermot_Mulroney'
p1626
sg14
S'USA'
p1627
sg16
S'177'
p1628
ssI238
(dp1629
g2
S'238'
p1630
sg4
g68
sg6
S'1978'
p1631
sg8
g47
sg10
S'Writer'
p1632
sg12
S'Diablo_Cody'
p1633
sg14
S'USA'
p1634
sg16
g17
ssI239
(dp1635
g2
S'239'
p1636
sg4
g68
sg6
S'1946'
p1637
sg8
g47
sg10
S'Actor'
p1638
sg12
S'Diane_Keaton'
p1639
sg14
S'USA'
p1640
sg16
S'169'
p1641
ssI240
(dp1642
g2
S'240'
p1643
sg4
g68
sg6
S'1976'
p1644
sg8
g47
sg10
S'Actor'
p1645
sg12
S'Diane_Kruger'
p1646
sg14
S'Germany'
p1647
sg16
S'170'
p1648
ssI241
(dp1649
g2
S'241'
p1650
sg4
g68
sg6
S'1925'
p1651
sg8
g9
sg10
S'Actor'
p1652
sg12
S'Dick_Van_Dyke'
p1653
sg14
S'USA'
p1654
sg16
S'185'
p1655
ssI242
(dp1656
g2
S'242'
p1657
sg4
g68
sg6
S'1979'
p1658
sg8
g9
sg10
S'Actor'
p1659
sg12
S'Diego_Klattenhoff'
p1660
sg14
S'Canada'
p1661
sg16
S'180'
p1662
ssI243
(dp1663
g2
S'243'
p1664
sg4
g68
sg6
S'1979'
p1665
sg8
g9
sg10
S'Actor'
p1666
sg12
S'Diego_Luna'
p1667
sg14
S'Mexico'
p1668
sg16
S'178'
p1669
ssI244
(dp1670
g2
S'244'
p1671
sg4
g68
sg6
S'1981'
p1672
sg8
g9
sg10
S'Actor'
p1673
sg12
S'Diogo_Morgado'
p1674
sg14
S'Portugal'
p1675
sg16
S'190'
p1676
ssI245
(dp1677
g2
S'245'
p1678
sg4
g68
sg6
S'1983'
p1679
sg8
g9
sg10
S'Actor'
p1680
sg12
S'Domhnall_Gleeson'
p1681
sg14
S'Ireland'
p1682
sg16
S'185'
p1683
ssI246
(dp1684
g2
S'246'
p1685
sg4
g68
sg6
S'1978'
p1686
sg8
g9
sg10
S'Actor'
p1687
sg12
S'Dominic_Cooper'
p1688
sg14
S'UK'
p1689
sg16
S'177'
p1690
ssI247
(dp1691
g2
S'247'
p1692
sg4
g68
sg6
S'1926'
p1693
sg8
g9
sg10
S'Comedian'
p1694
sg12
S'Don_Rickles'
p1695
sg14
S'USA'
p1696
sg16
g17
ssI248
(dp1697
g2
S'248'
p1698
sg4
g68
sg6
S'1966'
p1699
sg8
g9
sg10
S'Actor'
p1700
sg12
S'Donal_Logue'
p1701
sg14
S'Canada'
p1702
sg16
g17
ssI249
(dp1703
g2
S'249'
p1704
sg4
g68
sg6
S'1983'
p1705
sg8
g9
sg10
S'Actor'
p1706
sg12
S'Donald_Glover'
p1707
sg14
S'USA'
p1708
sg16
S'178'
p1709
ssI250
(dp1710
g2
S'250'
p1711
sg4
g68
sg6
S'1935'
p1712
sg8
g9
sg10
S'Actor'
p1713
sg12
S'Donald_Sutherland'
p1714
sg14
S'Canada'
p1715
sg16
S'193'
p1716
ssI251
(dp1717
g2
S'251'
p1718
sg4
g68
sg6
S'1940'
p1719
sg8
g47
sg10
S'Actor'
p1720
sg12
S'Donna_Mills'
p1721
sg14
S'USA'
p1722
sg16
g17
ssI252
(dp1723
g2
S'252'
p1724
sg4
g68
sg6
S'1959'
p1725
sg8
g47
sg10
S'Actor'
p1726
sg12
S'Donna_Murphy'
p1727
sg14
S'USA'
p1728
sg16
g17
ssI253
(dp1729
g2
S'253'
p1730
sg4
g68
sg6
S'1963'
p1731
sg8
g9
sg10
S'Actor'
p1732
sg12
S'Donnie_Yen'
p1733
sg14
S'Hong Kong'
p1734
sg16
S'173'
p1735
ssI254
(dp1736
g2
S'254'
p1737
sg4
g68
sg6
S'1964'
p1738
sg8
g47
sg10
S'Actor'
p1739
sg12
S'Dot-Marie_Jones'
p1740
sg14
S'USA'
p1741
sg16
S'191'
p1742
ssI255
(dp1743
g2
S'255'
p1744
sg4
g68
sg6
S'1992'
p1745
sg8
g9
sg10
S'Actor'
p1746
sg12
S'Douglas_Booth'
p1747
sg14
S'UK'
p1748
sg16
S'185'
p1749
ssI256
(dp1750
g2
S'256'
p1751
sg4
g68
sg6
S'1965'
p1752
sg8
g9
sg10
S'Actor'
p1753
sg12
S'Dougray_Scott'
p1754
sg14
S'UK'
p1755
sg16
S'183'
p1756
ssI257
(dp1757
g2
S'257'
p1758
sg4
g68
sg6
S'1985'
p1759
sg8
g47
sg10
S'Model'
p1760
sg12
S'Doutzen_Kroes'
p1761
sg14
S'Netherlands'
p1762
sg16
S'179'
p1763
ssI258
(dp1764
g2
S'258'
p1765
sg4
g68
sg6
S'1996'
p1766
sg8
g47
sg10
S'Actor'
p1767
sg12
S'Dove_Cameron'
p1768
sg14
S'USA'
p1769
sg16
S'157'
p1770
ssI259
(dp1771
g2
S'259'
p1772
sg4
g68
sg6
S'1965'
p1773
sg8
g9
sg10
S'Musician'
p1774
sg12
S'Dr._Dre'
p1775
sg14
S'USA'
p1776
sg16
g17
ssI260
(dp1777
g2
S'260'
p1778
sg4
g68
sg6
S'1986'
p1779
sg8
g9
sg10
S'Musician'
p1780
sg12
S'Drake_Bell'
p1781
sg14
S'USA'
p1782
sg16
g17
ssI261
(dp1783
g2
S'261'
p1784
sg4
g68
sg6
S'1972'
p1785
sg8
g47
sg10
S'Actor'
p1786
sg12
S'Drea_de_Matteo'
p1787
sg14
S'USA'
p1788
sg16
S'168'
p1789
ssI262
(dp1790
g2
S'262'
p1791
sg4
g68
sg6
S'1986'
p1792
sg8
g47
sg10
S'Actor'
p1793
sg12
S'Dreama_Walker'
p1794
sg14
S'USA'
p1795
sg16
S'157'
p1796
ssI263
(dp1797
g2
S'263'
p1798
sg4
g68
sg6
S'1958'
p1799
sg8
g9
sg10
S'Actor'
p1800
sg12
S'Drew_Carey'
p1801
sg14
S'USA'
p1802
sg16
S'178'
p1803
ssI264
(dp1804
g2
S'264'
p1805
sg4
g68
sg6
S'1986'
p1806
sg8
g9
sg10
S'Actor'
p1807
sg12
S'Drew_Roy'
p1808
sg14
S'USA'
p1809
sg16
S'180'
p1810
ssI265
(dp1811
g2
S'265'
p1812
sg4
g5
sg6
S'1985'
p1813
sg8
g9
sg10
S'Actor'
p1814
sg12
S'Dustin_Milligan'
p1815
sg14
S'Canada'
p1816
sg16
S'179'
p1817
ssI266
(dp1818
g2
S'266'
p1819
sg4
g68
sg6
S'1937'
p1820
sg8
g47
sg10
S'Actor'
p1821
sg12
S'Dyan_Cannon'
p1822
sg14
S'USA'
p1823
sg16
g17
ssI267
(dp1824
g2
S'267'
p1825
sg4
g68
sg6
S'1961'
p1826
sg8
g9
sg10
S'Actor'
p1827
sg12
S'Dylan_McDermott'
p1828
sg14
S'USA'
p1829
sg16
S'183'
p1830
ssI268
(dp1831
g2
S'268'
p1832
sg4
g68
sg6
S'1971'
p1833
sg8
g9
sg10
S'Comedian'
p1834
sg12
S'Dylan_Moran'
p1835
sg14
S'Ireland'
p1836
sg16
g17
ssI269
(dp1837
g2
S'269'
p1838
sg4
g68
sg6
S'1927'
p1839
sg8
g47
sg10
S'Musician'
p1840
sg12
S'Eartha_Kitt'
p1841
sg14
S'USA'
p1842
sg16
g17
ssI270
(dp1843
g2
S'270'
p1844
sg4
g68
sg6
S'1987'
p1845
sg8
g9
sg10
S'Actor'
p1846
sg12
S'Ed_Westwick'
p1847
sg14
S'UK'
p1848
sg16
S'175'
p1849
ssI271
(dp1850
g2
S'271'
p1851
sg4
g68
sg6
S'1968'
p1852
sg8
g9
sg10
S'Actor'
p1853
sg12
S'Eddie_Griffin'
p1854
sg14
S'USA'
p1855
sg16
S'170'
p1856
ssI272
(dp1857
g2
S'272'
p1858
sg4
g68
sg6
S'1962'
p1859
sg8
g9
sg10
S'Actor'
p1860
sg12
S'Eddie_Izzard'
p1861
sg14
S'England'
p1862
sg16
S'170'
p1863
ssI273
(dp1864
g2
S'273'
p1865
sg4
g68
sg6
S'1980'
p1866
sg8
g9
sg10
S'Actor'
p1867
sg12
S'Eddie_Kaye_Thomas'
p1868
sg14
S'USA'
p1869
sg16
g17
ssI274
(dp1870
g2
S'274'
p1871
sg4
g68
sg6
S'1967'
p1872
sg8
g9
sg10
S'Actor'
p1873
sg12
S'Eddie_McClintock'
p1874
sg14
S'USA'
p1875
sg16
g17
ssI275
(dp1876
g2
S'275'
p1877
sg4
g68
sg6
S'1974'
p1878
sg8
g9
sg10
S'Director'
p1879
sg12
S'Edgar_Wright'
p1880
sg14
S'UK'
p1881
sg16
S'170'
p1882
ssI276
(dp1883
g2
S'276'
p1884
sg4
g68
sg6
S'1973'
p1885
sg8
g9
sg10
S'Actor'
p1886
sg12
S'Eduardo_Noriega'
p1887
sg14
S'Spain'
p1888
sg16
S'180'
p1889
ssI277
(dp1890
g2
S'277'
p1891
sg4
g68
sg6
S'1929'
p1892
sg8
g9
sg10
S'Actor'
p1893
sg12
S'Edward_Asner'
p1894
sg14
S'USA'
p1895
sg16
S'170'
p1896
ssI278
(dp1897
g2
S'278'
p1898
sg4
g68
sg6
S'1973'
p1899
sg8
g9
sg10
S'Actor'
p1900
sg12
S'Efren_Ramirez'
p1901
sg14
S'USA'
p1902
sg16
S'170'
p1903
ssI279
(dp1904
g2
S'279'
p1905
sg4
g68
sg6
S'1979'
p1906
sg8
g47
sg10
S'Actor'
p1907
sg12
S'Elaine_Cassidy'
p1908
sg14
S'Ireland'
p1909
sg16
g17
ssI280
(dp1910
g2
S'280'
p1911
sg4
g68
sg6
S'1970'
p1912
sg8
g47
sg10
S'Actor'
p1913
sg12
S'Elaine_Hendrix'
p1914
sg14
S'USA'
p1915
sg16
S'173'
p1916
ssI281
(dp1917
g2
S'281'
p1918
sg4
g68
sg6
S'1992'
p1919
sg8
g47
sg10
S'Actor'
p1920
sg12
S'Eleanor_Tomlinson'
p1921
sg14
S'UK'
p1922
sg16
S'171'
p1923
ssI282
(dp1924
g2
S'282'
p1925
sg4
g68
sg6
S'1972'
p1926
sg8
g9
sg10
S'Director'
p1927
sg12
S'Eli_Roth'
p1928
sg14
S'USA'
p1929
sg16
S'182'
p1930
ssI283
(dp1931
g2
S'283'
p1932
sg4
g68
sg6
S'1915'
p1933
sg8
g9
sg10
S'Actor'
p1934
sg12
S'Eli_Wallach'
p1935
sg14
S'USA'
p1936
sg16
S'178'
p1937
ssI284
(dp1938
g2
S'284'
p1939
sg4
g68
sg6
S'1982'
p1940
sg8
g47
sg10
S'Actor'
p1941
sg12
S'Elisabeth_Moss'
p1942
sg14
S'USA'
p1943
sg16
S'160'
p1944
ssI285
(dp1945
g2
S'285'
p1946
sg4
g68
sg6
S'1998'
p1947
sg8
g47
sg10
S'Actor'
p1948
sg12
S'Elle_Fanning'
p1949
sg14
S'USA'
p1950
sg16
S'175'
p1951
ssI286
(dp1952
g2
S'286'
p1953
sg4
g68
sg6
S'1932'
p1954
sg8
g47
sg10
S'Actor'
p1955
sg12
S'Ellen_Burstyn'
p1956
sg14
S'USA'
p1957
sg16
g17
ssI287
(dp1958
g2
S'287'
p1959
sg4
g68
sg6
S'1985'
p1960
sg8
g47
sg10
S'Actor'
p1961
sg12
S'Ellen_Wong'
p1962
sg14
S'Canada'
p1963
sg16
g17
ssI288
(dp1964
g2
S'288'
p1965
sg4
g68
sg6
S'1981'
p1966
sg8
g47
sg10
S'Actor'
p1967
sg12
S'Elodie_Yung'
p1968
sg14
S'France'
p1969
sg16
S'165'
p1970
ssI289
(dp1971
g2
S'289'
p1972
sg4
g68
sg6
S'1985'
p1973
sg8
g9
sg10
S'Actor'
p1974
sg12
S'Emile_Hirsch'
p1975
sg14
S'USA'
p1976
sg16
S'170'
p1977
ssI290
(dp1978
g2
S'290'
p1979
sg4
g68
sg6
S'1989'
p1980
sg8
g47
sg10
S'Actor'
p1981
sg12
S'Emily_Atack'
p1982
sg14
S'UK'
p1983
sg16
g17
ssI291
(dp1984
g2
S'291'
p1985
sg4
g68
sg6
S'1979'
p1986
sg8
g9
sg10
S'Actor'
p1987
sg12
S'Emraan_Hashmi'
p1988
sg14
S'India'
p1989
sg16
S'173'
p1990
ssI292
(dp1991
g2
S'292'
p1992
sg4
g68
sg6
S'1983'
p1993
sg8
g9
sg10
S'Actor'
p1994
sg12
S'Eoin_Macken'
p1995
sg14
S'Ireland'
p1996
sg16
g17
ssI293
(dp1997
g2
S'293'
p1998
sg4
g68
sg6
S'1941'
p1999
sg8
g9
sg10
S'Actor'
p2000
sg12
S'Eric_Braeden'
p2001
sg14
S'Germany'
p2002
sg16
S'185'
p2003
ssI294
(dp2004
g2
S'294'
p2005
sg4
g68
sg6
S'1972'
p2006
sg8
g9
sg10
S'Actor'
p2007
sg12
S'Eric_Dane'
p2008
sg14
S'USA'
p2009
sg16
S'185'
p2010
ssI295
(dp2011
g2
S'295'
p2012
sg4
g68
sg6
S'1963'
p2013
sg8
g9
sg10
S'Actor'
p2014
sg12
S'Eric_McCormack'
p2015
sg14
S'Canada'
p2016
sg16
S'180'
p2017
ssI296
(dp2018
g2
S'296'
p2019
sg4
g5
sg6
S'1956'
p2020
sg8
g9
sg10
S'Actor'
p2021
sg12
S'Eric_Roberts'
p2022
sg14
S'USA'
p2023
sg16
S'178'
p2024
ssI297
(dp2025
g2
S'297'
p2026
sg4
g68
sg6
S'1949'
p2027
sg8
g9
sg10
S'Actor'
p2028
sg12
S'Erik_Estrada'
p2029
sg14
S'USA'
p2030
sg16
S'177'
p2031
ssI298
(dp2032
g2
S'298'
p2033
sg4
g68
sg6
S'1978'
p2034
sg8
g47
sg10
S'Broadcaster '
p2035
sg12
S'Erin_Andrews'
p2036
sg14
S'USA'
p2037
sg16
S'178'
p2038
ssI299
(dp2039
g2
S'299'
p2040
sg4
g68
sg6
S'1917'
p2041
sg8
g9
sg10
S'Actor'
p2042
sg12
S'Ernest_Borgnine'
p2043
sg14
S'USA'
p2044
sg16
S'175'
p2045
ssI300
(dp2046
g2
S'300'
p2047
sg4
g68
sg6
S'1945'
p2048
sg8
g9
sg10
S'Actor'
p2049
sg12
S'Ernie_Hudson'
p2050
sg14
S'USA'
p2051
sg16
S'183'
p2052
ssI301
(dp2053
g2
S'301'
p2054
sg4
g68
sg6
S'1962'
p2055
sg8
g9
sg10
S'Actor'
p2056
sg12
S'Esai_Morales'
p2057
sg14
S'USA'
p2058
sg16
S'178'
p2059
ssI302
(dp2060
g2
S'302'
p2061
sg4
g68
sg6
S'1928'
p2062
sg8
g47
sg10
S'Actor'
p2063
sg12
S'Estelle_Harris'
p2064
sg14
S'USA'
p2065
sg16
g17
ssI303
(dp2066
g2
S'303'
p2067
sg4
g68
sg6
S'1946'
p2068
sg8
g9
sg10
S'Actor'
p2069
sg12
S'Eugene_Levy'
p2070
sg14
S'Canada'
p2071
sg16
S'178'
p2072
ssI304
(dp2073
g2
S'304'
p2074
sg4
g68
sg6
S'1961'
p2075
sg8
g9
sg10
S'Actor'
p2076
sg12
S'Eugenio_Derbez'
p2077
sg14
S'Mexico'
p2078
sg16
S'179'
p2079
ssI305
(dp2080
g2
S'305'
p2081
sg4
g68
sg6
S'1980'
p2082
sg8
g47
sg10
S'Actor'
p2083
sg12
S'Eva_Green'
p2084
sg14
S'France'
p2085
sg16
S'168'
p2086
ssI306
(dp2087
g2
S'306'
p2088
sg4
g5
sg6
S'1975'
p2089
sg8
g47
sg10
S'Actor'
p2090
sg12
S'Eva_Longoria'
p2091
sg14
S'USA'
p2092
sg16
S'157'
p2093
ssI307
(dp2094
g2
S'307'
p2095
sg4
g68
sg6
S'1991'
p2096
sg8
g47
sg10
S'Actor'
p2097
sg12
S'Evanna_Lynch'
p2098
sg14
S'Ireland'
p2099
sg16
S'158'
p2100
ssI308
(dp2101
g2
S'308'
p2102
sg4
g68
sg6
S'1992'
p2103
sg8
g9
sg10
S'Actor'
p2104
sg12
S'Ezra_Miller'
p2105
sg14
S'USA'
p2106
sg16
S'180'
p2107
ssI309
(dp2108
g2
S'309'
p2109
sg4
g68
sg6
S'1949'
p2110
sg8
g47
sg10
S'Actor'
p2111
sg12
S'Fanny_Ardant'
p2112
sg14
S'France'
p2113
sg16
S'174'
p2114
ssI310
(dp2115
g2
S'310'
p2116
sg4
g68
sg6
S'1991'
p2117
sg8
g47
sg10
S'Broadcaster '
p2118
sg12
S'Farrah_Abraham'
p2119
sg14
S'USA'
p2120
sg16
S'170'
p2121
ssI311
(dp2122
g2
S'311'
p2123
sg4
g68
sg6
S'1981'
p2124
sg8
g9
sg10
S'Actor'
p2125
sg12
S'Fawad_Khan'
p2126
sg14
S'Pakistan'
p2127
sg16
S'178'
p2128
ssI312
(dp2129
g2
S'312'
p2130
sg4
g68
sg6
S'1979'
p2131
sg8
g47
sg10
S'Actor'
p2132
sg12
S'Felicia_Day'
p2133
sg14
S'USA'
p2134
sg16
S'165'
p2135
ssI313
(dp2136
g2
S'313'
p2137
sg4
g68
sg6
S'1983'
p2138
sg8
g47
sg10
S'Actor'
p2139
sg12
S'Felicity_Jones'
p2140
sg14
S'UK'
p2141
sg16
S'160'
p2142
ssI314
(dp2143
g2
S'314'
p2144
sg4
g68
sg6
S'1975'
p2145
sg8
g47
sg10
S'Musician'
p2146
sg12
S'Fergie'
p2147
sg14
S'USA'
p2148
sg16
S'163'
p2149
ssI315
(dp2150
g2
S'315'
p2151
sg4
g68
sg6
S'1959'
p2152
sg8
g47
sg10
S'Actor'
p2153
sg12
S'Finola_Hughes'
p2154
sg14
S'UK'
p2155
sg16
S'165'
p2156
ssI316
(dp2157
g2
S'316'
p2158
sg4
g68
sg6
S'1958'
p2159
sg8
g47
sg10
S'Actor'
p2160
sg12
S'Fiona_Shaw'
p2161
sg14
S'Ireland'
p2162
sg16
g17
ssI317
(dp2163
g2
S'317'
p2164
sg4
g68
sg6
S'1934'
p2165
sg8
g47
sg10
S'Actor'
p2166
sg12
S'Florence_Henderson'
p2167
sg14
S'USA'
p2168
sg16
g17
ssI318
(dp2169
g2
S'318'
p2170
sg4
g68
sg6
S'1961'
p2171
sg8
g9
sg10
S'Actor'
p2172
sg12
S'Forest_Whitaker'
p2173
sg14
S'USA'
p2174
sg16
S'188'
p2175
ssI319
(dp2176
g2
S'319'
p2177
sg4
g68
sg6
S'1988'
p2178
sg8
g47
sg10
S'Actor'
p2179
sg12
S'Francia_Raisa'
p2180
sg14
S'USA'
p2181
sg16
S'160'
p2182
ssI320
(dp2183
g2
S'320'
p2184
sg4
g68
sg6
S'1938'
p2185
sg8
g9
sg10
S'Actor'
p2186
sg12
S'Fred_Williamson'
p2187
sg14
S'USA'
p2188
sg16
S'191'
p2189
ssI321
(dp2190
g2
S'321'
p2191
sg4
g68
sg6
S'1992'
p2192
sg8
g9
sg10
S'Actor'
p2193
sg12
S'Freddie_Highmore'
p2194
sg14
S'UK'
p2195
sg16
S'178'
p2196
ssI322
(dp2197
g2
S'322'
p2198
sg4
g68
sg6
S'1979'
p2199
sg8
g47
sg10
S'Actor'
p2200
sg12
S'Freema_Agyeman'
p2201
sg14
S'UK'
p2202
sg16
g17
ssI323
(dp2203
g2
S'323'
p2204
sg4
g68
sg6
S'1984'
p2205
sg8
g47
sg10
S'Actor'
p2206
sg12
S'Freida_Pinto'
p2207
sg14
S'India'
p2208
sg16
S'166'
p2209
ssI324
(dp2210
g2
S'324'
p2211
sg4
g68
sg6
S'1984'
p2212
sg8
g9
sg10
S'Actor'
p2213
sg12
S'Garrett_Hedlund'
p2214
sg14
S'USA'
p2215
sg16
S'189'
p2216
ssI325
(dp2217
g2
S'325'
p2218
sg4
g68
sg6
S'1934'
p2219
sg8
g9
sg10
S'Actor'
p2220
sg12
S'Garry_Marshall'
p2221
sg14
S'USA'
p2222
sg16
g17
ssI326
(dp2223
g2
S'326'
p2224
sg4
g68
sg6
S'1944'
p2225
sg8
g9
sg10
S'Actor'
p2226
sg12
S'Gary_Busey'
p2227
sg14
S'USA'
p2228
sg16
S'182'
p2229
ssI327
(dp2230
g2
S'327'
p2231
sg4
g68
sg6
S'1984'
p2232
sg8
g9
sg10
S'Actor'
p2233
sg12
S'Gaspard_Ulliel'
p2234
sg14
S'France'
p2235
sg16
S'180'
p2236
ssI328
(dp2237
g2
S'328'
p2238
sg4
g68
sg6
S'1949'
p2239
sg8
g47
sg10
S'Actor'
p2240
sg12
S'Gates_McFadden'
p2241
sg14
S'USA'
p2242
sg16
S'172'
p2243
ssI329
(dp2244
g2
S'329'
p2245
sg4
g68
sg6
S'1956'
p2246
sg8
g47
sg10
S'Actor'
p2247
sg12
S'Geena_Davis'
p2248
sg14
S'USA'
p2249
sg16
S'183'
p2250
ssI330
(dp2251
g2
S'330'
p2252
sg4
g68
sg6
S'1986'
p2253
sg8
g47
sg10
S'Actor'
p2254
sg12
S'Gemma_Arterton'
p2255
sg14
S'UK'
p2256
sg16
S'170'
p2257
ssI331
(dp2258
g2
S'331'
p2259
sg4
g68
sg6
S'1984'
p2260
sg8
g47
sg10
S'Model'
p2261
sg12
S'Gemma_Atkinson'
p2262
sg14
S'UK'
p2263
sg16
S'175'
p2264
ssI332
(dp2265
g2
S'332'
p2266
sg4
g68
sg6
S'1972'
p2267
sg8
g47
sg10
S'Musician'
p2268
sg12
S'Geri_Halliwell'
p2269
sg14
S'UK'
p2270
sg16
S'155'
p2271
ssI333
(dp2272
g2
S'333'
p2273
sg4
g68
sg6
S'1976'
p2274
sg8
g9
sg10
S'Actor'
p2275
sg12
S'Gilles_Marini'
p2276
sg14
S'France'
p2277
sg16
S'185'
p2278
ssI334
(dp2279
g2
S'334'
p2280
sg4
g68
sg6
S'1982'
p2281
sg8
g47
sg10
S'Actor'
p2282
sg12
S'Gillian_Jacobs'
p2283
sg14
S'USA'
p2284
sg16
S'163'
p2285
ssI335
(dp2286
g2
S'335'
p2287
sg4
g68
sg6
S'1982'
p2288
sg8
g47
sg10
S'Actor'
p2289
sg12
S'Gina_Carano'
p2290
sg14
S'USA'
p2291
sg16
S'173'
p2292
ssI336
(dp2293
g2
S'336'
p2294
sg4
g68
sg6
S'1911'
p2295
sg8
g47
sg10
S'Actor'
p2296
sg12
S'Ginger_Rogers'
p2297
sg14
S'USA'
p2298
sg16
S'164'
p2299
ssI337
(dp2300
g2
S'337'
p2301
sg4
g68
sg6
S'1978'
p2302
sg8
g47
sg10
S'Actor'
p2303
sg12
S'Ginnifer_Goodwin'
p2304
sg14
S'USA'
p2305
sg16
S'168'
p2306
ssI338
(dp2307
g2
S'338'
p2308
sg4
g68
sg6
S'1974'
p2309
sg8
g9
sg10
S'Actor'
p2310
sg12
S'Giovanni_Ribisi'
p2311
sg14
S'USA'
p2312
sg16
S'171'
p2313
ssI339
(dp2314
g2
S'339'
p2315
sg4
g68
sg6
S'1974'
p2316
sg8
g47
sg10
S'Broadcaster '
p2317
sg12
S'Giuliana_Rancic'
p2318
sg14
S'Italy'
p2319
sg16
g17
ssI340
(dp2320
g2
S'340'
p2321
sg4
g68
sg6
S'1970'
p2322
sg8
g9
sg10
S'Musician'
p2323
sg12
S'Glen_Hansard'
p2324
sg14
S'Ireland'
p2325
sg16
g17
ssI341
(dp2326
g2
S'341'
p2327
sg4
g68
sg6
S'1947'
p2328
sg8
g47
sg10
S'Actor'
p2329
sg12
S'Glenn_Close'
p2330
sg14
S'USA'
p2331
sg16
S'165'
p2332
ssI342
(dp2333
g2
S'342'
p2334
sg4
g68
sg6
S'1934'
p2335
sg8
g47
sg10
S'Journalist'
p2336
sg12
S'Gloria_Steinem'
p2337
sg14
S'USA'
p2338
sg16
g17
ssI343
(dp2339
g2
S'343'
p2340
sg4
g68
sg6
S'1983'
p2341
sg8
g47
sg10
S'Actor'
p2342
sg12
S'Golshifteh_Farahani'
p2343
sg14
S'Iran'
p2344
sg16
S'169'
p2345
ssI344
(dp2346
g2
S'344'
p2347
sg4
g68
sg6
S'1972'
p2348
sg8
g9
sg10
S'Actor'
p2349
sg12
S'Goran_Visnjic'
p2350
sg14
S'Croatia'
p2351
sg16
S'193'
p2352
ssI345
(dp2353
g2
S'345'
p2354
sg4
g68
sg6
S'1966'
p2355
sg8
g9
sg10
S'Chef'
p2356
sg12
S'Gordon_Ramsay'
p2357
sg14
S'UK'
p2358
sg16
S'187'
p2359
ssI346
(dp2360
g2
S'346'
p2361
sg4
g68
sg6
S'1968'
p2362
sg8
g9
sg10
S'Actor'
p2363
sg12
S'Grant_Bowler'
p2364
sg14
S'New Zealand '
p2365
sg16
g17
ssI347
(dp2366
g2
S'347'
p2367
sg4
g68
sg6
S'1904'
p2368
sg8
g47
sg10
S'Actor'
p2369
sg12
S'Greer_Garson'
p2370
sg14
S'USA'
p2371
sg16
g17
ssI348
(dp2372
g2
S'348'
p2373
sg4
g68
sg6
S'1984'
p2374
sg8
g9
sg10
S'Actor'
p2375
sg12
S'Greg_Finley'
p2376
sg14
S'USA'
p2377
sg16
S'183'
p2378
ssI349
(dp2379
g2
S'349'
p2380
sg4
g68
sg6
S'1966'
p2381
sg8
g9
sg10
S'Actor'
p2382
sg12
S'Greg_Grunberg'
p2383
sg14
S'USA'
p2384
sg16
g17
ssI350
(dp2385
g2
S'350'
p2386
sg4
g68
sg6
S'1992'
p2387
sg8
g9
sg10
S'Actor'
p2388
sg12
S'Gregg_Sulkin'
p2389
sg14
S'UK'
p2390
sg16
S'175'
p2391
ssI351
(dp2392
g2
S'351'
p2393
sg4
g68
sg6
S'1983'
p2394
sg8
g47
sg10
S'Actor'
p2395
sg12
S'Greta_Gerwig'
p2396
sg14
S'USA'
p2397
sg16
S'173'
p2398
ssI352
(dp2399
g2
S'352'
p2400
sg4
g68
sg6
S'1983'
p2401
sg8
g47
sg10
S'Actor'
p2402
sg12
S'Gugu_Mbatha-Raw'
p2403
sg14
S'UK'
p2404
sg16
S'162'
p2405
ssI353
(dp2406
g2
S'353'
p2407
sg4
g68
sg6
S'1973'
p2408
sg8
g9
sg10
S'Actor'
p2409
sg12
S'Guillaume_Canet'
p2410
sg14
S'France'
p2411
sg16
S'180'
p2412
ssI354
(dp2413
g2
S'354'
p2414
sg4
g68
sg6
S'1967'
p2415
sg8
g9
sg10
S'Actor'
p2416
sg12
S'Guy_Pearce'
p2417
sg14
S'UK'
p2418
sg16
S'180'
p2419
ssI355
(dp2420
g2
S'355'
p2421
sg4
g68
sg6
S'1978'
p2422
sg8
g47
sg10
S'Actor'
p2423
sg12
S'Gwendoline_Christie'
p2424
sg14
S'UK'
p2425
sg16
S'191'
p2426
ssI356
(dp2427
g2
S'356'
p2428
sg4
g68
sg6
S'1996'
p2429
sg8
g47
sg10
S'Actor'
p2430
sg12
S'Hailee_Steinfeld'
p2431
sg14
S'USA'
p2432
sg16
S'173'
p2433
ssI357
(dp2434
g2
S'357'
p2435
sg4
g68
sg6
S'1969'
p2436
sg8
g9
sg10
S'Actor'
p2437
sg12
S'Hal_Sparks'
p2438
sg14
S'USA'
p2439
sg16
g17
ssI358
(dp2440
g2
S'358'
p2441
sg4
g68
sg6
S'1980'
p2442
sg8
g47
sg10
S'Actor'
p2443
sg12
S'Hannah_Simone'
p2444
sg14
S'UK'
p2445
sg16
S'170'
p2446
ssI359
(dp2447
g2
S'359'
p2448
sg4
g68
sg6
S'1981'
p2449
sg8
g47
sg10
S'Actor'
p2450
sg12
S'Hannah_Spearritt'
p2451
sg14
S'UK'
p2452
sg16
g17
ssI360
(dp2453
g2
S'360'
p2454
sg4
g68
sg6
S'1957'
p2455
sg8
g9
sg10
S'Writer'
p2456
sg12
S'Hans_Zimmer'
p2457
sg14
S'Germany'
p2458
sg16
g17
ssI361
(dp2459
g2
S'361'
p2460
sg4
g68
sg6
S'1967'
p2461
sg8
g9
sg10
S'Musician'
p2462
sg12
S'Harry_Connick_Jr.'
p2463
sg14
S'USA'
p2464
sg16
S'185'
p2465
ssI362
(dp2466
g2
S'362'
p2467
sg4
g68
sg6
S'1982'
p2468
sg8
g9
sg10
S'Actor'
p2469
sg12
S'Harry_Shum_Jr.'
p2470
sg14
S'Costa Rica '
p2471
sg16
S'180'
p2472
ssI363
(dp2473
g2
S'363'
p2474
sg4
g68
sg6
S'1984'
p2475
sg8
g9
sg10
S'Actor'
p2476
sg12
S'Harry_Treadaway'
p2477
sg14
S'UK'
p2478
sg16
g17
ssI364
(dp2479
g2
S'364'
p2480
sg4
g68
sg6
S'1939'
p2481
sg8
g9
sg10
S'Actor'
p2482
sg12
S'Harvey_Keitel'
p2483
sg14
S'USA'
p2484
sg16
S'171'
p2485
ssI365
(dp2486
g2
S'365'
p2487
sg4
g68
sg6
S'1984'
p2488
sg8
g47
sg10
S'Actor'
p2489
sg12
S'Hayley_Marie_Norman'
p2490
sg14
S'USA'
p2491
sg16
g17
ssI366
(dp2492
g2
S'366'
p2493
sg4
g68
sg6
S'1970'
p2494
sg8
g47
sg10
S'Actor'
p2495
sg12
S'Heather_Graham'
p2496
sg14
S'USA'
p2497
sg16
S'173'
p2498
ssI367
(dp2499
g2
S'367'
p2500
sg4
g68
sg6
S'1936'
p2501
sg8
g9
sg10
S'Actor'
p2502
sg12
S'Hector_Elizondo'
p2503
sg14
S'USA'
p2504
sg16
g17
ssI368
(dp2505
g2
S'368'
p2506
sg4
g68
sg6
S'1986'
p2507
sg8
g47
sg10
S'Musician'
p2508
sg12
S'Heidi_Montag'
p2509
sg14
S'USA'
p2510
sg16
S'157'
p2511
ssI369
(dp2512
g2
S'369'
p2513
sg4
g68
sg6
S'1971'
p2514
sg8
g47
sg10
S'Actor'
p2515
sg12
S'Heike_Makatsch'
p2516
sg14
S'Germany'
p2517
sg16
S'173'
p2518
ssI370
(dp2519
g2
S'370'
p2520
sg4
g68
sg6
S'1966'
p2521
sg8
g47
sg10
S'Actor'
p2522
sg12
S'Helena_Bonham_Carter'
p2523
sg14
S'UK'
p2524
sg16
S'157'
p2525
ssI371
(dp2526
g2
S'371'
p2527
sg4
g68
sg6
S'1983'
p2528
sg8
g9
sg10
S'Actor'
p2529
sg12
S'Henry_Cavill'
p2530
sg14
S'UK'
p2531
sg16
S'185'
p2532
ssI372
(dp2533
g2
S'372'
p2534
sg4
g68
sg6
S'1982'
p2535
sg8
g47
sg10
S'Actor'
p2536
sg12
S'Hilarie_Burton'
p2537
sg14
S'USA'
p2538
sg16
S'171'
p2539
ssI373
(dp2540
g2
S'373'
p2541
sg4
g68
sg6
S'1974'
p2542
sg8
g47
sg10
S'Actor'
p2543
sg12
S'Hilary_Swank'
p2544
sg14
S'USA'
p2545
sg16
S'168'
p2546
ssI374
(dp2547
g2
S'374'
p2548
sg4
g68
sg6
S'1966'
p2549
sg8
g9
sg10
S'Actor'
p2550
sg12
S'Hill_Harper'
p2551
sg14
S'USA'
p2552
sg16
S'170'
p2553
ssI375
(dp2554
g2
S'375'
p2555
sg4
g5
sg6
S'1988'
p2556
sg8
g47
sg10
S'Actor'
p2557
sg12
S'Holliday_Grainger'
p2558
sg14
S'UK'
p2559
sg16
S'155'
p2560
ssI376
(dp2561
g2
S'376'
p2562
sg4
g68
sg6
S'1981'
p2563
sg8
g47
sg10
S'Soccer Player'
p2564
sg12
S'Hope_Solo'
p2565
sg14
S'USA'
p2566
sg16
S'175'
p2567
ssI377
(dp2568
g2
S'377'
p2569
sg4
g68
sg6
S'1955'
p2570
sg8
g9
sg10
S'Actor'
p2571
sg12
S'Howie_Mandel'
p2572
sg14
S'Canada'
p2573
sg16
S'178'
p2574
ssI378
(dp2575
g2
S'378'
p2576
sg4
g68
sg6
S'1963'
p2577
sg8
g9
sg10
S'Actor'
p2578
sg12
S'Hugh_Bonneville'
p2579
sg14
S'UK'
p2580
sg16
S'187'
p2581
ssI379
(dp2582
g2
S'379'
p2583
sg4
g68
sg6
S'1975'
p2584
sg8
g9
sg10
S'Actor'
p2585
sg12
S'Hugh_Dancy'
p2586
sg14
S'UK'
p2587
sg16
S'180'
p2588
ssI380
(dp2589
g2
S'380'
p2590
sg4
g68
sg6
S'1968'
p2591
sg8
g9
sg10
S'Actor'
p2592
sg12
S'Hugh_Jackman'
p2593
sg14
S'Austrailia'
p2594
sg16
S'188'
p2595
ssI381
(dp2596
g2
S'381'
p2597
sg4
g68
sg6
S'1959'
p2598
sg8
g9
sg10
S'Actor'
p2599
sg12
S'Hugh_Laurie'
p2600
sg14
S'UK'
p2601
sg16
S'189'
p2602
ssI382
(dp2603
g2
S'382'
p2604
sg4
g5
sg6
S'1987'
p2605
sg8
g9
sg10
S'Actor'
p2606
sg12
S'Hunter_Parrish'
p2607
sg14
S'USA'
p2608
sg16
S'170'
p2609
ssI383
(dp2610
g2
S'383'
p2611
sg4
g68
sg6
S'1981'
p2612
sg8
g47
sg10
S'Actor'
p2613
sg12
S'Hye-kyo_Song'
p2614
sg14
S'Korea'
p2615
sg16
S'161'
p2616
ssI384
(dp2617
g2
S'384'
p2618
sg4
g68
sg6
S'1961'
p2619
sg8
g9
sg10
S'Actor'
p2620
sg12
S'Iain_Glen'
p2621
sg14
S'UK'
p2622
sg16
S'185'
p2623
ssI385
(dp2624
g2
S'385'
p2625
sg4
g68
sg6
S'1978'
p2626
sg8
g9
sg10
S'Model'
p2627
sg12
S'Ian_Somerhalder'
p2628
sg14
S'USA'
p2629
sg16
S'177'
p2630
ssI386
(dp2631
g2
S'386'
p2632
sg4
g5
sg6
S'1971'
p2633
sg8
g47
sg10
S'Actor'
p2634
sg12
S'Idina_Menzel'
p2635
sg14
S'USA'
p2636
sg16
S'163'
p2637
ssI387
(dp2638
g2
S'387'
p2639
sg4
g68
sg6
S'1956'
p2640
sg8
g47
sg10
S'Actor'
p2641
sg12
S'Imelda_Staunton'
p2642
sg14
S'UK'
p2643
sg16
S'152'
p2644
ssI388
(dp2645
g2
S'388'
p2646
sg4
g68
sg6
S'1987'
p2647
sg8
g47
sg10
S'Actor'
p2648
sg12
S'India_de_Beaufort'
p2649
sg14
S'UK'
p2650
sg16
g17
ssI389
(dp2651
g2
S'389'
p2652
sg4
g68
sg6
S'1973'
p2653
sg8
g47
sg10
S'Actor'
p2654
sg12
S'Indira_Varma'
p2655
sg14
S'UK'
p2656
sg16
S'171'
p2657
ssI390
(dp2658
g2
S'390'
p2659
sg4
g68
sg6
S'1915'
p2660
sg8
g47
sg10
S'Actor'
p2661
sg12
S'Ingrid_Bergman'
p2662
sg14
S'Sweden'
p2663
sg16
S'175'
p2664
ssI391
(dp2665
g2
S'391'
p2666
sg4
g5
sg6
S'1986'
p2667
sg8
g47
sg10
S'Actor'
p2668
sg12
S'Irina_Shayk'
p2669
sg14
S'Russia'
p2670
sg16
S'178'
p2671
ssI392
(dp2672
g2
S'392'
p2673
sg4
g68
sg6
S'1967'
p2674
sg8
g9
sg10
S'Actor'
p2675
sg12
S'Irrfan_Khan'
p2676
sg14
S'India'
p2677
sg16
S'183'
p2678
ssI393
(dp2679
g2
S'393'
p2680
sg4
g68
sg6
S'1976'
p2681
sg8
g47
sg10
S'Actor'
p2682
sg12
S'Isla_Fisher'
p2683
sg14
S'Austrailia'
p2684
sg16
S'160'
p2685
ssI394
(dp2686
g2
S'394'
p2687
sg4
g68
sg6
S'1985'
p2688
sg8
g9
sg10
S'Actor'
p2689
sg12
S'Iwan_Rheon'
p2690
sg14
S'UK'
p2691
sg16
S'173'
p2692
ssI395
(dp2693
g2
S'395'
p2694
sg4
g68
sg6
S'1970'
p2695
sg8
g47
sg10
S'Actor'
p2696
sg12
S'Izabella_Scorupco'
p2697
sg14
S'Poland'
p2698
sg16
S'174'
p2699
ssI396
(dp2700
g2
S'396'
p2701
sg4
g68
sg6
S'1966'
p2702
sg8
g9
sg10
S'Director'
p2703
sg12
S'J.J._Abrams'
p2704
sg14
S'USA'
p2705
sg16
S'170'
p2706
ssI397
(dp2707
g2
S'397'
p2708
sg4
g68
sg6
S'1955'
p2709
sg8
g9
sg10
S'Actor'
p2710
sg12
S'J.K._Simmons'
p2711
sg14
S'USA'
p2712
sg16
S'178'
p2713
ssI398
(dp2714
g2
S'398'
p2715
sg4
g68
sg6
S'1969'
p2716
sg8
g9
sg10
S'Actor'
p2717
sg12
S'Jack_Black'
p2718
sg14
S'USA'
p2719
sg16
S'168'
p2720
ssI399
(dp2721
g2
S'399'
p2722
sg4
g68
sg6
S'1958'
p2723
sg8
g9
sg10
S'Actor'
p2724
sg12
S'Jack_Coleman'
p2725
sg14
S'USA'
p2726
sg16
g17
ssI400
(dp2727
g2
S'400'
p2728
sg4
g68
sg6
S'1973'
p2729
sg8
g9
sg10
S'Actor'
p2730
sg12
S'Jack_Davenport'
p2731
sg14
S'UK'
p2732
sg16
S'185'
p2733
ssI401
(dp2734
g2
S'401'
p2735
sg4
g68
sg6
S'1996'
p2736
sg8
g9
sg10
S'Actor'
p2737
sg12
S'Jack_Griffo'
p2738
sg14
S'USA'
p2739
sg16
S'173'
p2740
ssI402
(dp2741
g2
S'402'
p2742
sg4
g68
sg6
S'1925'
p2743
sg8
g9
sg10
S'Actor'
p2744
sg12
S'Jack_Lemmon'
p2745
sg14
S'USA'
p2746
sg16
g17
ssI403
(dp2747
g2
S'403'
p2748
sg4
g68
sg6
S'1992'
p2749
sg8
g9
sg10
S'Actor'
p2750
sg12
S'Jack_Reynor'
p2751
sg14
S'USA'
p2752
sg16
S'183'
p2753
ssI404
(dp2754
g2
S'404'
p2755
sg4
g68
sg6
S'1988'
p2756
sg8
g9
sg10
S'Comedian'
p2757
sg12
S'Jack_Whitehall'
p2758
sg14
S'UK'
p2759
sg16
S'185'
p2760
ssI405
(dp2761
g2
S'405'
p2762
sg4
g68
sg6
S'1996'
p2763
sg8
g9
sg10
S'Musician'
p2764
sg12
S'Jacob_Latimore'
p2765
sg14
S'USA'
p2766
sg16
S'170'
p2767
ssI406
(dp2768
g2
S'406'
p2769
sg4
g68
sg6
S'1994'
p2770
sg8
g47
sg10
S'Actor'
p2771
sg12
S'Jacqueline_Emerson'
p2772
sg14
S'USA'
p2773
sg16
g17
ssI407
(dp2774
g2
S'407'
p2775
sg4
g68
sg6
S'1985'
p2776
sg8
g47
sg10
S'Actor'
p2777
sg12
S'Jacqueline_Fernandez'
p2778
sg14
S'Sri Lanka'
p2779
sg16
S'170'
p2780
ssI408
(dp2781
g2
S'408'
p2782
sg4
g5
sg6
S'1987'
p2783
sg8
g47
sg10
S'Actor'
p2784
sg12
S'Jacqueline_MacInnes_Wood'
p2785
sg14
S'Canada'
p2786
sg16
S'173'
p2787
ssI409
(dp2788
g2
S'409'
p2789
sg4
g68
sg6
S'1986'
p2790
sg8
g9
sg10
S'Actor'
p2791
sg12
S'Jai_Courtney'
p2792
sg14
S'Austrailia'
p2793
sg16
S'185'
p2794
ssI410
(dp2795
g2
S'410'
p2796
sg4
g5
sg6
S'1985'
p2797
sg8
g47
sg10
S'Actor'
p2798
sg12
S'Jaime_Winstone'
p2799
sg14
S'USA'
p2800
sg16
g17
ssI411
(dp2801
g2
S'411'
p2802
sg4
g5
sg6
S'1987'
p2803
sg8
g9
sg10
S'Actor'
p2804
sg12
S'Jake_Abel'
p2805
sg14
S'USA'
p2806
sg16
S'185'
p2807
ssI412
(dp2808
g2
S'412'
p2809
sg4
g68
sg6
S'1978'
p2810
sg8
g9
sg10
S'Actor'
p2811
sg12
S'Jake_Johnson'
p2812
sg14
S'USA'
p2813
sg16
S'178'
p2814
ssI413
(dp2815
g2
S'413'
p2816
sg4
g68
sg6
S'1994'
p2817
sg8
g9
sg10
S'Actor'
p2818
sg12
S'Jake_T._Austin'
p2819
sg14
S'USA'
p2820
sg16
S'173'
p2821
ssI414
(dp2822
g2
S'414'
p2823
sg4
g68
sg6
S'1975'
p2824
sg8
g9
sg10
S'Actor'
p2825
sg12
S'Jamel_Debbouze'
p2826
sg14
S'France'
p2827
sg16
S'165'
p2828
ssI415
(dp2829
g2
S'415'
p2830
sg4
g68
sg6
S'1978'
p2831
sg8
g9
sg10
S'Actor'
p2832
sg12
S'James_Badge_Dale'
p2833
sg14
S'USA'
p2834
sg16
S'180'
p2835
ssI416
(dp2836
g2
S'416'
p2837
sg4
g68
sg6
S'1948'
p2838
sg8
g9
sg10
S'Actor'
p2839
sg12
S'James_Cosmo'
p2840
sg14
S'UK'
p2841
sg16
S'188'
p2842
ssI417
(dp2843
g2
S'417'
p2844
sg4
g68
sg6
S'1940'
p2845
sg8
g9
sg10
S'Actor'
p2846
sg12
S'James_Cromwell'
p2847
sg14
S'USA'
p2848
sg16
S'201'
p2849
ssI418
(dp2850
g2
S'418'
p2851
sg4
g68
sg6
S'1931'
p2852
sg8
g9
sg10
S'Actor'
p2853
sg12
S'James_Earl_Jones'
p2854
sg14
S'USA'
p2855
sg16
S'187'
p2856
ssI419
(dp2857
g2
S'419'
p2858
sg4
g5
sg6
S'1968'
p2859
sg8
g9
sg10
S'Actor'
p2860
sg12
S'James_Frain'
p2861
sg14
S'UK'
p2862
sg16
S'183'
p2863
ssI420
(dp2864
g2
S'420'
p2865
sg4
g68
sg6
S'1985'
p2866
sg8
g9
sg10
S'Actor'
p2867
sg12
S'James_Lafferty'
p2868
sg14
S'USA'
p2869
sg16
S'188'
p2870
ssI421
(dp2871
g2
S'421'
p2872
sg4
g68
sg6
S'1926'
p2873
sg8
g9
sg10
S'Actor'
p2874
sg12
S'James_Lipton'
p2875
sg14
S'USA'
p2876
sg16
g17
ssI422
(dp2877
g2
S'422'
p2878
sg4
g68
sg6
S'1973'
p2879
sg8
g9
sg10
S'Actor'
p2880
sg12
S'James_Marsden'
p2881
sg14
S'USA'
p2882
sg16
S'178'
p2883
ssI423
(dp2884
g2
S'423'
p2885
sg4
g68
sg6
S'1990'
p2886
sg8
g9
sg10
S'Musician'
p2887
sg12
S'James_Maslow'
p2888
sg14
S'USA'
p2889
sg16
S'185'
p2890
ssI424
(dp2891
g2
S'424'
p2892
sg4
g68
sg6
S'1965'
p2893
sg8
g9
sg10
S'Actor'
p2894
sg12
S'James_Nesbitt'
p2895
sg14
S'UK'
p2896
sg16
S'182'
p2897
ssI425
(dp2898
g2
S'425'
p2899
sg4
g5
sg6
S'1964'
p2900
sg8
g9
sg10
S'Actor'
p2901
sg12
S'James_Purefoy'
p2902
sg14
S'UK'
p2903
sg16
S'185'
p2904
ssI426
(dp2905
g2
S'426'
p2906
sg4
g68
sg6
S'1976'
p2907
sg8
g9
sg10
S'Actor'
p2908
sg12
S'James_Roday'
p2909
sg14
S'USA'
p2910
sg16
S'175'
p2911
ssI427
(dp2912
g2
S'427'
p2913
sg4
g68
sg6
S'1947'
p2914
sg8
g9
sg10
S'Actor'
p2915
sg12
S'James_Woods'
p2916
sg14
S'USA'
p2917
sg16
S'180'
p2918
ssI428
(dp2919
g2
S'428'
p2920
sg4
g5
sg6
S'1981'
p2921
sg8
g47
sg10
S'Actor'
p2922
sg12
S'Jamie-Lynn_Sigler'
p2923
sg14
S'USA'
p2924
sg16
S'165'
p2925
ssI429
(dp2926
g2
S'429'
p2927
sg4
g68
sg6
S'1983'
p2928
sg8
g47
sg10
S'Actor'
p2929
sg12
S'Jamie_Chung'
p2930
sg14
S'USA'
p2931
sg16
S'167'
p2932
ssI430
(dp2933
g2
S'430'
p2934
sg4
g68
sg6
S'1967'
p2935
sg8
g9
sg10
S'Actor'
p2936
sg12
S'Jamie_Foxx'
p2937
sg14
S'USA'
p2938
sg16
S'175'
p2939
ssI431
(dp2940
g2
S'431'
p2941
sg4
g68
sg6
S'1983'
p2942
sg8
g47
sg10
S'Actor'
p2943
sg12
S'Jana_Kramer'
p2944
sg14
S'USA'
p2945
sg16
S'163'
p2946
ssI432
(dp2947
g2
S'432'
p2948
sg4
g68
sg6
S'1953'
p2949
sg8
g47
sg10
S'Actor'
p2950
sg12
S'Jane_Badler'
p2951
sg14
S'USA'
p2952
sg16
g17
ssI433
(dp2953
g2
S'433'
p2954
sg4
g68
sg6
S'1964'
p2955
sg8
g47
sg10
S'Actor'
p2956
sg12
S'Janeane_Garofalo'
p2957
sg14
S'USA'
p2958
sg16
S'155'
p2959
ssI434
(dp2960
g2
S'434'
p2961
sg4
g68
sg6
S'1988'
p2962
sg8
g47
sg10
S'Actor'
p2963
sg12
S'Janel_Parrish'
p2964
sg14
S'USA'
p2965
sg16
S'157'
p2966
ssI435
(dp2967
g2
S'435'
p2968
sg4
g68
sg6
S'1966'
p2969
sg8
g47
sg10
S'Musician'
p2970
sg12
S'Janet_Jackson'
p2971
sg14
S'USA'
p2972
sg16
S'163'
p2973
ssI436
(dp2974
g2
S'436'
p2975
sg4
g68
sg6
S'1961'
p2976
sg8
g47
sg10
S'Actor'
p2977
sg12
S'Janet_McTeer'
p2978
sg14
S'UK'
p2979
sg16
S'185'
p2980
ssI437
(dp2981
g2
S'437'
p2982
sg4
g5
sg6
S'1985'
p2983
sg8
g47
sg10
S'Actor'
p2984
sg12
S'Janet_Montgomery'
p2985
sg14
S'UK'
p2986
sg16
g17
ssI438
(dp2987
g2
S'438'
p2988
sg4
g68
sg6
S'1955'
p2989
sg8
g47
sg10
S'Model'
p2990
sg12
S'Janice_Dickinson'
p2991
sg14
S'USA'
p2992
sg16
S'178'
p2993
ssI439
(dp2994
g2
S'439'
p2995
sg4
g68
sg6
S'1980'
p2996
sg8
g47
sg10
S'Actor'
p2997
sg12
S'Janina_Gavankar'
p2998
sg14
S'USA'
p2999
sg16
S'170'
p3000
ssI440
(dp3001
g2
S'440'
p3002
sg4
g5
sg6
S'1962'
p3003
sg8
g47
sg10
S'Actor'
p3004
sg12
S'Janine_Turner'
p3005
sg14
S'USA'
p3006
sg16
g17
ssI441
(dp3007
g2
S'441'
p3008
sg4
g5
sg6
S'1978'
p3009
sg8
g47
sg10
S'Actor'
p3010
sg12
S'January_Jones'
p3011
sg14
S'USA'
p3012
sg16
S'168'
p3013
ssI442
(dp3014
g2
S'442'
p3015
sg4
g68
sg6
S'1961'
p3016
sg8
g9
sg10
S'Actor'
p3017
sg12
S'Jared_Harris'
p3018
sg14
S'UK'
p3019
sg16
S'182'
p3020
ssI443
(dp3021
g2
S'443'
p3022
sg4
g68
sg6
S'1971'
p3023
sg8
g9
sg10
S'Actor'
p3024
sg12
S'Jared_Leto'
p3025
sg14
S'USA'
p3026
sg16
S'180'
p3027
ssI444
(dp3028
g2
S'444'
p3029
sg4
g68
sg6
S'1980'
p3030
sg8
g47
sg10
S'Actor'
p3031
sg12
S'Jasika_Nicole'
p3032
sg14
S'USA'
p3033
sg16
g17
ssI445
(dp3034
g2
S'445'
p3035
sg4
g5
sg6
S'1962'
p3036
sg8
g47
sg10
S'Actor'
p3037
sg12
S'Jasmine_Guy'
p3038
sg14
S'USA'
p3039
sg16
g17
ssI446
(dp3040
g2
S'446'
p3041
sg4
g68
sg6
S'1969'
p3042
sg8
g9
sg10
S'Actor'
p3043
sg12
S'Jason_Bateman'
p3044
sg14
S'USA'
p3045
sg16
S'180'
p3046
ssI447
(dp3047
g2
S'447'
p3048
sg4
g68
sg6
S'1969'
p3049
sg8
g9
sg10
S'Actor'
p3050
sg12
S'Jason_Clarke'
p3051
sg14
S'Austrailia'
p3052
sg16
S'187'
p3053
ssI448
(dp3054
g2
S'448'
p3055
sg4
g68
sg6
S'1973'
p3056
sg8
g9
sg10
S'Actor'
p3057
sg12
S'Jason_David_Frank'
p3058
sg14
S'USA'
p3059
sg16
S'180'
p3060
ssI449
(dp3061
g2
S'449'
p3062
sg4
g68
sg6
S'1982'
p3063
sg8
g9
sg10
S'Actor'
p3064
sg12
S'Jason_Dohring'
p3065
sg14
S'USA'
p3066
sg16
g17
ssI450
(dp3067
g2
S'450'
p3068
sg4
g68
sg6
S'1977'
p3069
sg8
g9
sg10
S'Actor'
p3070
sg12
S'Jason_Earles'
p3071
sg14
S'USA'
p3072
sg16
S'165'
p3073
ssI451
(dp3074
g2
S'451'
p3075
sg4
g68
sg6
S'1972'
p3076
sg8
g9
sg10
S'Comedian'
p3077
sg12
S'Jason_Mantzoukas'
p3078
sg14
S'USA'
p3079
sg16
g17
ssI452
(dp3080
g2
S'452'
p3081
sg4
g68
sg6
S'1980'
p3082
sg8
g9
sg10
S'Actor'
p3083
sg12
S'Jason_Segel'
p3084
sg14
S'USA'
p3085
sg16
S'193'
p3086
ssI453
(dp3087
g2
S'453'
p3088
sg4
g68
sg6
S'1982'
p3089
sg8
g9
sg10
S'Actor'
p3090
sg12
S'Jay_Baruchel'
p3091
sg14
S'Canada'
p3092
sg16
S'188'
p3093
ssI454
(dp3094
g2
S'454'
p3095
sg4
g68
sg6
S'1960'
p3096
sg8
g9
sg10
S'Actor'
p3097
sg12
S'Jean-Marc_Barr'
p3098
sg14
S'France'
p3099
sg16
S'180'
p3100
ssI455
(dp3101
g2
S'455'
p3102
sg4
g68
sg6
S'1933'
p3103
sg8
g9
sg10
S'Actor'
p3104
sg12
S'Jean-Paul_Belmondo'
p3105
sg14
S'France'
p3106
sg16
S'176'
p3107
ssI456
(dp3108
g2
S'456'
p3109
sg4
g68
sg6
S'1948'
p3110
sg8
g9
sg10
S'Actor'
p3111
sg12
S'Jean_Reno'
p3112
sg14
S'France'
p3113
sg16
S'188'
p3114
ssI457
(dp3115
g2
S'457'
p3116
sg4
g68
sg6
S'1951'
p3117
sg8
g47
sg10
S'Actor'
p3118
sg12
S'Jean_Smart'
p3119
sg14
S'USA'
p3120
sg16
S'176'
p3121
ssI458
(dp3122
g2
S'458'
p3123
sg4
g68
sg6
S'1991'
p3124
sg8
g47
sg10
S'Actor'
p3125
sg12
S'Jeanine_Mason'
p3126
sg14
S'USA'
p3127
sg16
S'163'
p3128
ssI459
(dp3129
g2
S'459'
p3130
sg4
g68
sg6
S'1979'
p3131
sg8
g47
sg10
S'Artist'
p3132
sg12
S'Jeannie_Mai'
p3133
sg14
S'USA'
p3134
sg16
S'162'
p3135
ssI460
(dp3136
g2
S'460'
p3137
sg4
g68
sg6
S'1955'
p3138
sg8
g9
sg10
S'Actor'
p3139
sg12
S'Jeff_Daniels'
p3140
sg14
S'USA'
p3141
sg16
S'189'
p3142
ssI461
(dp3143
g2
S'461'
p3144
sg4
g68
sg6
S'1962'
p3145
sg8
g9
sg10
S'Actor'
p3146
sg12
S'Jeff_Garlin'
p3147
sg14
S'USA'
p3148
sg16
S'185'
p3149
ssI462
(dp3150
g2
S'462'
p3151
sg4
g68
sg6
S'1952'
p3152
sg8
g9
sg10
S'Actor'
p3153
sg12
S'Jeff_Goldblum'
p3154
sg14
S'USA'
p3155
sg16
S'194'
p3156
ssI463
(dp3157
g2
S'463'
p3158
sg4
g68
sg6
S'1968'
p3159
sg8
g9
sg10
S'Actor'
p3160
sg12
S'Jeffrey_Donovan'
p3161
sg14
S'USA'
p3162
sg16
S'183'
p3163
ssI464
(dp3164
g2
S'464'
p3165
sg4
g68
sg6
S'1944'
p3166
sg8
g9
sg10
S'Actor'
p3167
sg12
S'Jeffrey_Tambor'
p3168
sg14
S'USA'
p3169
sg16
S'185'
p3170
ssI465
(dp3171
g2
S'465'
p3172
sg4
g68
sg6
S'1965'
p3173
sg8
g9
sg10
S'Actor'
p3174
sg12
S'Jeffrey_Wright'
p3175
sg14
S'USA'
p3176
sg16
g17
ssI466
(dp3177
g2
S'466'
p3178
sg4
g68
sg6
S'1974'
p3179
sg8
g9
sg10
S'Actor'
p3180
sg12
S'Jemaine_Clement'
p3181
sg14
S'New Zealand '
p3182
sg16
S'185'
p3183
ssI467
(dp3184
g2
S'467'
p3185
sg4
g5
sg6
S'1988'
p3186
sg8
g47
sg10
S'Actor'
p3187
sg12
S'Jen_Lilley'
p3188
sg14
S'USA'
p3189
sg16
S'157'
p3190
ssI468
(dp3191
g2
S'468'
p3192
sg4
g68
sg6
S'1957'
p3193
sg8
g47
sg10
S'Actor'
p3194
sg12
S'Jenifer_Lewis'
p3195
sg14
S'USA'
p3196
sg16
g17
ssI469
(dp3197
g2
S'469'
p3198
sg4
g68
sg6
S'1986'
p3199
sg8
g47
sg10
S'Actor'
p3200
sg12
S'Jenna_Coleman'
p3201
sg14
S'UK'
p3202
sg16
S'157'
p3203
ssI470
(dp3204
g2
S'470'
p3205
sg4
g68
sg6
S'1974'
p3206
sg8
g47
sg10
S'Actor'
p3207
sg12
S'Jenna_Fischer'
p3208
sg14
S'USA'
p3209
sg16
S'168'
p3210
ssI471
(dp3211
g2
S'471'
p3212
sg4
g68
sg6
S'1992'
p3213
sg8
g47
sg10
S'Actor'
p3214
sg12
S'Jennette_McCurdy'
p3215
sg14
S'USA'
p3216
sg16
S'157'
p3217
ssI472
(dp3218
g2
S'472'
p3219
sg4
g68
sg6
S'1963'
p3220
sg8
g47
sg10
S'Actor'
p3221
sg12
S'Jennifer_Beals'
p3222
sg14
S'USA'
p3223
sg16
S'173'
p3224
ssI473
(dp3225
g2
S'473'
p3226
sg4
g68
sg6
S'1979'
p3227
sg8
g47
sg10
S'Actor'
p3228
sg12
S'Jennifer_Carpenter'
p3229
sg14
S'USA'
p3230
sg16
S'174'
p3231
ssI474
(dp3232
g2
S'474'
p3233
sg4
g68
sg6
S'1961'
p3234
sg8
g47
sg10
S'Actor'
p3235
sg12
S'Jennifer_Coolidge'
p3236
sg14
S'USA'
p3237
sg16
S'178'
p3238
ssI475
(dp3239
g2
S'475'
p3240
sg4
g68
sg6
S'1969'
p3241
sg8
g47
sg10
S'Actor'
p3242
sg12
S'Jennifer_Ehle'
p3243
sg14
S'USA'
p3244
sg16
S'170'
p3245
ssI476
(dp3246
g2
S'476'
p3247
sg4
g68
sg6
S'1973'
p3248
sg8
g47
sg10
S'Actor'
p3249
sg12
S'Jennifer_Esposito'
p3250
sg14
S'USA'
p3251
sg16
S'168'
p3252
ssI477
(dp3253
g2
S'477'
p3254
sg4
g68
sg6
S'1958'
p3255
sg8
g47
sg10
S'Actor'
p3256
sg12
S'Jennifer_Saunders'
p3257
sg14
S'UK'
p3258
sg16
g17
ssI478
(dp3259
g2
S'478'
p3260
sg4
g68
sg6
S'1982'
p3261
sg8
g47
sg10
S'Actor'
p3262
sg12
S'Jenny_Slate'
p3263
sg14
S'USA'
p3264
sg16
S'163'
p3265
ssI479
(dp3266
g2
S'479'
p3267
sg4
g68
sg6
S'1978'
p3268
sg8
g9
sg10
S'Actor'
p3269
sg12
S'Jensen_Ackles'
p3270
sg14
S'USA'
p3271
sg16
S'186'
p3272
ssI480
(dp3273
g2
S'480'
p3274
sg4
g68
sg6
S'1960'
p3275
sg8
g9
sg10
S'Broadcaster '
p3276
sg12
S'Jeremy_Clarkson'
p3277
sg14
S'UK'
p3278
sg16
S'196'
p3279
ssI481
(dp3280
g2
S'481'
p3281
sg4
g68
sg6
S'1948'
p3282
sg8
g9
sg10
S'Actor'
p3283
sg12
S'Jeremy_Irons'
p3284
sg14
S'UK'
p3285
sg16
S'187'
p3286
ssI482
(dp3287
g2
S'482'
p3288
sg4
g68
sg6
S'1990'
p3289
sg8
g9
sg10
S'Actor'
p3290
sg12
S'Jeremy_Irvine'
p3291
sg14
S'UK'
p3292
sg16
S'185'
p3293
ssI483
(dp3294
g2
S'483'
p3295
sg4
g68
sg6
S'1965'
p3296
sg8
g9
sg10
S'Actor'
p3297
sg12
S'Jeremy_Piven'
p3298
sg14
S'USA'
p3299
sg16
S'175'
p3300
ssI484
(dp3301
g2
S'484'
p3302
sg4
g68
sg6
S'1971'
p3303
sg8
g9
sg10
S'Actor'
p3304
sg12
S'Jeremy_Renner'
p3305
sg14
S'USA'
p3306
sg16
S'175'
p3307
ssI485
(dp3308
g2
S'485'
p3309
sg4
g68
sg6
S'1997'
p3310
sg8
g9
sg10
S'Actor'
p3311
sg12
S'Jeremy_Shada'
p3312
sg14
S'USA'
p3313
sg16
S'173'
p3314
ssI486
(dp3315
g2
S'486'
p3316
sg4
g68
sg6
S'1974'
p3317
sg8
g9
sg10
S'Actor'
p3318
sg12
S'Jeremy_Sisto'
p3319
sg14
S'USA'
p3320
sg16
S'187'
p3321
ssI487
(dp3322
g2
S'487'
p3323
sg4
g68
sg6
S'1979'
p3324
sg8
g9
sg10
S'Actor'
p3325
sg12
S'Jerry_Ferrara'
p3326
sg14
S'USA'
p3327
sg16
S'163'
p3328
ssI488
(dp3329
g2
S'488'
p3330
sg4
g68
sg6
S'1977'
p3331
sg8
g9
sg10
S'Actor'
p3332
sg12
S'Jerry_Trainor'
p3333
sg14
S'USA'
p3334
sg16
S'188'
p3335
ssI489
(dp3336
g2
S'489'
p3337
sg4
g68
sg6
S'1983'
p3338
sg8
g9
sg10
S'Actor'
p3339
sg12
S'Jesse_Eisenberg'
p3340
sg14
S'USA'
p3341
sg16
S'171'
p3342
ssI490
(dp3343
g2
S'490'
p3344
sg4
g68
sg6
S'1987'
p3345
sg8
g9
sg10
S'Musician'
p3346
sg12
S'Jesse_McCartney'
p3347
sg14
S'USA'
p3348
sg16
S'176'
p3349
ssI491
(dp3350
g2
S'491'
p3351
sg4
g68
sg6
S'1978'
p3352
sg8
g9
sg10
S'Actor'
p3353
sg12
S'Jesse_Metcalfe'
p3354
sg14
S'USA'
p3355
sg16
S'177'
p3356
ssI492
(dp3357
g2
S'492'
p3358
sg4
g68
sg6
S'1979'
p3359
sg8
g9
sg10
S'Actor'
p3360
sg12
S'Jesse_Spencer'
p3361
sg14
S'Austrailia'
p3362
sg16
S'178'
p3363
ssI493
(dp3364
g2
S'493'
p3365
sg4
g68
sg6
S'1981'
p3366
sg8
g9
sg10
S'Actor'
p3367
sg12
S'Jesse_Williams'
p3368
sg14
S'USA'
p3369
sg16
S'187'
p3370
ssI494
(dp3371
g2
S'494'
p3372
sg4
g68
sg6
S'1988'
p3373
sg8
g47
sg10
S'Actor'
p3374
sg12
S'Jessica_De_Gouw'
p3375
sg14
S'Austrailia'
p3376
sg16
g17
ssI495
(dp3377
g2
S'495'
p3378
sg4
g68
sg6
S'1988'
p3379
sg8
g47
sg10
S'Actor'
p3380
sg12
S'Jessica_Lowndes'
p3381
sg14
S'Canada'
p3382
sg16
S'163'
p3383
ssI496
(dp3384
g2
S'496'
p3385
sg4
g68
sg6
S'1988'
p3386
sg8
g47
sg10
S'Musician'
p3387
sg12
S'Jessie_J'
p3388
sg14
S'UK'
p3389
sg16
S'175'
p3390
ssI497
(dp3391
g2
S'497'
p3392
sg4
g68
sg6
S'1963'
p3393
sg8
g9
sg10
S'Actor'
p3394
sg12
S'Jet_Li'
p3395
sg14
S'China'
p3396
sg16
S'168'
p3397
ssI498
(dp3398
g2
S'498'
p3399
sg4
g68
sg6
S'1972'
p3400
sg8
g47
sg10
S'Musician'
p3401
sg12
S'Jill_Scott'
p3402
sg14
S'USA'
p3403
sg16
g17
ssI499
(dp3404
g2
S'499'
p3405
sg4
g5
sg6
S'1979'
p3406
sg8
g47
sg10
S'Broadcaster '
p3407
sg12
S'Jillian_Harris'
p3408
sg14
S'Canada'
p3409
sg16
g17
ssI500
(dp3410
g2
S'500'
p3411
sg4
g68
sg6
S'1974'
p3412
sg8
g47
sg10
S'Trainer'
p3413
sg12
S'Jillian_Michaels'
p3414
sg14
S'USA'
p3415
sg16
S'159'
p3416
ssI501
(dp3417
g2
S'501'
p3418
sg4
g68
sg6
S'1949'
p3419
sg8
g9
sg10
S'Actor'
p3420
sg12
S'Jim_Broadbent'
p3421
sg14
S'UK'
p3422
sg16
S'187'
p3423
ssI502
(dp3424
g2
S'502'
p3425
sg4
g68
sg6
S'1968'
p3426
sg8
g9
sg10
S'Actor'
p3427
sg12
S'Jim_Caviezel'
p3428
sg14
S'USA'
p3429
sg16
S'188'
p3430
ssI503
(dp3431
g2
S'503'
p3432
sg4
g5
sg6
S'1977'
p3433
sg8
g9
sg10
S'Comedian'
p3434
sg12
S'Jim_Jefferies'
p3435
sg14
S'Austrailia'
p3436
sg16
S'177'
p3437
ssI504
(dp3438
g2
S'504'
p3439
sg4
g68
sg6
S'1978'
p3440
sg8
g9
sg10
S'Actor'
p3441
sg12
S'Jim_Sturgess'
p3442
sg14
S'UK'
p3443
sg16
S'184'
p3444
ssI505
(dp3445
g2
S'505'
p3446
sg4
g68
sg6
S'1974'
p3447
sg8
g9
sg10
S'Broadcaster '
p3448
sg12
S'Jimmy_Fallon'
p3449
sg14
S'USA'
p3450
sg16
S'183'
p3451
ssI506
(dp3452
g2
S'506'
p3453
sg4
g68
sg6
S'1956'
p3454
sg8
g47
sg10
S'Actor'
p3455
sg12
S'Joan_Allen'
p3456
sg14
S'USA'
p3457
sg16
S'178'
p3458
ssI507
(dp3459
g2
S'507'
p3460
sg4
g68
sg6
S'1961'
p3461
sg8
g47
sg10
S'Actor'
p3462
sg12
S'Joan_Chen'
p3463
sg14
S'China'
p3464
sg16
g17
ssI508
(dp3465
g2
S'508'
p3466
sg4
g68
sg6
S'1962'
p3467
sg8
g47
sg10
S'Actor'
p3468
sg12
S'Joan_Cusack'
p3469
sg14
S'USA'
p3470
sg16
S'175'
p3471
ssI509
(dp3472
g2
S'509'
p3473
sg4
g68
sg6
S'1933'
p3474
sg8
g47
sg10
S'Comedian'
p3475
sg12
S'Joan_Rivers'
p3476
sg14
S'USA'
p3477
sg16
g17
ssI510
(dp3478
g2
S'510'
p3479
sg4
g5
sg6
S'1979'
p3480
sg8
g47
sg10
S'Actor'
p3481
sg12
S'Joanna_Krupa'
p3482
sg14
S'Poland'
p3483
sg16
S'170'
p3484
ssI511
(dp3485
g2
S'511'
p3486
sg4
g68
sg6
S'1946'
p3487
sg8
g47
sg10
S'Actor'
p3488
sg12
S'Joanna_Lumley'
p3489
sg14
S'UK'
p3490
sg16
S'173'
p3491
ssI512
(dp3492
g2
S'512'
p3493
sg4
g68
sg6
S'1980'
p3494
sg8
g47
sg10
S'Actor'
p3495
sg12
S'Joanne_Froggatt'
p3496
sg14
S'UK'
p3497
sg16
S'157'
p3498
ssI513
(dp3499
g2
S'513'
p3500
sg4
g68
sg6
S'1957'
p3501
sg8
g9
sg10
S'Actor'
p3502
sg12
S'Joaquim_de_Almeida'
p3503
sg14
S'USA'
p3504
sg16
g17
ssI514
(dp3505
g2
S'514'
p3506
sg4
g68
sg6
S'1967'
p3507
sg8
g9
sg10
S'Actor'
p3508
sg12
S'Joe_Flanigan'
p3509
sg14
S'USA'
p3510
sg16
S'188'
p3511
ssI515
(dp3512
g2
S'515'
p3513
sg4
g68
sg6
S'1974'
p3514
sg8
g9
sg10
S'Actor'
p3515
sg12
S'Joel_Edgerton'
p3516
sg14
S'Austrailia'
p3517
sg16
S'180'
p3518
ssI516
(dp3519
g2
S'516'
p3520
sg4
g68
sg6
S'1979'
p3521
sg8
g9
sg10
S'Actor'
p3522
sg12
S'Joel_Kinnaman'
p3523
sg14
S'Sweden'
p3524
sg16
S'189'
p3525
ssI517
(dp3526
g2
S'517'
p3527
sg4
g68
sg6
S'1971'
p3528
sg8
g9
sg10
S'Comedian'
p3529
sg12
S'Joel_McHale'
p3530
sg14
S'Italy'
p3531
sg16
S'193'
p3532
ssI518
(dp3533
g2
S'518'
p3534
sg4
g68
sg6
S'1972'
p3535
sg8
g9
sg10
S'Actor'
p3536
sg12
S'John_Abraham'
p3537
sg14
S'India'
p3538
sg16
S'183'
p3539
ssI519
(dp3540
g2
S'519'
p3541
sg4
g68
sg6
S'1939'
p3542
sg8
g9
sg10
S'Actor'
p3543
sg12
S'John_Amos'
p3544
sg14
S'USA'
p3545
sg16
S'181'
p3546
ssI520
(dp3547
g2
S'520'
p3548
sg4
g68
sg6
S'1967'
p3549
sg8
g9
sg10
S'Actor'
p3550
sg12
S'John_Barrowman'
p3551
sg14
S'UK'
p3552
sg16
S'183'
p3553
ssI521
(dp3554
g2
S'521'
p3555
sg4
g68
sg6
S'1963'
p3556
sg8
g9
sg10
S'Actor'
p3557
sg12
S'John_Carroll_Lynch'
p3558
sg14
S'USA'
p3559
sg16
S'191'
p3560
ssI522
(dp3561
g2
S'522'
p3562
sg4
g68
sg6
S'1972'
p3563
sg8
g9
sg10
S'Actor'
p3564
sg12
S'John_Cho'
p3565
sg14
S'Korea'
p3566
sg16
S'178'
p3567
ssI523
(dp3568
g2
S'523'
p3569
sg4
g68
sg6
S'1939'
p3570
sg8
g9
sg10
S'Actor'
p3571
sg12
S'John_Cleese'
p3572
sg14
S'UK'
p3573
sg16
S'196'
p3574
ssI524
(dp3575
g2
S'524'
p3576
sg4
g68
sg6
S'1961'
p3577
sg8
g9
sg10
S'Actor'
p3578
sg12
S'John_Corbett'
p3579
sg14
S'USA'
p3580
sg16
S'196'
p3581
ssI525
(dp3582
g2
S'525'
p3583
sg4
g68
sg6
S'1968'
p3584
sg8
g9
sg10
S'Actor'
p3585
sg12
S'John_DiMaggio'
p3586
sg14
S'USA'
p3587
sg16
g17
ssI526
(dp3588
g2
S'526'
p3589
sg4
g5
sg6
S'1985'
p3590
sg8
g9
sg10
S'Actor'
p3591
sg12
S'John_Francis_Daley'
p3592
sg14
S'USA'
p3593
sg16
S'183'
p3594
ssI527
(dp3595
g2
S'527'
p3596
sg4
g68
sg6
S'1984'
p3597
sg8
g9
sg10
S'Actor'
p3598
sg12
S'John_Gallagher_Jr.'
p3599
sg14
S'USA'
p3600
sg16
S'175'
p3601
ssI528
(dp3602
g2
S'528'
p3603
sg4
g68
sg6
S'1952'
p3604
sg8
g9
sg10
S'Actor'
p3605
sg12
S'John_Goodman'
p3606
sg14
S'USA'
p3607
sg16
S'188'
p3608
ssI529
(dp3609
g2
S'529'
p3610
sg4
g68
sg6
S'1959'
p3611
sg8
g9
sg10
S'Actor'
p3612
sg12
S'John_Hawkes'
p3613
sg14
S'USA'
p3614
sg16
g17
ssI530
(dp3615
g2
S'530'
p3616
sg4
g68
sg6
S'1971'
p3617
sg8
g9
sg10
S'Writer'
p3618
sg12
S'John_Hodgman'
p3619
sg14
S'USA'
p3620
sg16
g17
ssI531
(dp3621
g2
S'531'
p3622
sg4
g68
sg6
S'1940'
p3623
sg8
g9
sg10
S'Actor'
p3624
sg12
S'John_Hurt'
p3625
sg14
S'UK'
p3626
sg16
S'175'
p3627
ssI532
(dp3628
g2
S'532'
p3629
sg4
g68
sg6
S'1979'
p3630
sg8
g9
sg10
S'Actor'
p3631
sg12
S'John_Krasinski'
p3632
sg14
S'USA'
p3633
sg16
S'191'
p3634
ssI533
(dp3635
g2
S'533'
p3636
sg4
g68
sg6
S'1947'
p3637
sg8
g9
sg10
S'Actor'
p3638
sg12
S'John_Larroquette'
p3639
sg14
S'USA'
p3640
sg16
S'193'
p3641
ssI534
(dp3642
g2
S'534'
p3643
sg4
g68
sg6
S'1957'
p3644
sg8
g9
sg10
S'Producer'
p3645
sg12
S'John_Lasseter'
p3646
sg14
S'USA'
p3647
sg16
g17
ssI535
(dp3648
g2
S'535'
p3649
sg4
g68
sg6
S'1975'
p3650
sg8
g9
sg10
S'Actor'
p3651
sg12
S'John_Lloyd_Young'
p3652
sg14
S'USA'
p3653
sg16
g17
ssI536
(dp3654
g2
S'536'
p3655
sg4
g68
sg6
S'1982'
p3656
sg8
g9
sg10
S'Comedian'
p3657
sg12
S'John_Mulaney'
p3658
sg14
S'USA'
p3659
sg16
S'185'
p3660
ssI537
(dp3661
g2
S'537'
p3662
sg4
g68
sg6
S'1943'
p3663
sg8
g9
sg10
S'Actor'
p3664
sg12
S'John_Nettles'
p3665
sg14
S'UK'
p3666
sg16
S'178'
p3667
ssI538
(dp3668
g2
S'538'
p3669
sg4
g68
sg6
S'1948'
p3670
sg8
g9
sg10
S'Actor'
p3671
sg12
S'John_Noble'
p3672
sg14
S'Austrailia'
p3673
sg16
g17
ssI539
(dp3674
g2
S'539'
p3675
sg4
g68
sg6
S'1977'
p3676
sg8
g9
sg10
S'Comedian'
p3677
sg12
S'John_Oliver'
p3678
sg14
S'UK'
p3679
sg16
S'183'
p3680
ssI540
(dp3681
g2
S'540'
p3682
sg4
g68
sg6
S'1944'
p3683
sg8
g9
sg10
S'Actor'
p3684
sg12
S'John_Rhys-Davies'
p3685
sg14
S'UK'
p3686
sg16
S'185'
p3687
ssI541
(dp3688
g2
S'541'
p3689
sg4
g68
sg6
S'1970'
p3690
sg8
g9
sg10
S'Actor'
p3691
sg12
S'John_Simm'
p3692
sg14
S'UK'
p3693
sg16
g17
ssI542
(dp3694
g2
S'542'
p3695
sg4
g68
sg6
S'1962'
p3696
sg8
g9
sg10
S'Actor'
p3697
sg12
S'John_Slattery'
p3698
sg14
S'USA'
p3699
sg16
S'178'
p3700
ssI543
(dp3701
g2
S'543'
p3702
sg4
g68
sg6
S'1980'
p3703
sg8
g9
sg10
S'Soccer Player'
p3704
sg12
S'John_Terry'
p3705
sg14
S'UK'
p3706
sg16
S'187'
p3707
ssI544
(dp3708
g2
S'544'
p3709
sg4
g68
sg6
S'1957'
p3710
sg8
g9
sg10
S'Actor'
p3711
sg12
S'John_Turturro'
p3712
sg14
S'USA'
p3713
sg16
S'184'
p3714
ssI545
(dp3715
g2
S'545'
p3716
sg4
g68
sg6
S'1969'
p3717
sg8
g9
sg10
S'Actor'
p3718
sg12
S'Johnathon_Schaech'
p3719
sg14
S'USA'
p3720
sg16
g17
ssI546
(dp3721
g2
S'546'
p3722
sg4
g68
sg6
S'1975'
p3723
sg8
g9
sg10
S'Actor'
p3724
sg12
S'Johnny_Galecki'
p3725
sg14
S'USA'
p3726
sg16
S'165'
p3727
ssI547
(dp3728
g2
S'547'
p3729
sg4
g68
sg6
S'1966'
p3730
sg8
g9
sg10
S'Director'
p3731
sg12
S'Jon_Favreau'
p3732
sg14
S'USA'
p3733
sg16
S'183'
p3734
ssI548
(dp3735
g2
S'548'
p3736
sg4
g68
sg6
S'1976'
p3737
sg8
g9
sg10
S'Actor'
p3738
sg12
S'Jon_Huertas'
p3739
sg14
S'USA'
p3740
sg16
g17
ssI549
(dp3741
g2
S'549'
p3742
sg4
g68
sg6
S'1957'
p3743
sg8
g9
sg10
S'Actor'
p3744
sg12
S'Jon_Lovitz'
p3745
sg14
S'USA'
p3746
sg16
g17
ssI550
(dp3747
g2
S'550'
p3748
sg4
g68
sg6
S'1919'
p3749
sg8
g9
sg10
S'Actor'
p3750
sg12
S'Jon_Pertwee'
p3751
sg14
S'UK'
p3752
sg16
g17
ssI551
(dp3753
g2
S'551'
p3754
sg4
g68
sg6
S'1970'
p3755
sg8
g9
sg10
S'Actor'
p3756
sg12
S'Jon_Seda'
p3757
sg14
S'USA'
p3758
sg16
S'173'
p3759
ssI552
(dp3760
g2
S'552'
p3761
sg4
g68
sg6
S'1982'
p3762
sg8
g9
sg10
S'Actor'
p3763
sg12
S'Jonathan_Jackson'
p3764
sg14
S'USA'
p3765
sg16
g17
ssI553
(dp3766
g2
S'553'
p3767
sg4
g68
sg6
S'1977'
p3768
sg8
g9
sg10
S'Actor'
p3769
sg12
S'Jonathan_Rhys_Meyers'
p3770
sg14
S'Ireland'
p3771
sg16
S'178'
p3772
ssI554
(dp3773
g2
S'554'
p3774
sg4
g68
sg6
S'1989'
p3775
sg8
g9
sg10
S'Actor'
p3776
sg12
S'Jordan_Gavaris'
p3777
sg14
S'Canada'
p3778
sg16
g17
ssI555
(dp3779
g2
S'555'
p3780
sg4
g68
sg6
S'1980'
p3781
sg8
g47
sg10
S'Actor'
p3782
sg12
S'Jordana_Brewster'
p3783
sg14
S'USA'
p3784
sg16
S'170'
p3785
ssI556
(dp3786
g2
S'556'
p3787
sg4
g68
sg6
S'1989'
p3788
sg8
g47
sg10
S'Musician'
p3789
sg12
S'Jordin_Sparks'
p3790
sg14
S'USA'
p3791
sg16
S'178'
p3792
ssI557
(dp3793
g2
S'557'
p3794
sg4
g68
sg6
S'1973'
p3795
sg8
g9
sg10
S'Actor'
p3796
sg12
S'Jorge_Garcia'
p3797
sg14
S'USA'
p3798
sg16
S'183'
p3799
ssI558
(dp3800
g2
S'558'
p3801
sg4
g68
sg6
S'1968'
p3802
sg8
g47
sg10
S'Actor'
p3803
sg12
S'Jorja_Fox'
p3804
sg14
S'USA'
p3805
sg16
S'178'
p3806
ssI559
(dp3807
g2
S'559'
p3808
sg4
g68
sg6
S'1981'
p3809
sg8
g9
sg10
S'Actor'
p3810
sg12
S'Joseph_Gordon-Levitt'
p3811
sg14
S'USA'
p3812
sg16
S'176'
p3813
ssI560
(dp3814
g2
S'560'
p3815
sg4
g68
sg6
S'1968'
p3816
sg8
g9
sg10
S'Actor'
p3817
sg12
S'Josh_Brolin'
p3818
sg14
S'USA'
p3819
sg16
S'179'
p3820
ssI561
(dp3821
g2
S'561'
p3822
sg4
g68
sg6
S'1972'
p3823
sg8
g9
sg10
S'Actor'
p3824
sg12
S'Josh_Duhamel'
p3825
sg14
S'USA'
p3826
sg16
S'192'
p3827
ssI562
(dp3828
g2
S'562'
p3829
sg4
g68
sg6
S'1981'
p3830
sg8
g9
sg10
S'Actor'
p3831
sg12
S'Josh_Gad'
p3832
sg14
S'USA'
p3833
sg16
S'168'
p3834
ssI563
(dp3835
g2
S'563'
p3836
sg4
g68
sg6
S'1981'
p3837
sg8
g9
sg10
S'Musician'
p3838
sg12
S'Josh_Groban'
p3839
sg14
S'USA'
p3840
sg16
S'180'
p3841
ssI564
(dp3842
g2
S'564'
p3843
sg4
g68
sg6
S'1981'
p3844
sg8
g9
sg10
S'Actor'
p3845
sg12
S'Josh_Henderson'
p3846
sg14
S'USA'
p3847
sg16
S'180'
p3848
ssI565
(dp3849
g2
S'565'
p3850
sg4
g68
sg6
S'1986'
p3851
sg8
g9
sg10
S'Actor'
p3852
sg12
S'Josh_Peck'
p3853
sg14
S'USA'
p3854
sg16
S'183'
p3855
ssI566
(dp3856
g2
S'566'
p3857
sg4
g68
sg6
S'1974'
p3858
sg8
g9
sg10
S'Actor'
p3859
sg12
S'Josh_Radnor'
p3860
sg14
S'USA'
p3861
sg16
S'182'
p3862
ssI567
(dp3863
g2
S'567'
p3864
sg4
g68
sg6
S'1987'
p3865
sg8
g47
sg10
S'Musician'
p3866
sg12
S'Joss_Stone'
p3867
sg14
S'UK'
p3868
sg16
S'178'
p3869
ssI568
(dp3870
g2
S'568'
p3871
sg4
g68
sg6
S'1964'
p3872
sg8
g9
sg10
S'Director'
p3873
sg12
S'Joss_Whedon'
p3874
sg14
S'USA'
p3875
sg16
g17
ssI569
(dp3876
g2
S'569'
p3877
sg4
g68
sg6
S'1949'
p3878
sg8
g47
sg10
S'Actor'
p3879
sg12
S'Judith_Light'
p3880
sg14
S'USA'
p3881
sg16
g17
ssI570
(dp3882
g2
S'570'
p3883
sg4
g68
sg6
S'1942'
p3884
sg8
g47
sg10
S'Lawyer'
p3885
sg12
S'Judy_Sheindlin'
p3886
sg14
S'USA'
p3887
sg16
S'155'
p3888
ssI571
(dp3889
g2
S'571'
p3890
sg4
g68
sg6
S'1961'
p3891
sg8
g47
sg10
S'Actor'
p3892
sg12
S'Julia_Louis-Dreyfus'
p3893
sg14
S'USA'
p3894
sg16
S'160'
p3895
ssI572
(dp3896
g2
S'572'
p3897
sg4
g68
sg6
S'1967'
p3898
sg8
g47
sg10
S'Actor'
p3899
sg12
S'Julia_Roberts'
p3900
sg14
S'USA'
p3901
sg16
S'175'
p3902
ssI573
(dp3903
g2
S'573'
p3904
sg4
g68
sg6
S'1981'
p3905
sg8
g47
sg10
S'Actor'
p3906
sg12
S'Julia_Stiles'
p3907
sg14
S'USA'
p3908
sg16
S'173'
p3909
ssI574
(dp3910
g2
S'574'
p3911
sg4
g68
sg6
S'1958'
p3912
sg8
g9
sg10
S'Actor'
p3913
sg12
S'Julian_Sands'
p3914
sg14
S'UK'
p3915
sg16
S'180'
p3916
ssI575
(dp3917
g2
S'575'
p3918
sg4
g68
sg6
S'1988'
p3919
sg8
g47
sg10
S'Musician'
p3920
sg12
S'Julianne_Hough'
p3921
sg14
S'USA'
p3922
sg16
S'160'
p3923
ssI576
(dp3924
g2
S'576'
p3925
sg4
g68
sg6
S'1971'
p3926
sg8
g47
sg10
S'Actor'
p3927
sg12
S'Julianne_Nicholson'
p3928
sg14
S'USA'
p3929
sg16
S'175'
p3930
ssI577
(dp3931
g2
S'577'
p3932
sg4
g68
sg6
S'1970'
p3933
sg8
g47
sg10
S'Broadcaster '
p3934
sg12
S'Julie_Chen'
p3935
sg14
S'USA'
p3936
sg16
S'164'
p3937
ssI578
(dp3938
g2
S'578'
p3939
sg4
g68
sg6
S'1981'
p3940
sg8
g47
sg10
S'Actor'
p3941
sg12
S'Julie_Gonzalo'
p3942
sg14
S'Argentina'
p3943
sg16
S'173'
p3944
ssI579
(dp3945
g2
S'579'
p3946
sg4
g68
sg6
S'1950'
p3947
sg8
g47
sg10
S'Actor'
p3948
sg12
S'Julie_Walters'
p3949
sg14
S'UK'
p3950
sg16
g17
ssI580
(dp3951
g2
S'580'
p3952
sg4
g68
sg6
S'1984'
p3953
sg8
g47
sg10
S'Actor'
p3954
sg12
S'Justine_Ezarik'
p3955
sg14
S'USA'
p3956
sg16
S'160'
p3957
ssI581
(dp3958
g2
S'581'
p3959
sg4
g68
sg6
S'1977'
p3960
sg8
g9
sg10
S'Actor'
p3961
sg12
S'Kal_Penn'
p3962
sg14
S'USA'
p3963
sg16
S'178'
p3964
ssI582
(dp3965
g2
S'582'
p3966
sg4
g68
sg6
S'1987'
p3967
sg8
g47
sg10
S'Actor'
p3968
sg12
S'Kangana_Ranaut'
p3969
sg14
S'India'
p3970
sg16
S'173'
p3971
ssI583
(dp3972
g2
S'583'
p3973
sg4
g68
sg6
S'1999'
p3974
sg8
g9
sg10
S'Actor'
p3975
sg12
S'Karan_Brar'
p3976
sg14
S'USA'
p3977
sg16
S'165'
p3978
ssI584
(dp3979
g2
S'584'
p3980
sg4
g68
sg6
S'1912'
p3981
sg8
g9
sg10
S'Actor'
p3982
sg12
S'Karl_Malden'
p3983
sg14
S'USA'
p3984
sg16
S'185'
p3985
ssI585
(dp3986
g2
S'585'
p3987
sg4
g68
sg6
S'1985'
p3988
sg8
g47
sg10
S'Actor'
p3989
sg12
S'Karla_Souza'
p3990
sg14
S'Mexico'
p3991
sg16
S'163'
p3992
ssI586
(dp3993
g2
S'586'
p3994
sg4
g68
sg6
S'1984'
p3995
sg8
g47
sg10
S'Actor'
p3996
sg12
S'Karoline_Herfurth'
p3997
sg14
S'Germany'
p3998
sg16
S'164'
p3999
ssI587
(dp4000
g2
S'587'
p4001
sg4
g68
sg6
S'1986'
p4002
sg8
g47
sg10
S'Actor'
p4003
sg12
S'Kat_Dennings'
p4004
sg14
S'USA'
p4005
sg16
S'161'
p4006
ssI588
(dp4007
g2
S'588'
p4008
sg4
g68
sg6
S'1973'
p4009
sg8
g47
sg10
S'Actor'
p4010
sg12
S'Kate_Beckinsale'
p4011
sg14
S'UK'
p4012
sg16
S'170'
p4013
ssI589
(dp4014
g2
S'589'
p4015
sg4
g68
sg6
S'1964'
p4016
sg8
g47
sg10
S'Actor'
p4017
sg12
S'Kate_Flannery'
p4018
sg14
S'USA'
p4019
sg16
g17
ssI590
(dp4020
g2
S'590'
p4021
sg4
g68
sg6
S'1987'
p4022
sg8
g47
sg10
S'Actor'
p4023
sg12
S'Kate_Mansi'
p4024
sg14
S'USA'
p4025
sg16
g17
ssI591
(dp4026
g2
S'591'
p4027
sg4
g68
sg6
S'1983'
p4028
sg8
g47
sg10
S'Actor'
p4029
sg12
S'Kate_Mara'
p4030
sg14
S'USA'
p4031
sg16
S'160'
p4032
ssI592
(dp4033
g2
S'592'
p4034
sg4
g68
sg6
S'1984'
p4035
sg8
g47
sg10
S'Actor'
p4036
sg12
S'Kate_McKinnon'
p4037
sg14
S'USA'
p4038
sg16
S'161'
p4039
ssI593
(dp4040
g2
S'593'
p4041
sg4
g68
sg6
S'1955'
p4042
sg8
g47
sg10
S'Actor'
p4043
sg12
S'Kate_Mulgrew'
p4044
sg14
S'USA'
p4045
sg16
S'165'
p4046
ssI594
(dp4047
g2
S'594'
p4048
sg4
g68
sg6
S'1986'
p4049
sg8
g47
sg10
S'Musician'
p4050
sg12
S'Kate_Voegele'
p4051
sg14
S'USA'
p4052
sg16
g17
ssI595
(dp4053
g2
S'595'
p4054
sg4
g68
sg6
S'1967'
p4055
sg8
g47
sg10
S'Actor'
p4056
sg12
S'Kate_Walsh'
p4057
sg14
S'USA'
p4058
sg16
S'178'
p4059
ssI596
(dp4060
g2
S'596'
p4061
sg4
g68
sg6
S'1980'
p4062
sg8
g47
sg10
S'Actor'
p4063
sg12
S'Katee_Sackhoff'
p4064
sg14
S'USA'
p4065
sg16
S'168'
p4066
ssI597
(dp4067
g2
S'597'
p4068
sg4
g68
sg6
S'1954'
p4069
sg8
g47
sg10
S'Actor'
p4070
sg12
S'Katey_Sagal'
p4071
sg14
S'USA'
p4072
sg16
g17
ssI598
(dp4073
g2
S'598'
p4074
sg4
g68
sg6
S'1984'
p4075
sg8
g47
sg10
S'Musician'
p4076
sg12
S'Katharine_McPhee'
p4077
sg14
S'USA'
p4078
sg16
S'173'
p4079
ssI599
(dp4080
g2
S'599'
p4081
sg4
g5
sg6
S'1978'
p4082
sg8
g47
sg10
S'Actor'
p4083
sg12
S'Katherine_Heigl'
p4084
sg14
S'USA'
p4085
sg16
S'174'
p4086
ssI600
(dp4087
g2
S'600'
p4088
sg4
g68
sg6
S'1980'
p4089
sg8
g47
sg10
S'Musician'
p4090
sg12
S'Katherine_Jenkins'
p4091
sg14
S'UK'
p4092
sg16
g17
ssI601
(dp4093
g2
S'601'
p4094
sg4
g5
sg6
S'1995'
p4095
sg8
g47
sg10
S'Actor'
p4096
sg12
S'Katherine_McNamara'
p4097
sg14
S'USA'
p4098
sg16
S'164'
p4099
ssI602
(dp4100
g2
S'602'
p4101
sg4
g68
sg6
S'1977'
p4102
sg8
g47
sg10
S'Actor'
p4103
sg12
S'Katheryn_Winnick'
p4104
sg14
S'Canada'
p4105
sg16
S'168'
p4106
ssI603
(dp4107
g2
S'603'
p4108
sg4
g68
sg6
S'1953'
p4109
sg8
g47
sg10
S'Broadcaster '
p4110
sg12
S'Kathie_Lee_Gifford'
p4111
sg14
S'France'
p4112
sg16
S'165'
p4113
ssI604
(dp4114
g2
S'604'
p4115
sg4
g5
sg6
S'1973'
p4116
sg8
g47
sg10
S'Actor'
p4117
sg12
S'Kathleen_Robertson'
p4118
sg14
S'Canada'
p4119
sg16
g17
ssI605
(dp4120
g2
S'605'
p4121
sg4
g5
sg6
S'1973'
p4122
sg8
g47
sg10
S'Actor'
p4123
sg12
S'Kathryn_Hahn'
p4124
sg14
S'USA'
p4125
sg16
S'165'
p4126
ssI606
(dp4127
g2
S'606'
p4128
sg4
g68
sg6
S'1939'
p4129
sg8
g47
sg10
S'Actor'
p4130
sg12
S'Kathryn_Joosten'
p4131
sg14
S'USA'
p4132
sg16
g17
ssI607
(dp4133
g2
S'607'
p4134
sg4
g68
sg6
S'1990'
p4135
sg8
g47
sg10
S'Actor'
p4136
sg12
S'Kathryn_McCormick'
p4137
sg14
S'USA'
p4138
sg16
g17
ssI608
(dp4139
g2
S'608'
p4140
sg4
g68
sg6
S'1991'
p4141
sg8
g47
sg10
S'Actor'
p4142
sg12
S'Kathryn_Prescott'
p4143
sg14
S'UK'
p4144
sg16
g17
ssI609
(dp4145
g2
S'609'
p4146
sg4
g68
sg6
S'1960'
p4147
sg8
g47
sg10
S'Actor'
p4148
sg12
S'Kathy_Griffin'
p4149
sg14
S'USA'
p4150
sg16
S'160'
p4151
ssI610
(dp4152
g2
S'610'
p4153
sg4
g5
sg6
S'1978'
p4154
sg8
g47
sg10
S'Actor'
p4155
sg12
S'Katie_Aselton'
p4156
sg14
S'USA'
p4157
sg16
g17
ssI611
(dp4158
g2
S'611'
p4159
sg4
g68
sg6
S'1981'
p4160
sg8
g47
sg10
S'Actor'
p4161
sg12
S'Katie_Cleary'
p4162
sg14
S'USA'
p4163
sg16
g17
ssI612
(dp4164
g2
S'612'
p4165
sg4
g68
sg6
S'1986'
p4166
sg8
g47
sg10
S'Actor'
p4167
sg12
S'Katie_Leclerc'
p4168
sg14
S'USA'
p4169
sg16
g17
ssI613
(dp4170
g2
S'613'
p4171
sg4
g68
sg6
S'1992'
p4172
sg8
g47
sg10
S'Actor'
p4173
sg12
S'Katie_Stevens'
p4174
sg14
S'USA'
p4175
sg16
S'159'
p4176
ssI614
(dp4177
g2
S'614'
p4178
sg4
g68
sg6
S'1984'
p4179
sg8
g47
sg10
S'Musician'
p4180
sg12
S'Katy_Perry'
p4181
sg14
S'USA'
p4182
sg16
S'170'
p4183
ssI615
(dp4184
g2
S'615'
p4185
sg4
g68
sg6
S'1992'
p4186
sg8
g47
sg10
S'Actor'
p4187
sg12
S'Kaya_Scodelario'
p4188
sg14
S'UK'
p4189
sg16
S'168'
p4190
ssI616
(dp4191
g2
S'616'
p4192
sg4
g68
sg6
S'1978'
p4193
sg8
g9
sg10
S'Actor'
p4194
sg12
S'Kayvan_Novak'
p4195
sg14
S'UK'
p4196
sg16
g17
ssI617
(dp4197
g2
S'617'
p4198
sg4
g68
sg6
S'1989'
p4199
sg8
g9
sg10
S'Actor'
p4200
sg12
S'Keegan_Allen'
p4201
sg14
S'USA'
p4202
sg16
S'185'
p4203
ssI618
(dp4204
g2
S'618'
p4205
sg4
g68
sg6
S'1971'
p4206
sg8
g47
sg10
S'Actor'
p4207
sg12
S'Keegan_Connor_Tracy'
p4208
sg14
S'Canada'
p4209
sg16
g17
ssI619
(dp4210
g2
S'619'
p4211
sg4
g5
sg6
S'1976'
p4212
sg8
g47
sg10
S'Actor'
p4213
sg12
S'Keeley_Hawes'
p4214
sg14
S'UK'
p4215
sg16
S'173'
p4216
ssI620
(dp4217
g2
S'620'
p4218
sg4
g68
sg6
S'1978'
p4219
sg8
g9
sg10
S'Actor'
p4220
sg12
S'Kel_Mitchell'
p4221
sg14
S'USA'
p4222
sg16
S'180'
p4223
ssI621
(dp4224
g2
S'621'
p4225
sg4
g68
sg6
S'1985'
p4226
sg8
g9
sg10
S'Actor'
p4227
sg12
S'Kellan_Lutz'
p4228
sg14
S'USA'
p4229
sg16
S'185'
p4230
ssI622
(dp4231
g2
S'622'
p4232
sg4
g68
sg6
S'1996'
p4233
sg8
g47
sg10
S'Actor'
p4234
sg12
S'Kelli_Berglund'
p4235
sg14
S'USA'
p4236
sg16
S'160'
p4237
ssI623
(dp4238
g2
S'623'
p4239
sg4
g68
sg6
S'1980'
p4240
sg8
g47
sg10
S'Actor'
p4241
sg12
S'Kelli_Giddish'
p4242
sg14
S'USA'
p4243
sg16
S'170'
p4244
ssI624
(dp4245
g2
S'624'
p4246
sg4
g5
sg6
S'1970'
p4247
sg8
g47
sg10
S'Actor'
p4248
sg12
S'Kelli_Williams'
p4249
sg14
S'USA'
p4250
sg16
S'165'
p4251
ssI625
(dp4252
g2
S'625'
p4253
sg4
g68
sg6
S'1979'
p4254
sg8
g47
sg10
S'Model'
p4255
sg12
S'Kelly_Brook'
p4256
sg14
S'UK'
p4257
sg16
S'168'
p4258
ssI626
(dp4259
g2
S'626'
p4260
sg4
g68
sg6
S'1976'
p4261
sg8
g47
sg10
S'Actor'
p4262
sg12
S'Kelly_Macdonald'
p4263
sg14
S'UK'
p4264
sg16
S'160'
p4265
ssI627
(dp4266
g2
S'627'
p4267
sg4
g68
sg6
S'1976'
p4268
sg8
g47
sg10
S'Model'
p4269
sg12
S'Kelly_Monaco'
p4270
sg14
S'USA'
p4271
sg16
S'160'
p4272
ssI628
(dp4273
g2
S'628'
p4274
sg4
g68
sg6
S'1977'
p4275
sg8
g47
sg10
S'Actor'
p4276
sg12
S'Kelly_Reilly'
p4277
sg14
S'UK'
p4278
sg16
S'168'
p4279
ssI629
(dp4280
g2
S'629'
p4281
sg4
g68
sg6
S'1968'
p4282
sg8
g47
sg10
S'Actor'
p4283
sg12
S'Kelly_Rutherford'
p4284
sg14
S'USA'
p4285
sg16
g17
ssI630
(dp4286
g2
S'630'
p4287
sg4
g68
sg6
S'1969'
p4288
sg8
g9
sg10
S'Actor'
p4289
sg12
S'Ken_Jeong'
p4290
sg14
S'USA'
p4291
sg16
S'165'
p4292
ssI631
(dp4293
g2
S'631'
p4294
sg4
g68
sg6
S'1968'
p4295
sg8
g9
sg10
S'Actor'
p4296
sg12
S'Ken_Marino'
p4297
sg14
S'USA'
p4298
sg16
g17
ssI632
(dp4299
g2
S'632'
p4300
sg4
g68
sg6
S'1978'
p4301
sg8
g9
sg10
S'Actor'
p4302
sg12
S'Kenan_Thompson'
p4303
sg14
S'USA'
p4304
sg16
S'173'
p4305
ssI633
(dp4306
g2
S'633'
p4307
sg4
g5
sg6
S'1985'
p4308
sg8
g47
sg10
S'Model'
p4309
sg12
S'Kendra_Wilkinson'
p4310
sg14
S'USA'
p4311
sg16
S'163'
p4312
ssI634
(dp4313
g2
S'634'
p4314
sg4
g68
sg6
S'1938'
p4315
sg8
g9
sg10
S'Musician'
p4316
sg12
S'Kenny_Rogers'
p4317
sg14
S'USA'
p4318
sg16
g17
ssI635
(dp4319
g2
S'635'
p4320
sg4
g68
sg6
S'1995'
p4321
sg8
g9
sg10
S'Actor'
p4322
sg12
S'Kenton_Duty'
p4323
sg14
S'USA'
p4324
sg16
S'192'
p4325
ssI636
(dp4326
g2
S'636'
p4327
sg4
g68
sg6
S'1971'
p4328
sg8
g47
sg10
S'Actor'
p4329
sg12
S'Kenya_Moore'
p4330
sg14
S'USA'
p4331
sg16
S'178'
p4332
ssI637
(dp4333
g2
S'637'
p4334
sg4
g68
sg6
S'1982'
p4335
sg8
g47
sg10
S'Musician'
p4336
sg12
S'Keri_Hilson'
p4337
sg14
S'USA'
p4338
sg16
S'175'
p4339
ssI638
(dp4340
g2
S'638'
p4341
sg4
g68
sg6
S'1976'
p4342
sg8
g47
sg10
S'Actor'
p4343
sg12
S'Keri_Russell'
p4344
sg14
S'USA'
p4345
sg16
S'163'
p4346
ssI639
(dp4347
g2
S'639'
p4348
sg4
g68
sg6
S'1987'
p4349
sg8
g47
sg10
S'Musician'
p4350
sg12
S'Kesha'
p4351
sg14
S'USA'
p4352
sg16
S'175'
p4353
ssI640
(dp4354
g2
S'640'
p4355
sg4
g68
sg6
S'1958'
p4356
sg8
g9
sg10
S'Actor'
p4357
sg12
S'Kevin_Bacon'
p4358
sg14
S'USA'
p4359
sg16
S'178'
p4360
ssI641
(dp4361
g2
S'641'
p4362
sg4
g68
sg6
S'1960'
p4363
sg8
g9
sg10
S'Actor'
p4364
sg12
S'Kevin_Clash'
p4365
sg14
S'USA'
p4366
sg16
g17
ssI642
(dp4367
g2
S'642'
p4368
sg4
g68
sg6
S'1957'
p4369
sg8
g9
sg10
S'Player'
p4370
sg12
S'Kevin_McHale'
p4371
sg14
S'USA'
p4372
sg16
S'208'
p4373
ssI643
(dp4374
g2
S'643'
p4375
sg4
g68
sg6
S'1970'
p4376
sg8
g9
sg10
S'Writer'
p4377
sg12
S'Kevin_Smith'
p4378
sg14
S'USA'
p4379
sg16
S'175'
p4380
ssI644
(dp4381
g2
S'644'
p4382
sg4
g5
sg6
S'1971'
p4383
sg8
g9
sg10
S'Musician'
p4384
sg12
S'Kid_Rock'
p4385
sg14
S'USA'
p4386
sg16
g17
ssI645
(dp4387
g2
S'645'
p4388
sg4
g68
sg6
S'1966'
p4389
sg8
g9
sg10
S'Actor'
p4390
sg12
S'Kiefer_Sutherland'
p4391
sg14
S'UK'
p4392
sg16
S'175'
p4393
ssI646
(dp4394
g2
S'646'
p4395
sg4
g68
sg6
S'1999'
p4396
sg8
g47
sg10
S'Actor'
p4397
sg12
S'Kiernan_Shipka'
p4398
sg14
S'USA'
p4399
sg16
S'157'
p4400
ssI647
(dp4401
g2
S'647'
p4402
sg4
g68
sg6
S'1978'
p4403
sg8
g47
sg10
S'Actor'
p4404
sg12
S'Kierston_Wareing'
p4405
sg14
S'UK'
p4406
sg16
g17
ssI648
(dp4407
g2
S'648'
p4408
sg4
g68
sg6
S'1969'
p4409
sg8
g47
sg10
S'Actor'
p4410
sg12
S'Kim_Raver'
p4411
sg14
S'USA'
p4412
sg16
S'172'
p4413
ssI649
(dp4414
g2
S'649'
p4415
sg4
g68
sg6
S'1978'
p4416
sg8
g47
sg10
S'Musician'
p4417
sg12
S'Kim_Zolciak-Biermann'
p4418
sg14
S'USA'
p4419
sg16
S'175'
p4420
ssI650
(dp4421
g2
S'650'
p4422
sg4
g68
sg6
S'1967'
p4423
sg8
g47
sg10
S'Actor'
p4424
sg12
S'Kimberly_Elise'
p4425
sg14
S'USA'
p4426
sg16
g17
ssI651
(dp4427
g2
S'651'
p4428
sg4
g5
sg6
S'1971'
p4429
sg8
g47
sg10
S'Actor'
p4430
sg12
S'Kimberly_Williams-Paisley'
p4431
sg14
S'USA'
p4432
sg16
S'165'
p4433
ssI652
(dp4434
g2
S'652'
p4435
sg4
g68
sg6
S'1972'
p4436
sg8
g47
sg10
S'Actor'
p4437
sg12
S'Kirsten_Vangsness'
p4438
sg14
S'USA'
p4439
sg16
S'170'
p4440
ssI653
(dp4441
g2
S'653'
p4442
sg4
g68
sg6
S'1996'
p4443
sg8
g9
sg10
S'Actor'
p4444
sg12
S'Kodi_Smit-McPhee'
p4445
sg14
S'Austrailia'
p4446
sg16
S'188'
p4447
ssI654
(dp4448
g2
S'654'
p4449
sg4
g68
sg6
S'1955'
p4450
sg8
g47
sg10
S'Broadcaster '
p4451
sg12
S'Kris_Jenner'
p4452
sg14
S'USA'
p4453
sg16
S'168'
p4454
ssI655
(dp4455
g2
S'655'
p4456
sg4
g5
sg6
S'1980'
p4457
sg8
g47
sg10
S'Actor'
p4458
sg12
S'Kristen_Bell'
p4459
sg14
S'USA'
p4460
sg16
S'155'
p4461
ssI656
(dp4462
g2
S'656'
p4463
sg4
g68
sg6
S'1967'
p4464
sg8
g47
sg10
S'Actor'
p4465
sg12
S'Kristen_Johnston'
p4466
sg14
S'USA'
p4467
sg16
S'183'
p4468
ssI657
(dp4469
g2
S'657'
p4470
sg4
g68
sg6
S'1978'
p4471
sg8
g47
sg10
S'Actor'
p4472
sg12
S'Kristen_Schaal'
p4473
sg14
S'USA'
p4474
sg16
g17
ssI658
(dp4475
g2
S'658'
p4476
sg4
g68
sg6
S'1990'
p4477
sg8
g47
sg10
S'Actor'
p4478
sg12
S'Kristen_Stewart'
p4479
sg14
S'USA'
p4480
sg16
S'165'
p4481
ssI659
(dp4482
g2
S'659'
p4483
sg4
g68
sg6
S'1973'
p4484
sg8
g47
sg10
S'Actor'
p4485
sg12
S'Kristen_Wiig'
p4486
sg14
S'USA'
p4487
sg16
S'165'
p4488
ssI660
(dp4489
g2
S'660'
p4490
sg4
g68
sg6
S'1963'
p4491
sg8
g47
sg10
S'Actor'
p4492
sg12
S'Kristian_Alfonso'
p4493
sg14
S'USA'
p4494
sg16
g17
ssI661
(dp4495
g2
S'661'
p4496
sg4
g68
sg6
S'1990'
p4497
sg8
g47
sg10
S'Actor'
p4498
sg12
S'Kriti_Sanon'
p4499
sg14
S'India'
p4500
sg16
S'175'
p4501
ssI662
(dp4502
g2
S'662'
p4503
sg4
g5
sg6
S'1978'
p4504
sg8
g9
sg10
S'Actor'
p4505
sg12
S'Kuno_Becker'
p4506
sg14
S'Mexico'
p4507
sg16
g17
ssI663
(dp4508
g2
S'663'
p4509
sg4
g68
sg6
S'1959'
p4510
sg8
g9
sg10
S'Actor'
p4511
sg12
S'Kyle_MacLachlan'
p4512
sg14
S'USA'
p4513
sg16
S'183'
p4514
ssI664
(dp4515
g2
S'664'
p4516
sg4
g68
sg6
S'1969'
p4517
sg8
g47
sg10
S'Actor'
p4518
sg12
S'Kyle_Richards'
p4519
sg14
S'USA'
p4520
sg16
S'157'
p4521
ssI665
(dp4522
g2
S'665'
p4523
sg4
g68
sg6
S'1968'
p4524
sg8
g47
sg10
S'Musician'
p4525
sg12
S'Kylie_Minogue'
p4526
sg14
S'Austrailia'
p4527
sg16
S'152'
p4528
ssI666
(dp4529
g2
S'666'
p4530
sg4
g68
sg6
S'1961'
p4531
sg8
g47
sg10
S'Comedian'
p4532
sg12
S'Kym_Whitley'
p4533
sg14
S'USA'
p4534
sg16
g17
ssI667
(dp4535
g2
S'667'
p4536
sg4
g68
sg6
S'1979'
p4537
sg8
g47
sg10
S'Broadcaster '
p4538
sg12
S'La_La_Anthony'
p4539
sg14
S'USA'
p4540
sg16
S'168'
p4541
ssI668
(dp4542
g2
S'668'
p4543
sg4
g68
sg6
S'1988'
p4544
sg8
g47
sg10
S'Actor'
p4545
sg12
S'Lacey_Turner'
p4546
sg14
S'UK'
p4547
sg16
S'160'
p4548
ssI669
(dp4549
g2
S'669'
p4550
sg4
g68
sg6
S'1979'
p4551
sg8
g47
sg10
S'Actor'
p4552
sg12
S'Laura_Benanti'
p4553
sg14
S'USA'
p4554
sg16
g17
ssI670
(dp4555
g2
S'670'
p4556
sg4
g68
sg6
S'1986'
p4557
sg8
g47
sg10
S'Actor'
p4558
sg12
S'Laura_Carmichael'
p4559
sg14
S'UK'
p4560
sg16
g17
ssI671
(dp4561
g2
S'671'
p4562
sg4
g68
sg6
S'1967'
p4563
sg8
g47
sg10
S'Actor'
p4564
sg12
S'Laura_Dern'
p4565
sg14
S'USA'
p4566
sg16
S'179'
p4567
ssI672
(dp4568
g2
S'672'
p4569
sg4
g5
sg6
S'1985'
p4570
sg8
g47
sg10
S'Actor'
p4571
sg12
S'Laura_Haddock'
p4572
sg14
S'UK'
p4573
sg16
S'172'
p4574
ssI673
(dp4575
g2
S'673'
p4576
sg4
g68
sg6
S'1975'
p4577
sg8
g47
sg10
S'Musician'
p4578
sg12
S'Lauryn_Hill'
p4579
sg14
S'USA'
p4580
sg16
g17
ssI674
(dp4581
g2
S'674'
p4582
sg4
g68
sg6
S'1968'
p4583
sg8
g9
sg10
S'Comedian'
p4584
sg12
S'Lavell_Crawford'
p4585
sg14
S'USA'
p4586
sg16
S'178'
p4587
ssI675
(dp4588
g2
S'675'
p4589
sg4
g68
sg6
S'1972'
p4590
sg8
g47
sg10
S'Actor'
p4591
sg12
S'Laverne_Cox'
p4592
sg14
S'USA'
p4593
sg16
S'180'
p4594
ssI676
(dp4595
g2
S'676'
p4596
sg4
g68
sg6
S'1974'
p4597
sg8
g9
sg10
S'Actor'
p4598
sg12
S'Laz_Alonso'
p4599
sg14
S'USA'
p4600
sg16
S'183'
p4601
ssI677
(dp4602
g2
S'677'
p4603
sg4
g68
sg6
S'1986'
p4604
sg8
g47
sg10
S'Actor'
p4605
sg12
S'Lea_Michele'
p4606
sg14
S'USA'
p4607
sg16
S'159'
p4608
ssI678
(dp4609
g2
S'678'
p4610
sg4
g68
sg6
S'1971'
p4611
sg8
g47
sg10
S'Musician'
p4612
sg12
S'Lea_Salonga'
p4613
sg14
S'Philippines '
p4614
sg16
g17
ssI679
(dp4615
g2
S'679'
p4616
sg4
g68
sg6
S'1961'
p4617
sg8
g47
sg10
S'Actor'
p4618
sg12
S'Lea_Thompson'
p4619
sg14
S'USA'
p4620
sg16
S'163'
p4621
ssI680
(dp4622
g2
S'680'
p4623
sg4
g68
sg6
S'1917'
p4624
sg8
g47
sg10
S'Musician'
p4625
sg12
S'Lena_Horne'
p4626
sg14
S'USA'
p4627
sg16
g17
ssI681
(dp4628
g2
S'681'
p4629
sg4
g68
sg6
S'1975'
p4630
sg8
g47
sg10
S'Actor'
p4631
sg12
S'Leonor_Watling'
p4632
sg14
S'Spain'
p4633
sg16
g17
ssI682
(dp4634
g2
S'682'
p4635
sg4
g68
sg6
S'1956'
p4636
sg8
g47
sg10
S'Actor'
p4637
sg12
S'Lesley_Manville'
p4638
sg14
S'UK'
p4639
sg16
g17
ssI683
(dp4640
g2
S'683'
p4641
sg4
g68
sg6
S'1974'
p4642
sg8
g47
sg10
S'Actor'
p4643
sg12
S'Leslie_Bibb'
p4644
sg14
S'USA'
p4645
sg16
S'175'
p4646
ssI684
(dp4647
g2
S'684'
p4648
sg4
g68
sg6
S'1972'
p4649
sg8
g47
sg10
S'Actor'
p4650
sg12
S'Leslie_Mann'
p4651
sg14
S'USA'
p4652
sg16
S'169'
p4653
ssI685
(dp4654
g2
S'685'
p4655
sg4
g68
sg6
S'1987'
p4656
sg8
g47
sg10
S'Actor'
p4657
sg12
S'Lily_Cole'
p4658
sg14
S'UK'
p4659
sg16
S'179'
p4660
ssI686
(dp4661
g2
S'686'
p4662
sg4
g68
sg6
S'1989'
p4663
sg8
g47
sg10
S'Actor'
p4664
sg12
S'Lily_Collins'
p4665
sg14
S'UK'
p4666
sg16
S'165'
p4667
ssI687
(dp4668
g2
S'687'
p4669
sg4
g68
sg6
S'1943'
p4670
sg8
g47
sg10
S'Actor'
p4671
sg12
S'Lin_Shaye'
p4672
sg14
S'USA'
p4673
sg16
g17
ssI688
(dp4674
g2
S'688'
p4675
sg4
g68
sg6
S'1975'
p4676
sg8
g47
sg10
S'Actor'
p4677
sg12
S'Linda_Cardellini'
p4678
sg14
S'USA'
p4679
sg16
S'160'
p4680
ssI689
(dp4681
g2
S'689'
p4682
sg4
g68
sg6
S'1942'
p4683
sg8
g47
sg10
S'Actor'
p4684
sg12
S'Linda_Evans'
p4685
sg14
S'USA'
p4686
sg16
S'172'
p4687
ssI690
(dp4688
g2
S'690'
p4689
sg4
g68
sg6
S'1940'
p4690
sg8
g47
sg10
S'Actor'
p4691
sg12
S'Linda_Gray'
p4692
sg14
S'USA'
p4693
sg16
S'172'
p4694
ssI691
(dp4695
g2
S'691'
p4696
sg4
g68
sg6
S'1937'
p4697
sg8
g47
sg10
S'Actor'
p4698
sg12
S'Linda_Lavin'
p4699
sg14
S'USA'
p4700
sg16
g17
ssI692
(dp4701
g2
S'692'
p4702
sg4
g68
sg6
S'1950'
p4703
sg8
g47
sg10
S'Actor'
p4704
sg12
S'Lindsay_Duncan'
p4705
sg14
S'UK'
p4706
sg16
g17
ssI693
(dp4707
g2
S'693'
p4708
sg4
g68
sg6
S'1990'
p4709
sg8
g47
sg10
S'Actor'
p4710
sg12
S'Lindsey_Morgan'
p4711
sg14
S'USA'
p4712
sg16
S'165'
p4713
ssI694
(dp4714
g2
S'694'
p4715
sg4
g68
sg6
S'1966'
p4716
sg8
g47
sg10
S'Actor'
p4717
sg12
S'Lisa_Edelstein'
p4718
sg14
S'USA'
p4719
sg16
S'168'
p4720
ssI695
(dp4721
g2
S'695'
p4722
sg4
g68
sg6
S'1963'
p4723
sg8
g47
sg10
S'Actor'
p4724
sg12
S'Lisa_Kudrow'
p4725
sg14
S'USA'
p4726
sg16
S'173'
p4727
ssI696
(dp4728
g2
S'696'
p4729
sg4
g68
sg6
S'1972'
p4730
sg8
g47
sg10
S'Actor'
p4731
sg12
S'Lisa_Ray'
p4732
sg14
S'Canada'
p4733
sg16
S'163'
p4734
ssI697
(dp4735
g2
S'697'
p4736
sg4
g68
sg6
S'1963'
p4737
sg8
g47
sg10
S'Actor'
p4738
sg12
S'Lisa_Rinna'
p4739
sg14
S'USA'
p4740
sg16
S'170'
p4741
ssI698
(dp4742
g2
S'698'
p4743
sg4
g68
sg6
S'1963'
p4744
sg8
g47
sg10
S'Actor'
p4745
sg12
S'Lisa_Whelchel'
p4746
sg14
S'USA'
p4747
sg16
g17
ssI699
(dp4748
g2
S'699'
p4749
sg4
g68
sg6
S'1982'
p4750
sg8
g47
sg10
S'Actor'
p4751
sg12
S'Lizzy_Caplan'
p4752
sg14
S'USA'
p4753
sg16
S'163'
p4754
ssI700
(dp4755
g2
S'700'
p4756
sg4
g68
sg6
S'1982'
p4757
sg8
g47
sg10
S'Actor'
p4758
sg12
S'Loan_Chabanol'
p4759
sg14
S'France'
p4760
sg16
g17
ssI701
(dp4761
g2
S'701'
p4762
sg4
g68
sg6
S'1982'
p4763
sg8
g47
sg10
S'Player'
p4764
sg12
S'Lolo_Jones'
p4765
sg14
S'USA'
p4766
sg16
S'175'
p4767
ssI702
(dp4768
g2
S'702'
p4769
sg4
g68
sg6
S'1996'
p4770
sg8
g47
sg10
S'Musician'
p4771
sg12
S'Lorde'
p4772
sg14
S'New Zealand '
p4773
sg16
g17
ssI703
(dp4774
g2
S'703'
p4775
sg4
g68
sg6
S'1989'
p4776
sg8
g47
sg10
S'Actor'
p4777
sg12
S'Lorenza_Izzo'
p4778
sg14
S'Chile '
p4779
sg16
S'173'
p4780
ssI704
(dp4781
g2
S'704'
p4782
sg4
g68
sg6
S'1949'
p4783
sg8
g47
sg10
S'Actor'
p4784
sg12
S'Loretta_Devine'
p4785
sg14
S'USA'
p4786
sg16
g17
ssI705
(dp4787
g2
S'705'
p4788
sg4
g68
sg6
S'1937'
p4789
sg8
g47
sg10
S'Actor'
p4790
sg12
S'Loretta_Swit'
p4791
sg14
S'USA'
p4792
sg16
S'168'
p4793
ssI706
(dp4794
g2
S'706'
p4795
sg4
g68
sg6
S'1982'
p4796
sg8
g47
sg10
S'Actor'
p4797
sg12
S'Lotte_Verbeek'
p4798
sg14
S'Netherlands'
p4799
sg16
S'168'
p4800
ssI707
(dp4801
g2
S'707'
p4802
sg4
g68
sg6
S'1962'
p4803
sg8
g9
sg10
S'Actor'
p4804
sg12
S'Lou_Diamond_Phillips'
p4805
sg14
S'Philippines '
p4806
sg16
S'185'
p4807
ssI708
(dp4808
g2
S'708'
p4809
sg4
g68
sg6
S'1951'
p4810
sg8
g9
sg10
S'Actor'
p4811
sg12
S'Lou_Ferrigno'
p4812
sg14
S'USA'
p4813
sg16
S'194'
p4814
ssI709
(dp4815
g2
S'709'
p4816
sg4
g68
sg6
S'1967'
p4817
sg8
g9
sg10
S'Actor'
p4818
sg12
S'Louis_C.K.'
p4819
sg14
S'USA'
p4820
sg16
S'183'
p4821
ssI710
(dp4822
g2
S'710'
p4823
sg4
g68
sg6
S'1970'
p4824
sg8
g9
sg10
S'Director'
p4825
sg12
S'Louis_Theroux'
p4826
sg14
S'USA'
p4827
sg16
g17
ssI711
(dp4828
g2
S'711'
p4829
sg4
g68
sg6
S'1959'
p4830
sg8
g9
sg10
S'Director'
p4831
sg12
S'Luc_Besson'
p4832
sg14
S'France'
p4833
sg16
g17
ssI712
(dp4834
g2
S'712'
p4835
sg4
g68
sg6
S'1993'
p4836
sg8
g9
sg10
S'Actor'
p4837
sg12
S'Lucas_Cruikshank'
p4838
sg14
S'USA'
p4839
sg16
S'173'
p4840
ssI713
(dp4841
g2
S'713'
p4842
sg4
g5
sg6
S'1984'
p4843
sg8
g9
sg10
S'Actor'
p4844
sg12
S'Lucas_Grabeel'
p4845
sg14
S'USA'
p4846
sg16
S'170'
p4847
ssI714
(dp4848
g2
S'714'
p4849
sg4
g68
sg6
S'1951'
p4850
sg8
g47
sg10
S'Actor'
p4851
sg12
S'Lucie_Arnaz'
p4852
sg14
S'USA'
p4853
sg16
S'178'
p4854
ssI715
(dp4855
g2
S'715'
p4856
sg4
g5
sg6
S'1989'
p4857
sg8
g47
sg10
S'Actor'
p4858
sg12
S'Lucy_Hale'
p4859
sg14
S'USA'
p4860
sg16
S'157'
p4861
ssI716
(dp4862
g2
S'716'
p4863
sg4
g68
sg6
S'1977'
p4864
sg8
g47
sg10
S'Actor'
p4865
sg12
S'Lucy_Punch'
p4866
sg14
S'UK'
p4867
sg16
S'173'
p4868
ssI717
(dp4869
g2
S'717'
p4870
sg4
g68
sg6
S'1977'
p4871
sg8
g9
sg10
S'Musician'
p4872
sg12
S'Ludacris'
p4873
sg14
S'USA'
p4874
sg16
S'173'
p4875
ssI718
(dp4876
g2
S'718'
p4877
sg4
g68
sg6
S'1984'
p4878
sg8
g9
sg10
S'Actor'
p4879
sg12
S'Luke_Arnold'
p4880
sg14
S'Austrailia'
p4881
sg16
g17
ssI719
(dp4882
g2
S'719'
p4883
sg4
g68
sg6
S'1979'
p4884
sg8
g9
sg10
S'Actor'
p4885
sg12
S'Luke_Evans'
p4886
sg14
S'UK'
p4887
sg16
S'183'
p4888
ssI720
(dp4889
g2
S'720'
p4890
sg4
g5
sg6
S'1990'
p4891
sg8
g9
sg10
S'Actor'
p4892
sg12
S'Luke_Newberry'
p4893
sg14
S'UK'
p4894
sg16
g17
ssI721
(dp4895
g2
S'721'
p4896
sg4
g68
sg6
S'1977'
p4897
sg8
g47
sg10
S'Actor'
p4898
sg12
S'Maggie_Gyllenhaal'
p4899
sg14
S'USA'
p4900
sg16
S'175'
p4901
ssI722
(dp4902
g2
S'722'
p4903
sg4
g68
sg6
S'1978'
p4904
sg8
g47
sg10
S'Actor'
p4905
sg12
S'Malin_Akerman'
p4906
sg14
S'Canada'
p4907
sg16
S'173'
p4908
ssI723
(dp4909
g2
S'723'
p4910
sg4
g68
sg6
S'1976'
p4911
sg8
g47
sg10
S'Actor'
p4912
sg12
S'Mallika_Sherawat'
p4913
sg14
S'India'
p4914
sg16
S'169'
p4915
ssI724
(dp4916
g2
S'724'
p4917
sg4
g5
sg6
S'1983'
p4918
sg8
g47
sg10
S'Actor'
p4919
sg12
S'Mamie_Gummer'
p4920
sg14
S'USA'
p4921
sg16
g17
ssI725
(dp4922
g2
S'725'
p4923
sg4
g68
sg6
S'1952'
p4924
sg8
g9
sg10
S'Actor'
p4925
sg12
S'Mandy_Patinkin'
p4926
sg14
S'USA'
p4927
sg16
S'185'
p4928
ssI726
(dp4929
g2
S'726'
p4930
sg4
g68
sg6
S'1983'
p4931
sg8
g9
sg10
S'Actor'
p4932
sg12
S'Manish_Dayal'
p4933
sg14
S'USA'
p4934
sg16
g17
ssI727
(dp4935
g2
S'727'
p4936
sg4
g68
sg6
S'1972'
p4937
sg8
g9
sg10
S'Actor'
p4938
sg12
S'Marc_Blucas'
p4939
sg14
S'USA'
p4940
sg16
S'188'
p4941
ssI728
(dp4942
g2
S'728'
p4943
sg4
g68
sg6
S'1969'
p4944
sg8
g9
sg10
S'Director'
p4945
sg12
S'Marc_Forster'
p4946
sg14
S'Germany'
p4947
sg16
g17
ssI729
(dp4948
g2
S'729'
p4949
sg4
g68
sg6
S'1974'
p4950
sg8
g9
sg10
S'Director'
p4951
sg12
S'Marc_Webb'
p4952
sg14
S'USA'
p4953
sg16
g17
ssI730
(dp4954
g2
S'730'
p4955
sg4
g68
sg6
S'1962'
p4956
sg8
g47
sg10
S'Actor'
p4957
sg12
S'Marcia_Cross'
p4958
sg14
S'USA'
p4959
sg16
S'178'
p4960
ssI731
(dp4961
g2
S'731'
p4962
sg4
g68
sg6
S'1959'
p4963
sg8
g47
sg10
S'Actor'
p4964
sg12
S'Marcia_Gay_Harden'
p4965
sg14
S'USA'
p4966
sg16
g17
ssI732
(dp4967
g2
S'732'
p4968
sg4
g68
sg6
S'1951'
p4969
sg8
g47
sg10
S'Actor'
p4970
sg12
S'Margo_Martindale'
p4971
sg14
S'USA'
p4972
sg16
g17
ssI733
(dp4973
g2
S'733'
p4974
sg4
g68
sg6
S'1990'
p4975
sg8
g47
sg10
S'Actor'
p4976
sg12
S'Margot_Robbie'
p4977
sg14
S'Austrailia'
p4978
sg16
S'168'
p4979
ssI734
(dp4980
g2
S'734'
p4981
sg4
g5
sg6
S'1970'
p4982
sg8
g47
sg10
S'Comedian'
p4983
sg12
S'Maria_Bamford'
p4984
sg14
S'USA'
p4985
sg16
g17
ssI735
(dp4986
g2
S'735'
p4987
sg4
g68
sg6
S'1966'
p4988
sg8
g47
sg10
S'Actor'
p4989
sg12
S'Maria_Canals-Barrera'
p4990
sg14
S'USA'
p4991
sg16
g17
ssI736
(dp4992
g2
S'736'
p4993
sg4
g68
sg6
S'1968'
p4994
sg8
g47
sg10
S'Actor'
p4995
sg12
S'Maria_Grazia_Cucinotta'
p4996
sg14
S'Italy'
p4997
sg16
S'177'
p4998
ssI737
(dp4999
g2
S'737'
p5000
sg4
g68
sg6
S'1978'
p5001
sg8
g47
sg10
S'Actor'
p5002
sg12
S'Maria_Menounos'
p5003
sg14
S'USA'
p5004
sg16
S'173'
p5005
ssI738
(dp5006
g2
S'738'
p5007
sg4
g68
sg6
S'1987'
p5008
sg8
g47
sg10
S'Player'
p5009
sg12
S'Maria_Sharapova'
p5010
sg14
S'Russia'
p5011
sg16
S'188'
p5012
ssI739
(dp5013
g2
S'739'
p5014
sg4
g68
sg6
S'1965'
p5015
sg8
g47
sg10
S'Actor'
p5016
sg12
S'Maria_de_Medeiros'
p5017
sg14
S'Portugal'
p5018
sg16
g17
ssI740
(dp5019
g2
S'740'
p5020
sg4
g68
sg6
S'1986'
p5021
sg8
g47
sg10
S'Actor'
p5022
sg12
S'Marie_Avgeropoulos'
p5023
sg14
S'Canada'
p5024
sg16
S'165'
p5025
ssI741
(dp5026
g2
S'741'
p5027
sg4
g68
sg6
S'1959'
p5028
sg8
g47
sg10
S'Musician'
p5029
sg12
S'Marie_Osmond'
p5030
sg14
S'USA'
p5031
sg16
S'165'
p5032
ssI742
(dp5033
g2
S'742'
p5034
sg4
g68
sg6
S'1961'
p5035
sg8
g47
sg10
S'Actor'
p5036
sg12
S'Mariel_Hemingway'
p5037
sg14
S'USA'
p5038
sg16
S'180'
p5039
ssI743
(dp5040
g2
S'743'
p5041
sg4
g68
sg6
S'1952'
p5042
sg8
g47
sg10
S'Actor'
p5043
sg12
S'Marilu_Henner'
p5044
sg14
S'USA'
p5045
sg16
S'170'
p5046
ssI744
(dp5047
g2
S'744'
p5048
sg4
g68
sg6
S'1986'
p5049
sg8
g9
sg10
S'Actor'
p5050
sg12
S'Mario_Casas'
p5051
sg14
S'Spain'
p5052
sg16
S'180'
p5053
ssI745
(dp5054
g2
S'745'
p5055
sg4
g68
sg6
S'1973'
p5056
sg8
g9
sg10
S'Actor'
p5057
sg12
S'Mario_Lopez'
p5058
sg14
S'USA'
p5059
sg16
S'178'
p5060
ssI746
(dp5061
g2
S'746'
p5062
sg4
g68
sg6
S'1975'
p5063
sg8
g47
sg10
S'Actor'
p5064
sg12
S'Marion_Cotillard'
p5065
sg14
S'France'
p5066
sg16
S'169'
p5067
ssI747
(dp5068
g2
S'747'
p5069
sg4
g68
sg6
S'1928'
p5070
sg8
g47
sg10
S'Actor'
p5071
sg12
S'Marion_Ross'
p5072
sg14
S'USA'
p5073
sg16
g17
ssI748
(dp5074
g2
S'748'
p5075
sg4
g5
sg6
S'1978'
p5076
sg8
g47
sg10
S'Actor'
p5077
sg12
S'Marisa_Miller'
p5078
sg14
S'USA'
p5079
sg16
S'173'
p5080
ssI749
(dp5081
g2
S'749'
p5082
sg4
g68
sg6
S'1971'
p5083
sg8
g9
sg10
S'Actor'
p5084
sg12
S'Mark_Feuerstein'
p5085
sg14
S'USA'
p5086
sg16
S'173'
p5087
ssI750
(dp5088
g2
S'750'
p5089
sg4
g68
sg6
S'1966'
p5090
sg8
g9
sg10
S'Actor'
p5091
sg12
S'Mark_Gatiss'
p5092
sg14
S'UK'
p5093
sg16
S'185'
p5094
ssI751
(dp5095
g2
S'751'
p5096
sg4
g68
sg6
S'1951'
p5097
sg8
g9
sg10
S'Actor'
p5098
sg12
S'Mark_Hamill'
p5099
sg14
S'USA'
p5100
sg16
S'175'
p5101
ssI752
(dp5102
g2
S'752'
p5103
sg4
g68
sg6
S'1951'
p5104
sg8
g9
sg10
S'Actor'
p5105
sg12
S'Mark_Harmon'
p5106
sg14
S'USA'
p5107
sg16
S'183'
p5108
ssI753
(dp5109
g2
S'753'
p5110
sg4
g68
sg6
S'1967'
p5111
sg8
g9
sg10
S'Actor'
p5112
sg12
S'Mark_Ruffalo'
p5113
sg14
S'USA'
p5114
sg16
S'173'
p5115
ssI754
(dp5116
g2
S'754'
p5117
sg4
g68
sg6
S'1964'
p5118
sg8
g9
sg10
S'Actor'
p5119
sg12
S'Mark_Sheppard'
p5120
sg14
S'UK'
p5121
sg16
S'174'
p5122
ssI755
(dp5123
g2
S'755'
p5124
sg4
g68
sg6
S'1963'
p5125
sg8
g9
sg10
S'Actor'
p5126
sg12
S'Mark_Strong'
p5127
sg14
S'UK'
p5128
sg16
S'188'
p5129
ssI756
(dp5130
g2
S'756'
p5131
sg4
g68
sg6
S'1976'
p5132
sg8
g9
sg10
S'Player'
p5133
sg12
S'Mark_Webber'
p5134
sg14
S'Austrailia'
p5135
sg16
S'184'
p5136
ssI757
(dp5137
g2
S'757'
p5138
sg4
g68
sg6
S'1931'
p5139
sg8
g47
sg10
S'Actor'
p5140
sg12
S'Marla_Gibbs'
p5141
sg14
S'USA'
p5142
sg16
g17
ssI758
(dp5143
g2
S'758'
p5144
sg4
g68
sg6
S'1961'
p5145
sg8
g9
sg10
S'Actor'
p5146
sg12
S'Martin_Clunes'
p5147
sg14
S'UK'
p5148
sg16
S'189'
p5149
ssI759
(dp5150
g2
S'759'
p5151
sg4
g68
sg6
S'1975'
p5152
sg8
g9
sg10
S'Actor'
p5153
sg12
S'Martin_Henderson'
p5154
sg14
S'New Zealand '
p5155
sg16
S'178'
p5156
ssI760
(dp5157
g2
S'760'
p5158
sg4
g68
sg6
S'1946'
p5159
sg8
g9
sg10
S'Actor'
p5160
sg12
S'Martin_Kove'
p5161
sg14
S'USA'
p5162
sg16
S'185'
p5163
ssI761
(dp5164
g2
S'761'
p5165
sg4
g5
sg6
S'1945'
p5166
sg8
g9
sg10
S'Actor'
p5167
sg12
S'Martin_Shaw'
p5168
sg14
S'UK'
p5169
sg16
S'174'
p5170
ssI762
(dp5171
g2
S'762'
p5172
sg4
g68
sg6
S'1976'
p5173
sg8
g47
sg10
S'Actor'
p5174
sg12
S'Martine_McCutcheon'
p5175
sg14
S'UK'
p5176
sg16
g17
ssI763
(dp5177
g2
S'763'
p5178
sg4
g68
sg6
S'1964'
p5179
sg8
g47
sg10
S'Actor'
p5180
sg12
S'Mary-Louise_Parker'
p5181
sg14
S'USA'
p5182
sg16
S'173'
p5183
ssI764
(dp5184
g2
S'764'
p5185
sg4
g68
sg6
S'1984'
p5186
sg8
g47
sg10
S'Actor'
p5187
sg12
S'Mary_Elizabeth_Winstead'
p5188
sg14
S'USA'
p5189
sg16
S'173'
p5190
ssI765
(dp5191
g2
S'765'
p5192
sg4
g68
sg6
S'1971'
p5193
sg8
g47
sg10
S'Actor'
p5194
sg12
S'Mary_Lynn_Rajskub'
p5195
sg14
S'USA'
p5196
sg16
g17
ssI766
(dp5197
g2
S'766'
p5198
sg4
g68
sg6
S'1952'
p5199
sg8
g47
sg10
S'Actor'
p5200
sg12
S'Mary_McDonnell'
p5201
sg14
S'USA'
p5202
sg16
g17
ssI767
(dp5203
g2
S'767'
p5204
sg4
g68
sg6
S'1965'
p5205
sg8
g9
sg10
S'Actor'
p5206
sg12
S'Mathieu_Amalric'
p5207
sg14
S'France'
p5208
sg16
g17
ssI768
(dp5209
g2
S'768'
p5210
sg4
g68
sg6
S'1967'
p5211
sg8
g9
sg10
S'Actor'
p5212
sg12
S'Mathieu_Kassovitz'
p5213
sg14
S'France'
p5214
sg16
S'177'
p5215
ssI769
(dp5216
g2
S'769'
p5217
sg4
g68
sg6
S'1965'
p5218
sg8
g47
sg10
S'Actor'
p5219
sg12
S'Mathilda_May'
p5220
sg14
S'France'
p5221
sg16
S'178'
p5222
ssI770
(dp5223
g2
S'770'
p5224
sg4
g68
sg6
S'1977'
p5225
sg8
g9
sg10
S'Actor'
p5226
sg12
S'Matt_Bomer'
p5227
sg14
S'USA'
p5228
sg16
S'182'
p5229
ssI771
(dp5230
g2
S'771'
p5231
sg4
g5
sg6
S'1982'
p5232
sg8
g9
sg10
S'Actor'
p5233
sg12
S'Matt_Dallas'
p5234
sg14
S'USA'
p5235
sg16
S'183'
p5236
ssI772
(dp5237
g2
S'772'
p5238
sg4
g68
sg6
S'1983'
p5239
sg8
g9
sg10
S'Actor'
p5240
sg12
S'Matt_Lanter'
p5241
sg14
S'USA'
p5242
sg16
S'178'
p5243
ssI773
(dp5244
g2
S'773'
p5245
sg4
g68
sg6
S'1982'
p5246
sg8
g9
sg10
S'Actor'
p5247
sg12
S'Matt_Smith'
p5248
sg14
S'UK'
p5249
sg16
S'182'
p5250
ssI774
(dp5251
g2
S'774'
p5252
sg4
g5
sg6
S'1966'
p5253
sg8
g9
sg10
S'Actor'
p5254
sg12
S'Matthew_Fox'
p5255
sg14
S'USA'
p5256
sg16
S'188'
p5257
ssI775
(dp5258
g2
S'775'
p5259
sg4
g5
sg6
S'1978'
p5260
sg8
g9
sg10
S'Actor'
p5261
sg12
S'Matthew_Goode'
p5262
sg14
S'UK'
p5263
sg16
S'187'
p5264
ssI776
(dp5265
g2
S'776'
p5266
sg4
g68
sg6
S'1970'
p5267
sg8
g9
sg10
S'Actor'
p5268
sg12
S'Matthew_Lillard'
p5269
sg14
S'USA'
p5270
sg16
S'191'
p5271
ssI777
(dp5272
g2
S'777'
p5273
sg4
g5
sg6
S'1974'
p5274
sg8
g9
sg10
S'Actor'
p5275
sg12
S'Matthew_Macfadyen'
p5276
sg14
S'UK'
p5277
sg16
S'191'
p5278
ssI778
(dp5279
g2
S'778'
p5280
sg4
g68
sg6
S'1959'
p5281
sg8
g9
sg10
S'Actor'
p5282
sg12
S'Matthew_Modine'
p5283
sg14
S'USA'
p5284
sg16
S'193'
p5285
ssI779
(dp5286
g2
S'779'
p5287
sg4
g68
sg6
S'1978'
p5288
sg8
g9
sg10
S'Actor'
p5289
sg12
S'Matthew_Morrison'
p5290
sg14
S'USA'
p5291
sg16
S'183'
p5292
ssI780
(dp5293
g2
S'780'
p5294
sg4
g68
sg6
S'1986'
p5295
sg8
g9
sg10
S'Actor'
p5296
sg12
S'Max_Adler'
p5297
sg14
S'USA'
p5298
sg16
g17
ssI781
(dp5299
g2
S'781'
p5300
sg4
g68
sg6
S'1985'
p5301
sg8
g9
sg10
S'Actor'
p5302
sg12
S'Max_Irons'
p5303
sg14
S'UK'
p5304
sg16
S'188'
p5305
ssI782
(dp5306
g2
S'782'
p5307
sg4
g68
sg6
S'1992'
p5308
sg8
g9
sg10
S'Musician'
p5309
sg12
S'Max_Schneider'
p5310
sg14
S'USA'
p5311
sg16
g17
ssI783
(dp5312
g2
S'783'
p5313
sg4
g68
sg6
S'1988'
p5314
sg8
g9
sg10
S'Actor'
p5315
sg12
S'Max_Thieriot'
p5316
sg14
S'USA'
p5317
sg16
S'180'
p5318
ssI784
(dp5319
g2
S'784'
p5320
sg4
g68
sg6
S'1972'
p5321
sg8
g47
sg10
S'Actor'
p5322
sg12
S'Maya_Rudolph'
p5323
sg14
S'USA'
p5324
sg16
g17
ssI785
(dp5325
g2
S'785'
p5326
sg4
g68
sg6
S'1947'
p5327
sg8
g9
sg10
S'Musician'
p5328
sg12
S'Meat_Loaf'
p5329
sg14
S'USA'
p5330
sg16
g17
ssI786
(dp5331
g2
S'786'
p5332
sg4
g68
sg6
S'1986'
p5333
sg8
g47
sg10
S'Actor'
p5334
sg12
S'Megan_Fox'
p5335
sg14
S'USA'
p5336
sg16
S'163'
p5337
ssI787
(dp5338
g2
S'787'
p5339
sg4
g68
sg6
S'1993'
p5340
sg8
g47
sg10
S'Musician'
p5341
sg12
S'Meghan_Trainor'
p5342
sg14
S'USA'
p5343
sg16
S'164'
p5344
ssI788
(dp5345
g2
S'788'
p5346
sg4
g5
sg6
S'1976'
p5347
sg8
g47
sg10
S'Actor'
p5348
sg12
S'Melissa_George'
p5349
sg14
S'Austrailia'
p5350
sg16
S'171'
p5351
ssI789
(dp5352
g2
S'789'
p5353
sg4
g68
sg6
S'1960'
p5354
sg8
g47
sg10
S'Actor'
p5355
sg12
S'Melissa_Leo'
p5356
sg14
S'USA'
p5357
sg16
g17
ssI790
(dp5358
g2
S'790'
p5359
sg4
g68
sg6
S'1970'
p5360
sg8
g47
sg10
S'Actor'
p5361
sg12
S'Melissa_McCarthy'
p5362
sg14
S'USA'
p5363
sg16
S'157'
p5364
ssI791
(dp5365
g2
S'791'
p5366
sg4
g68
sg6
S'1971'
p5367
sg8
g47
sg10
S'Actor'
p5368
sg12
S'Melissa_Peterman'
p5369
sg14
S'USA'
p5370
sg16
S'178'
p5371
ssI792
(dp5372
g2
S'792'
p5373
sg4
g68
sg6
S'1980'
p5374
sg8
g47
sg10
S'Actor'
p5375
sg12
S'Melissa_Rauch'
p5376
sg14
S'USA'
p5377
sg16
S'150'
p5378
ssI793
(dp5379
g2
S'793'
p5380
sg4
g68
sg6
S'1983'
p5381
sg8
g47
sg10
S'Broadcaster '
p5382
sg12
S'Melissa_Rycroft'
p5383
sg14
S'USA'
p5384
sg16
S'160'
p5385
ssI794
(dp5386
g2
S'794'
p5387
sg4
g68
sg6
S'1956'
p5388
sg8
g47
sg10
S'Actor'
p5389
sg12
S'Melody_Thomas_Scott'
p5390
sg14
S'USA'
p5391
sg16
g17
ssI795
(dp5392
g2
S'795'
p5393
sg4
g68
sg6
S'1967'
p5394
sg8
g47
sg10
S'Actor'
p5395
sg12
S'Melora_Hardin'
p5396
sg14
S'USA'
p5397
sg16
S'165'
p5398
ssI796
(dp5399
g2
S'796'
p5400
sg4
g68
sg6
S'1979'
p5401
sg8
g47
sg10
S'Actor'
p5402
sg12
S'Mena_Suvari'
p5403
sg14
S'USA'
p5404
sg16
S'161'
p5405
ssI797
(dp5406
g2
S'797'
p5407
sg4
g68
sg6
S'1947'
p5408
sg8
g47
sg10
S'Actor'
p5409
sg12
S'Meredith_Baxter'
p5410
sg14
S'USA'
p5411
sg16
g17
ssI798
(dp5412
g2
S'798'
p5413
sg4
g5
sg6
S'1989'
p5414
sg8
g47
sg10
S'Actor'
p5415
sg12
S'Mia_Wasikowska'
p5416
sg14
S'Austrailia'
p5417
sg16
S'162'
p5418
ssI799
(dp5419
g2
S'799'
p5420
sg4
g68
sg6
S'1965'
p5421
sg8
g9
sg10
S'Director'
p5422
sg12
S'Michael_Bay'
p5423
sg14
S'USA'
p5424
sg16
S'185'
p5425
ssI800
(dp5426
g2
S'800'
p5427
sg4
g68
sg6
S'1971'
p5428
sg8
g9
sg10
S'Actor'
p5429
sg12
S'Michael_C._Hall'
p5430
sg14
S'USA'
p5431
sg16
S'177'
p5432
ssI801
(dp5433
g2
S'801'
p5434
sg4
g68
sg6
S'1988'
p5435
sg8
g9
sg10
S'Actor'
p5436
sg12
S'Michael_Cera'
p5437
sg14
S'Canada'
p5438
sg16
S'175'
p5439
ssI802
(dp5440
g2
S'802'
p5441
sg4
g5
sg6
S'1982'
p5442
sg8
g9
sg10
S'Actor'
p5443
sg12
S'Michael_Copon'
p5444
sg14
S'USA'
p5445
sg16
g17
ssI803
(dp5446
g2
S'803'
p5447
sg4
g68
sg6
S'1942'
p5448
sg8
g9
sg10
S'Writer'
p5449
sg12
S'Michael_Crichton'
p5450
sg14
S'USA'
p5451
sg16
S'206'
p5452
ssI804
(dp5453
g2
S'804'
p5454
sg4
g68
sg6
S'1964'
p5455
sg8
g9
sg10
S'Actor'
p5456
sg12
S'Michael_Cudlitz'
p5457
sg14
S'USA'
p5458
sg16
S'188'
p5459
ssI805
(dp5460
g2
S'805'
p5461
sg4
g68
sg6
S'1967'
p5462
sg8
g9
sg10
S'Actor'
p5463
sg12
S'Michael_Jai_White'
p5464
sg14
S'USA'
p5465
sg16
S'185'
p5466
ssI806
(dp5467
g2
S'806'
p5468
sg4
g68
sg6
S'1966'
p5469
sg8
g9
sg10
S'Actor'
p5470
sg12
S'Michael_K._Williams'
p5471
sg14
S'USA'
p5472
sg16
S'178'
p5473
ssI807
(dp5474
g2
S'807'
p5475
sg4
g68
sg6
S'1969'
p5476
sg8
g9
sg10
S'Actor'
p5477
sg12
S'Michael_Kelly'
p5478
sg14
S'USA'
p5479
sg16
S'178'
p5480
ssI808
(dp5481
g2
S'808'
p5482
sg4
g68
sg6
S'1958'
p5483
sg8
g9
sg10
S'Actor'
p5484
sg12
S'Michael_Madsen'
p5485
sg14
S'USA'
p5486
sg16
S'188'
p5487
ssI809
(dp5488
g2
S'809'
p5489
sg4
g68
sg6
S'1981'
p5490
sg8
g9
sg10
S'Actor'
p5491
sg12
S'Michael_Mando'
p5492
sg14
S'Canada'
p5493
sg16
g17
ssI810
(dp5494
g2
S'810'
p5495
sg4
g68
sg6
S'1975'
p5496
sg8
g9
sg10
S'Actor'
p5497
sg12
S'Michael_Muhney'
p5498
sg14
S'USA'
p5499
sg16
S'185'
p5500
ssI811
(dp5501
g2
S'811'
p5502
sg4
g5
sg6
S'1974'
p5503
sg8
g9
sg10
S'Actor'
p5504
sg12
S'Michael_Shannon'
p5505
sg14
S'USA'
p5506
sg16
S'190'
p5507
ssI812
(dp5508
g2
S'812'
p5509
sg4
g68
sg6
S'1987'
p5510
sg8
g9
sg10
S'Actor'
p5511
sg12
S'Michael_Socha'
p5512
sg14
S'UK'
p5513
sg16
g17
ssI813
(dp5514
g2
S'813'
p5515
sg4
g68
sg6
S'1985'
p5516
sg8
g9
sg10
S'Actor'
p5517
sg12
S'Michael_Trevino'
p5518
sg14
S'USA'
p5519
sg16
S'175'
p5520
ssI814
(dp5521
g2
S'814'
p5522
sg4
g68
sg6
S'1968'
p5523
sg8
g9
sg10
S'Actor'
p5524
sg12
S'Michael_Weatherly'
p5525
sg14
S'USA'
p5526
sg16
S'188'
p5527
ssI815
(dp5528
g2
S'815'
p5529
sg4
g5
sg6
S'1978'
p5530
sg8
g47
sg10
S'Actor'
p5531
sg12
S'Michaela_Conlin'
p5532
sg14
S'USA'
p5533
sg16
S'172'
p5534
ssI816
(dp5535
g2
S'816'
p5536
sg4
g5
sg6
S'1981'
p5537
sg8
g47
sg10
S'Actor'
p5538
sg12
S'Michelle_Dockery'
p5539
sg14
S'UK'
p5540
sg16
S'173'
p5541
ssI817
(dp5542
g2
S'817'
p5543
sg4
g5
sg6
S'1987'
p5544
sg8
g47
sg10
S'Actor'
p5545
sg12
S'Michelle_Keegan'
p5546
sg14
S'UK'
p5547
sg16
S'163'
p5548
ssI818
(dp5549
g2
S'818'
p5550
sg4
g68
sg6
S'1974'
p5551
sg8
g47
sg10
S'Actor'
p5552
sg12
S'Michelle_Krusiec'
p5553
sg14
S'USA'
p5554
sg16
g17
ssI819
(dp5555
g2
S'819'
p5556
sg4
g5
sg6
S'1976'
p5557
sg8
g47
sg10
S'Actor'
p5558
sg12
S'Michelle_Monaghan'
p5559
sg14
S'USA'
p5560
sg16
S'170'
p5561
ssI820
(dp5562
g2
S'820'
p5563
sg4
g68
sg6
S'1965'
p5564
sg8
g47
sg10
S'Actor'
p5565
sg12
S'Michelle_Stafford'
p5566
sg14
S'USA'
p5567
sg16
S'172'
p5568
ssI821
(dp5569
g2
S'821'
p5570
sg4
g68
sg6
S'1980'
p5571
sg8
g47
sg10
S'Actor'
p5572
sg12
S'Michelle_Williams'
p5573
sg14
S'USA'
p5574
sg16
S'163'
p5575
ssI822
(dp5576
g2
S'822'
p5577
sg4
g68
sg6
S'1983'
p5578
sg8
g47
sg10
S'Actor'
p5579
sg12
S'Mila_Kunis'
p5580
sg14
S'USA'
p5581
sg16
S'163'
p5582
ssI823
(dp5583
g2
S'823'
p5584
sg4
g68
sg6
S'1987'
p5585
sg8
g9
sg10
S'Actor'
p5586
sg12
S'Miles_Teller'
p5587
sg14
S'USA'
p5588
sg16
S'183'
p5589
ssI824
(dp5590
g2
S'824'
p5591
sg4
g5
sg6
S'1992'
p5592
sg8
g47
sg10
S'Actor'
p5593
sg12
S'Miley_Cyrus'
p5594
sg14
S'USA'
p5595
sg16
S'165'
p5596
ssI825
(dp5597
g2
S'825'
p5598
sg4
g68
sg6
S'1975'
p5599
sg8
g47
sg10
S'Model'
p5600
sg12
S'Milla_Jovovich'
p5601
sg14
S'USA'
p5602
sg16
S'174'
p5603
ssI826
(dp5604
g2
S'826'
p5605
sg4
g68
sg6
S'1979'
p5606
sg8
g47
sg10
S'Actor'
p5607
sg12
S'Mindy_Kaling'
p5608
sg14
S'USA'
p5609
sg16
S'163'
p5610
ssI827
(dp5611
g2
S'827'
p5612
sg4
g5
sg6
S'1955'
p5613
sg8
g47
sg10
S'Actor'
p5614
sg12
S'Mira_Furlan'
p5615
sg14
S'Croatia'
p5616
sg16
g17
ssI828
(dp5617
g2
S'828'
p5618
sg4
g68
sg6
S'1993'
p5619
sg8
g47
sg10
S'Actor'
p5620
sg12
S'Miranda_Cosgrove'
p5621
sg14
S'USA'
p5622
sg16
S'168'
p5623
ssI829
(dp5624
g2
S'829'
p5625
sg4
g68
sg6
S'1972'
p5626
sg8
g47
sg10
S'Actor'
p5627
sg12
S'Miranda_Hart'
p5628
sg14
S'UK'
p5629
sg16
S'185'
p5630
ssI830
(dp5631
g2
S'830'
p5632
sg4
g68
sg6
S'1983'
p5633
sg8
g47
sg10
S'Model'
p5634
sg12
S'Miranda_Kerr'
p5635
sg14
S'Austrailia'
p5636
sg16
S'175'
p5637
ssI831
(dp5638
g2
S'831'
p5639
sg4
g68
sg6
S'1983'
p5640
sg8
g47
sg10
S'Musician'
p5641
sg12
S'Miranda_Lambert'
p5642
sg14
S'USA'
p5643
sg16
g17
ssI832
(dp5644
g2
S'832'
p5645
sg4
g68
sg6
S'1958'
p5646
sg8
g47
sg10
S'Actor'
p5647
sg12
S'Miranda_Richardson'
p5648
sg14
S'UK'
p5649
sg16
g17
ssI833
(dp5650
g2
S'833'
p5651
sg4
g68
sg6
S'1941'
p5652
sg8
g47
sg10
S'Actor'
p5653
sg12
S'Miriam_Margolyes'
p5654
sg14
S'UK'
p5655
sg16
S'155'
p5656
ssI834
(dp5657
g2
S'834'
p5658
sg4
g68
sg6
S'1986'
p5659
sg8
g47
sg10
S'Actor'
p5660
sg12
S'Mischa_Barton'
p5661
sg14
S'UK'
p5662
sg16
S'175'
p5663
ssI835
(dp5664
g2
S'835'
p5665
sg4
g68
sg6
S'1974'
p5666
sg8
g9
sg10
S'Actor'
p5667
sg12
S'Misha_Collins'
p5668
sg14
S'USA'
p5669
sg16
S'183'
p5670
ssI836
(dp5671
g2
S'836'
p5672
sg4
g68
sg6
S'1972'
p5673
sg8
g47
sg10
S'Actor'
p5674
sg12
S'Missi_Pyle'
p5675
sg14
S'USA'
p5676
sg16
S'180'
p5677
ssI837
(dp5678
g2
S'837'
p5679
sg4
g68
sg6
S'1991'
p5680
sg8
g9
sg10
S'Musician'
p5681
sg12
S'Mitchel_Musso'
p5682
sg14
S'USA'
p5683
sg16
S'170'
p5684
ssI838
(dp5685
g2
S'838'
p5686
sg4
g68
sg6
S'1968'
p5687
sg8
g47
sg10
S'Actor'
p5688
sg12
S'Molly_Ringwald'
p5689
sg14
S'USA'
p5690
sg16
S'173'
p5691
ssI839
(dp5692
g2
S'839'
p5693
sg4
g68
sg6
S'1964'
p5694
sg8
g47
sg10
S'Actor'
p5695
sg12
S'Molly_Shannon'
p5696
sg14
S'USA'
p5697
sg16
g17
ssI840
(dp5698
g2
S'840'
p5699
sg4
g68
sg6
S'1986'
p5700
sg8
g47
sg10
S'Actor'
p5701
sg12
S'Monica_Raymund'
p5702
sg14
S'USA'
p5703
sg16
S'170'
p5704
ssI841
(dp5705
g2
S'841'
p5706
sg4
g68
sg6
S'1975'
p5707
sg8
g47
sg10
S'Actor'
p5708
sg12
S'Moon_Bloodgood'
p5709
sg14
S'USA'
p5710
sg16
g17
ssI842
(dp5711
g2
S'842'
p5712
sg4
g68
sg6
S'1981'
p5713
sg8
g47
sg10
S'Actor'
p5714
sg12
S'Moran_Atias'
p5715
sg14
S'Israel'
p5716
sg16
g17
ssI843
(dp5717
g2
S'843'
p5718
sg4
g5
sg6
S'1979'
p5719
sg8
g47
sg10
S'Actor'
p5720
sg12
S'Morena_Baccarin'
p5721
sg14
S'Brazil'
p5722
sg16
S'171'
p5723
ssI844
(dp5724
g2
S'844'
p5725
sg4
g5
sg6
S'1971'
p5726
sg8
g9
sg10
S'Actor'
p5727
sg12
S'Moritz_Bleibtreu'
p5728
sg14
S'Germany'
p5729
sg16
S'173'
p5730
ssI845
(dp5731
g2
S'845'
p5732
sg4
g68
sg6
S'1979'
p5733
sg8
g47
sg10
S'Actor'
p5734
sg12
S'MyAnna_Buring'
p5735
sg14
S'Sweden'
p5736
sg16
g17
ssI846
(dp5737
g2
S'846'
p5738
sg4
g68
sg6
S'1979'
p5739
sg8
g47
sg10
S'Musician'
p5740
sg12
S'Mya'
p5741
sg14
S'USA'
p5742
sg16
S'164'
p5743
ssI847
(dp5744
g2
S'847'
p5745
sg4
g68
sg6
S'1980'
p5746
sg8
g47
sg10
S'Actor'
p5747
sg12
S'Nadia_Bjorlin'
p5748
sg14
S'USA'
p5749
sg16
S'173'
p5750
ssI848
(dp5751
g2
S'848'
p5752
sg4
g5
sg6
S'1957'
p5753
sg8
g47
sg10
S'Actor'
p5754
sg12
S'Nana_Visitor'
p5755
sg14
S'USA'
p5756
sg16
S'172'
p5757
ssI849
(dp5758
g2
S'849'
p5759
sg4
g68
sg6
S'1957'
p5760
sg8
g47
sg10
S'Actor'
p5761
sg12
S'Nancy_Cartwright'
p5762
sg14
S'USA'
p5763
sg16
g17
ssI850
(dp5764
g2
S'850'
p5765
sg4
g68
sg6
S'1976'
p5766
sg8
g47
sg10
S'Actor'
p5767
sg12
S'Naomie_Harris'
p5768
sg14
S'UK'
p5769
sg16
S'173'
p5770
ssI851
(dp5771
g2
S'851'
p5772
sg4
g68
sg6
S'1950'
p5773
sg8
g9
sg10
S'Actor'
p5774
sg12
S'Naseeruddin_Shah'
p5775
sg14
S'India'
p5776
sg16
S'178'
p5777
ssI852
(dp5778
g2
S'852'
p5779
sg4
g68
sg6
S'1984'
p5780
sg8
g47
sg10
S'Actor'
p5781
sg12
S'Natalia_Tena'
p5782
sg14
S'UK'
p5783
sg16
S'166'
p5784
ssI853
(dp5785
g2
S'853'
p5786
sg4
g68
sg6
S'1982'
p5787
sg8
g47
sg10
S'Actor'
p5788
sg12
S'Natalie_Dormer'
p5789
sg14
S'UK'
p5790
sg16
S'168'
p5791
ssI854
(dp5792
g2
S'854'
p5793
sg4
g68
sg6
S'1984'
p5794
sg8
g47
sg10
S'Actor'
p5795
sg12
S'Natalie_Martinez'
p5796
sg14
S'USA'
p5797
sg16
S'172'
p5798
ssI855
(dp5799
g2
S'855'
p5800
sg4
g5
sg6
S'1981'
p5801
sg8
g47
sg10
S'Director'
p5802
sg12
S'Natalie_Portman'
p5803
sg14
S'USA'
p5804
sg16
S'160'
p5805
ssI856
(dp5806
g2
S'856'
p5807
sg4
g5
sg6
S'1975'
p5808
sg8
g47
sg10
S'Actor'
p5809
sg12
S'Natalie_Zea'
p5810
sg14
S'USA'
p5811
sg16
S'165'
p5812
ssI857
(dp5813
g2
S'857'
p5814
sg4
g5
sg6
S'1969'
p5815
sg8
g47
sg10
S'Actor'
p5816
sg12
S'Natascha_McElhone'
p5817
sg14
S'UK'
p5818
sg16
S'173'
p5819
ssI858
(dp5820
g2
S'858'
p5821
sg4
g5
sg6
S'1979'
p5822
sg8
g9
sg10
S'Actor'
p5823
sg12
S'Nate_Parker'
p5824
sg14
S'USA'
p5825
sg16
g17
ssI859
(dp5826
g2
S'859'
p5827
sg4
g68
sg6
S'1989'
p5828
sg8
g47
sg10
S'Actor'
p5829
sg12
S'Nathalie_Emmanuel'
p5830
sg14
S'UK'
p5831
sg16
S'170'
p5832
ssI860
(dp5833
g2
S'860'
p5834
sg4
g68
sg6
S'1971'
p5835
sg8
g9
sg10
S'Actor'
p5836
sg12
S'Nathan_Fillion'
p5837
sg14
S'Canada'
p5838
sg16
S'187'
p5839
ssI861
(dp5840
g2
S'861'
p5841
sg4
g5
sg6
S'1983'
p5842
sg8
g9
sg10
S'Actor'
p5843
sg12
S'Nathaniel_Buzolic'
p5844
sg14
S'Austrailia'
p5845
sg16
S'185'
p5846
ssI862
(dp5847
g2
S'862'
p5848
sg4
g68
sg6
S'1984'
p5849
sg8
g47
sg10
S'Actor'
p5850
sg12
S'Naturi_Naughton'
p5851
sg14
S'USA'
p5852
sg16
S'152'
p5853
ssI863
(dp5854
g2
S'863'
p5855
sg4
g5
sg6
S'1980'
p5856
sg8
g47
sg10
S'Actor'
p5857
sg12
S'Nazanin_Boniadi'
p5858
sg14
S'Iran'
p5859
sg16
S'162'
p5860
ssI864
(dp5861
g2
S'864'
p5862
sg4
g68
sg6
S'1967'
p5863
sg8
g47
sg10
S'Actor'
p5864
sg12
S'NeNe_Leakes'
p5865
sg14
S'USA'
p5866
sg16
S'178'
p5867
ssI865
(dp5868
g2
S'865'
p5869
sg4
g68
sg6
S'1966'
p5870
sg8
g9
sg10
S'Actor'
p5871
sg12
S'Neal_McDonough'
p5872
sg14
S'USA'
p5873
sg16
S'183'
p5874
ssI866
(dp5875
g2
S'866'
p5876
sg4
g68
sg6
S'1960'
p5877
sg8
g9
sg10
S'Writer'
p5878
sg12
S'Neil_Gaiman'
p5879
sg14
S'UK'
p5880
sg16
g17
ssI867
(dp5881
g2
S'867'
p5882
sg4
g68
sg6
S'1958'
p5883
sg8
g9
sg10
S'Scientist'
p5884
sg12
S'Neil_deGrasse_Tyson'
p5885
sg14
S'USA'
p5886
sg16
g17
ssI868
(dp5887
g2
S'868'
p5888
sg4
g5
sg6
S'1974'
p5889
sg8
g9
sg10
S'Musician'
p5890
sg12
S'Nelly'
p5891
sg14
S'USA'
p5892
sg16
S'173'
p5893
ssI869
(dp5894
g2
S'869'
p5895
sg4
g68
sg6
S'1978'
p5896
sg8
g47
sg10
S'Musician'
p5897
sg12
S'Nelly_Furtado'
p5898
sg14
S'Canada'
p5899
sg16
S'158'
p5900
ssI870
(dp5901
g2
S'870'
p5902
sg4
g68
sg6
S'1973'
p5903
sg8
g47
sg10
S'Actor'
p5904
sg12
S'Neve_Campbell'
p5905
sg14
S'Canada'
p5906
sg16
S'170'
p5907
ssI871
(dp5908
g2
S'871'
p5909
sg4
g68
sg6
S'1993'
p5910
sg8
g9
sg10
S'Musician'
p5911
sg12
S'Niall_Horan'
p5912
sg14
S'Ireland'
p5913
sg16
S'173'
p5914
ssI872
(dp5915
g2
S'872'
p5916
sg4
g68
sg6
S'1932'
p5917
sg8
g47
sg10
S'Actor'
p5918
sg12
S'Nichelle_Nichols'
p5919
sg14
S'USA'
p5920
sg16
g17
ssI873
(dp5921
g2
S'873'
p5922
sg4
g68
sg6
S'1978'
p5923
sg8
g9
sg10
S'Actor'
p5924
sg12
S'Nick_Kroll'
p5925
sg14
S'USA'
p5926
sg16
S'175'
p5927
ssI874
(dp5928
g2
S'874'
p5929
sg4
g68
sg6
S'1979'
p5930
sg8
g9
sg10
S'Actor'
p5931
sg12
S'Nick_Thune'
p5932
sg14
S'USA'
p5933
sg16
S'196'
p5934
ssI875
(dp5935
g2
S'875'
p5936
sg4
g68
sg6
S'1982'
p5937
sg8
g47
sg10
S'Musician'
p5938
sg12
S'Nicki_Minaj'
p5939
sg14
S'USA'
p5940
sg16
S'157'
p5941
ssI876
(dp5942
g2
S'876'
p5943
sg4
g68
sg6
S'1995'
p5944
sg8
g47
sg10
S'Actor'
p5945
sg12
S'Nicola_Peltz'
p5946
sg14
S'USA'
p5947
sg16
S'166'
p5948
ssI877
(dp5949
g2
S'877'
p5950
sg4
g68
sg6
S'1985'
p5951
sg8
g47
sg10
S'Actor'
p5952
sg12
S'Nicole_Beharie'
p5953
sg14
S'USA'
p5954
sg16
S'155'
p5955
ssI878
(dp5956
g2
S'878'
p5957
sg4
g68
sg6
S'1981'
p5958
sg8
g47
sg10
S'Broadcaster '
p5959
sg12
S'Nicole_Richie'
p5960
sg14
S'USA'
p5961
sg16
S'155'
p5962
ssI879
(dp5963
g2
S'879'
p5964
sg4
g68
sg6
S'1978'
p5965
sg8
g47
sg10
S'Musician'
p5966
sg12
S'Nicole_Scherzinger'
p5967
sg14
S'USA'
p5968
sg16
S'165'
p5969
ssI880
(dp5970
g2
S'880'
p5971
sg4
g68
sg6
S'1970'
p5972
sg8
g9
sg10
S'Actor'
p5973
sg12
S'Nikolaj_Coster-Waldau'
p5974
sg14
S'Denmark'
p5975
sg16
S'187'
p5976
ssI881
(dp5977
g2
S'881'
p5978
sg4
g68
sg6
S'1984'
p5979
sg8
g47
sg10
S'Actor'
p5980
sg12
S'Nina_Arianda'
p5981
sg14
S'USA'
p5982
sg16
g17
ssI882
(dp5983
g2
S'882'
p5984
sg4
g68
sg6
S'1975'
p5985
sg8
g47
sg10
S'Actor'
p5986
sg12
S'Nina_Hoss'
p5987
sg14
S'Germany'
p5988
sg16
g17
ssI883
(dp5989
g2
S'883'
p5990
sg4
g68
sg6
S'1965'
p5991
sg8
g9
sg10
S'Actor'
p5992
sg12
S'Noah_Emmerich'
p5993
sg14
S'USA'
p5994
sg16
g17
ssI884
(dp5995
g2
S'884'
p5996
sg4
g68
sg6
S'1975'
p5997
sg8
g9
sg10
S'Actor'
p5998
sg12
S'Noel_Clarke'
p5999
sg14
S'UK'
p6000
sg16
g17
ssI885
(dp6001
g2
S'885'
p6002
sg4
g68
sg6
S'1973'
p6003
sg8
g9
sg10
S'Comedian'
p6004
sg12
S'Noel_Fielding'
p6005
sg14
S'UK'
p6006
sg16
S'180'
p6007
ssI886
(dp6008
g2
S'886'
p6009
sg4
g68
sg6
S'1979'
p6010
sg8
g47
sg10
S'Actor'
p6011
sg12
S'Noomi_Rapace'
p6012
sg14
S'Sweden'
p6013
sg16
S'163'
p6014
ssI887
(dp6015
g2
S'887'
p6016
sg4
g5
sg6
S'1969'
p6017
sg8
g9
sg10
S'Actor'
p6018
sg12
S'Norman_Reedus'
p6019
sg14
S'USA'
p6020
sg16
S'178'
p6021
ssI888
(dp6022
g2
S'888'
p6023
sg4
g68
sg6
S'1970'
p6024
sg8
g47
sg10
S'Actor'
p6025
sg12
S'Octavia_Spencer'
p6026
sg14
S'USA'
p6027
sg16
g17
ssI889
(dp6028
g2
S'889'
p6029
sg4
g68
sg6
S'1985'
p6030
sg8
g47
sg10
S'Actor'
p6031
sg12
S'Odette_Annable'
p6032
sg14
S'USA'
p6033
sg16
S'174'
p6034
ssI890
(dp6035
g2
S'890'
p6036
sg4
g68
sg6
S'1997'
p6037
sg8
g47
sg10
S'Actor'
p6038
sg12
S'Odeya_Rush'
p6039
sg14
S'USA'
p6040
sg16
S'163'
p6041
ssI891
(dp6042
g2
S'891'
p6043
sg4
g68
sg6
S'1979'
p6044
sg8
g47
sg10
S'Actor'
p6045
sg12
S'Olga_Kurylenko'
p6046
sg14
S'France'
p6047
sg16
S'175'
p6048
ssI892
(dp6049
g2
S'892'
p6050
sg4
g68
sg6
S'1960'
p6051
sg8
g9
sg10
S'Actor'
p6052
sg12
S'Oliver_Platt'
p6053
sg14
S'Canada'
p6054
sg16
S'192'
p6055
ssI893
(dp6056
g2
S'893'
p6057
sg4
g68
sg6
S'1974'
p6058
sg8
g47
sg10
S'Actor'
p6059
sg12
S'Olivia_Colman'
p6060
sg14
S'UK'
p6061
sg16
S'170'
p6062
ssI894
(dp6063
g2
S'894'
p6064
sg4
g68
sg6
S'1993'
p6065
sg8
g47
sg10
S'Actor'
p6066
sg12
S'Olivia_Cooke'
p6067
sg14
S'UK'
p6068
sg16
S'166'
p6069
ssI895
(dp6070
g2
S'895'
p6071
sg4
g68
sg6
S'1997'
p6072
sg8
g47
sg10
S'Actor'
p6073
sg12
S'Olivia_Holt'
p6074
sg14
S'USA'
p6075
sg16
S'161'
p6076
ssI896
(dp6077
g2
S'896'
p6078
sg4
g68
sg6
S'1980'
p6079
sg8
g47
sg10
S'Model'
p6080
sg12
S'Olivia_Munn'
p6081
sg14
S'USA'
p6082
sg16
S'163'
p6083
ssI897
(dp6084
g2
S'897'
p6085
sg4
g68
sg6
S'1986'
p6086
sg8
g47
sg10
S'Actor'
p6087
sg12
S'Olivia_Thirlby'
p6088
sg14
S'USA'
p6089
sg16
S'163'
p6090
ssI898
(dp6091
g2
S'898'
p6092
sg4
g68
sg6
S'1984'
p6093
sg8
g47
sg10
S'Actor'
p6094
sg12
S'Olivia_Wilde'
p6095
sg14
S'Ireland'
p6096
sg16
S'171'
p6097
ssI899
(dp6098
g2
S'899'
p6099
sg4
g68
sg6
S'1968'
p6100
sg8
g47
sg10
S'Actor'
p6101
sg12
S'Olivia_Williams'
p6102
sg14
S'UK'
p6103
sg16
g17
ssI900
(dp6104
g2
S'900'
p6105
sg4
g68
sg6
S'1950'
p6106
sg8
g9
sg10
S'Actor'
p6107
sg12
S'Om_Puri'
p6108
sg14
S'India'
p6109
sg16
g17
ssI901
(dp6110
g2
S'901'
p6111
sg4
g68
sg6
S'1974'
p6112
sg8
g9
sg10
S'Actor'
p6113
sg12
S'Omari_Hardwick'
p6114
sg14
S'USA'
p6115
sg16
S'179'
p6116
ssI902
(dp6117
g2
S'902'
p6118
sg4
g68
sg6
S'1986'
p6119
sg8
g47
sg10
S'Actor'
p6120
sg12
S'Oona_Chaplin'
p6121
sg14
S'Spain'
p6122
sg16
S'170'
p6123
ssI903
(dp6124
g2
S'903'
p6125
sg4
g68
sg6
S'1979'
p6126
sg8
g9
sg10
S'Actor'
p6127
sg12
S'Oscar_Isaac'
p6128
sg14
S'Guatemala '
p6129
sg16
S'174'
p6130
ssI904
(dp6131
g2
S'904'
p6132
sg4
g68
sg6
S'1978'
p6133
sg8
g9
sg10
S'Actor'
p6134
sg12
S'Pablo_Schreiber'
p6135
sg14
S'Canada'
p6136
sg16
S'196'
p6137
ssI905
(dp6138
g2
S'905'
p6139
sg4
g68
sg6
S'1973'
p6140
sg8
g9
sg10
S'Actor'
p6141
sg12
S'Paddy_Considine'
p6142
sg14
S'UK'
p6143
sg16
g17
ssI906
(dp6144
g2
S'906'
p6145
sg4
g68
sg6
S'1970'
p6146
sg8
g47
sg10
S'Writer'
p6147
sg12
S'Padma_Lakshmi'
p6148
sg14
S'USA'
p6149
sg16
S'175'
p6150
ssI907
(dp6151
g2
S'907'
p6152
sg4
g68
sg6
S'1969'
p6153
sg8
g47
sg10
S'Actor'
p6154
sg12
S'Paget_Brewster'
p6155
sg14
S'USA'
p6156
sg16
S'173'
p6157
ssI908
(dp6158
g2
S'908'
p6159
sg4
g5
sg6
S'1981'
p6160
sg8
g47
sg10
S'Musician'
p6161
sg12
S'Paloma_Faith'
p6162
sg14
S'UK'
p6163
sg16
g17
ssI909
(dp6164
g2
S'909'
p6165
sg4
g5
sg6
S'1966'
p6166
sg8
g47
sg10
S'Actor'
p6167
sg12
S'Pamela_Adlon'
p6168
sg14
S'USA'
p6169
sg16
S'152'
p6170
ssI910
(dp6171
g2
S'910'
p6172
sg4
g68
sg6
S'1970'
p6173
sg8
g9
sg10
S'Director'
p6174
sg12
S'Paolo_Sorrentino'
p6175
sg14
S'Italy'
p6176
sg16
g17
ssI911
(dp6177
g2
S'911'
p6178
sg4
g68
sg6
S'1988'
p6179
sg8
g47
sg10
S'Actor'
p6180
sg12
S'Parineeti_Chopra'
p6181
sg14
S'India'
p6182
sg16
S'167'
p6183
ssI912
(dp6184
g2
S'912'
p6185
sg4
g68
sg6
S'1969'
p6186
sg8
g9
sg10
S'Musician'
p6187
sg12
S'Pat_Monahan'
p6188
sg14
S'USA'
p6189
sg16
S'181'
p6190
ssI913
(dp6191
g2
S'913'
p6192
sg4
g68
sg6
S'1966'
p6193
sg8
g9
sg10
S'Actor'
p6194
sg12
S'Patrick_Dempsey'
p6195
sg14
S'USA'
p6196
sg16
S'179'
p6197
ssI914
(dp6198
g2
S'914'
p6199
sg4
g68
sg6
S'1949'
p6200
sg8
g9
sg10
S'Actor'
p6201
sg12
S'Patrick_Duffy'
p6202
sg14
S'USA'
p6203
sg16
S'187'
p6204
ssI915
(dp6205
g2
S'915'
p6206
sg4
g68
sg6
S'1982'
p6207
sg8
g9
sg10
S'Actor'
p6208
sg12
S'Patrick_Fugit'
p6209
sg14
S'USA'
p6210
sg16
g17
ssI916
(dp6211
g2
S'916'
p6212
sg4
g68
sg6
S'1952'
p6213
sg8
g9
sg10
S'Actor'
p6214
sg12
S'Patrick_Swayze'
p6215
sg14
S'USA'
p6216
sg16
S'178'
p6217
ssI917
(dp6218
g2
S'917'
p6219
sg4
g68
sg6
S'1973'
p6220
sg8
g9
sg10
S'Actor'
p6221
sg12
S'Patrick_Wilson'
p6222
sg14
S'USA'
p6223
sg16
S'185'
p6224
ssI918
(dp6225
g2
S'918'
p6226
sg4
g68
sg6
S'1969'
p6227
sg8
g9
sg10
S'Comedian'
p6228
sg12
S'Patton_Oswalt'
p6229
sg14
S'USA'
p6230
sg16
S'161'
p6231
ssI919
(dp6232
g2
S'919'
p6233
sg4
g68
sg6
S'1984'
p6234
sg8
g9
sg10
S'Actor'
p6235
sg12
S'Paul_Dano'
p6236
sg14
S'USA'
p6237
sg16
S'180'
p6238
ssI920
(dp6239
g2
S'920'
p6240
sg4
g68
sg6
S'1962'
p6241
sg8
g9
sg10
S'Actor'
p6242
sg12
S'Paul_Feig'
p6243
sg14
S'USA'
p6244
sg16
g17
ssI921
(dp6245
g2
S'921'
p6246
sg4
g5
sg6
S'1967'
p6247
sg8
g9
sg10
S'Actor'
p6248
sg12
S'Paul_Giamatti'
p6249
sg14
S'USA'
p6250
sg16
S'174'
p6251
ssI922
(dp6252
g2
S'922'
p6253
sg4
g68
sg6
S'1959'
p6254
sg8
g9
sg10
S'Actor'
p6255
sg12
S'Paul_Gross'
p6256
sg14
S'Canada'
p6257
sg16
g17
ssI923
(dp6258
g2
S'923'
p6259
sg4
g68
sg6
S'1959'
p6260
sg8
g9
sg10
S'Actor'
p6261
sg12
S'Paul_McGann'
p6262
sg14
S'UK'
p6263
sg16
S'174'
p6264
ssI924
(dp6265
g2
S'924'
p6266
sg4
g68
sg6
S'1952'
p6267
sg8
g9
sg10
S'Actor'
p6268
sg12
S'Paul_Reubens'
p6269
sg14
S'USA'
p6270
sg16
S'178'
p6271
ssI925
(dp6272
g2
S'925'
p6273
sg4
g68
sg6
S'1976'
p6274
sg8
g9
sg10
S'Actor'
p6275
sg12
S'Paul_Scheer'
p6276
sg14
S'USA'
p6277
sg16
g17
ssI926
(dp6278
g2
S'926'
p6279
sg4
g68
sg6
S'1939'
p6280
sg8
g9
sg10
S'Actor'
p6281
sg12
S'Paul_Sorvino'
p6282
sg14
S'USA'
p6283
sg16
S'189'
p6284
ssI927
(dp6285
g2
S'927'
p6286
sg4
g68
sg6
S'1982'
p6287
sg8
g9
sg10
S'Actor'
p6288
sg12
S'Paul_Wesley'
p6289
sg14
S'USA'
p6290
sg16
S'180'
p6291
ssI928
(dp6292
g2
S'928'
p6293
sg4
g5
sg6
S'1955'
p6294
sg8
g9
sg10
S'Magician'
p6295
sg12
S'Penn_Jillette'
p6296
sg14
S'USA'
p6297
sg16
S'199'
p6298
ssI929
(dp6299
g2
S'929'
p6300
sg4
g68
sg6
S'1979'
p6301
sg8
g9
sg10
S'Musician'
p6302
sg12
S'Pete_Wentz'
p6303
sg14
S'USA'
p6304
sg16
S'168'
p6305
ssI930
(dp6306
g2
S'930'
p6307
sg4
g68
sg6
S'1964'
p6308
sg8
g9
sg10
S'Actor'
p6309
sg12
S'Peter_Berg'
p6310
sg14
S'USA'
p6311
sg16
g17
ssI931
(dp6312
g2
S'931'
p6313
sg4
g68
sg6
S'1958'
p6314
sg8
g9
sg10
S'Actor'
p6315
sg12
S'Peter_Capaldi'
p6316
sg14
S'UK'
p6317
sg16
S'183'
p6318
ssI932
(dp6319
g2
S'932'
p6320
sg4
g5
sg6
S'1941'
p6321
sg8
g9
sg10
S'Actor'
p6322
sg12
S'Peter_Coyote'
p6323
sg14
S'USA'
p6324
sg16
g17
ssI933
(dp6325
g2
S'933'
p6326
sg4
g68
sg6
S'1973'
p6327
sg8
g9
sg10
S'Actor'
p6328
sg12
S'Peter_Facinelli'
p6329
sg14
S'USA'
p6330
sg16
S'177'
p6331
ssI934
(dp6332
g2
S'934'
p6333
sg4
g68
sg6
S'1961'
p6334
sg8
g9
sg10
S'Director'
p6335
sg12
S'Peter_Jackson'
p6336
sg14
S'New Zealand '
p6337
sg16
g17
ssI935
(dp6338
g2
S'935'
p6339
sg4
g68
sg6
S'1965'
p6340
sg8
g9
sg10
S'Actor'
p6341
sg12
S'Peter_Jacobson'
p6342
sg14
S'USA'
p6343
sg16
S'168'
p6344
ssI936
(dp6345
g2
S'936'
p6346
sg4
g68
sg6
S'1963'
p6347
sg8
g9
sg10
S'Actor'
p6348
sg12
S'Philip_Glenister'
p6349
sg14
S'UK'
p6350
sg16
S'183'
p6351
ssI937
(dp6352
g2
S'937'
p6353
sg4
g68
sg6
S'1917'
p6354
sg8
g47
sg10
S'Actor'
p6355
sg12
S'Phyllis_Diller'
p6356
sg14
S'USA'
p6357
sg16
g17
ssI938
(dp6358
g2
S'938'
p6359
sg4
g68
sg6
S'1969'
p6360
sg8
g9
sg10
S'Actor'
p6361
sg12
S'Pierfrancesco_Favino'
p6362
sg14
S'Italy'
p6363
sg16
S'180'
p6364
ssI939
(dp6365
g2
S'939'
p6366
sg4
g68
sg6
S'1989'
p6367
sg8
g9
sg10
S'Actor'
p6368
sg12
S'Pierre_Niney'
p6369
sg14
S'France'
p6370
sg16
S'177'
p6371
ssI940
(dp6372
g2
S'940'
p6373
sg4
g68
sg6
S'1977'
p6374
sg8
g47
sg10
S'Actor'
p6375
sg12
S'Pooja_Kumar'
p6376
sg14
S'USA'
p6377
sg16
g17
ssI941
(dp6378
g2
S'941'
p6379
sg4
g68
sg6
S'1972'
p6380
sg8
g47
sg10
S'Actor'
p6381
sg12
S'Poppy_Montgomery'
p6382
sg14
S'Austrailia'
p6383
sg16
S'163'
p6384
ssI942
(dp6385
g2
S'942'
p6386
sg4
g68
sg6
S'1975'
p6387
sg8
g47
sg10
S'Actor'
p6388
sg12
S'Preity_Zinta'
p6389
sg14
S'India'
p6390
sg16
S'163'
p6391
ssI943
(dp6392
g2
S'943'
p6393
sg4
g68
sg6
S'1958'
p6394
sg8
g9
sg10
S'Musician'
p6395
sg12
S'Prince'
p6396
sg14
S'USA'
p6397
sg16
S'157'
p6398
ssI944
(dp6399
g2
S'944'
p6400
sg4
g68
sg6
S'1963'
p6401
sg8
g9
sg10
S'Director'
p6402
sg12
S'Quentin_Tarantino'
p6403
sg14
S'USA'
p6404
sg16
S'185'
p6405
ssI945
(dp6406
g2
S'945'
p6407
sg4
g68
sg6
S'1969'
p6408
sg8
g9
sg10
S'Musician'
p6409
sg12
S'RZA'
p6410
sg14
S'USA'
p6411
sg16
S'188'
p6412
ssI946
(dp6413
g2
S'946'
p6414
sg4
g68
sg6
S'1966'
p6415
sg8
g47
sg10
S'Actor'
p6416
sg12
S'Rachel_Dratch'
p6417
sg14
S'USA'
p6418
sg16
g17
ssI947
(dp6419
g2
S'947'
p6420
sg4
g68
sg6
S'1978'
p6421
sg8
g47
sg10
S'Actor'
p6422
sg12
S'Rachel_McAdams'
p6423
sg14
S'Canada'
p6424
sg16
S'163'
p6425
ssI948
(dp6426
g2
S'948'
p6427
sg4
g68
sg6
S'1946'
p6428
sg8
g9
sg10
S'Actor'
p6429
sg12
S'Rade_Serbedzija'
p6430
sg14
S'Croatia'
p6431
sg16
S'178'
p6432
ssI949
(dp6433
g2
S'949'
p6434
sg4
g68
sg6
S'1993'
p6435
sg8
g47
sg10
S'Actor'
p6436
sg12
S'Raini_Rodriguez'
p6437
sg14
S'USA'
p6438
sg16
S'157'
p6439
ssI950
(dp6440
g2
S'950'
p6441
sg4
g68
sg6
S'1966'
p6442
sg8
g9
sg10
S'Director'
p6443
sg12
S'Rainn_Wilson'
p6444
sg14
S'USA'
p6445
sg16
S'189'
p6446
ssI951
(dp6447
g2
S'951'
p6448
sg4
g68
sg6
S'1980'
p6449
sg8
g9
sg10
S'Actor'
p6450
sg12
S'Ralf_Little'
p6451
sg14
S'UK'
p6452
sg16
g17
ssI952
(dp6453
g2
S'952'
p6454
sg4
g68
sg6
S'1961'
p6455
sg8
g9
sg10
S'Actor'
p6456
sg12
S'Ralph_Macchio'
p6457
sg14
S'USA'
p6458
sg16
S'175'
p6459
ssI953
(dp6460
g2
S'953'
p6461
sg4
g68
sg6
S'1981'
p6462
sg8
g9
sg10
S'Actor'
p6463
sg12
S'Rami_Malek'
p6464
sg14
S'USA'
p6465
sg16
S'175'
p6466
ssI954
(dp6467
g2
S'954'
p6468
sg4
g68
sg6
S'1982'
p6469
sg8
g9
sg10
S'Actor'
p6470
sg12
S'Ranbir_Kapoor'
p6471
sg14
S'India'
p6472
sg16
S'183'
p6473
ssI955
(dp6474
g2
S'955'
p6475
sg4
g68
sg6
S'1976'
p6476
sg8
g9
sg10
S'Actor'
p6477
sg12
S'Randeep_Hooda'
p6478
sg14
S'India'
p6479
sg16
S'180'
p6480
ssI956
(dp6481
g2
S'956'
p6482
sg4
g68
sg6
S'1945'
p6483
sg8
g9
sg10
S'Actor'
p6484
sg12
S'Randolph_Mantooth'
p6485
sg14
S'USA'
p6486
sg16
S'185'
p6487
ssI957
(dp6488
g2
S'957'
p6489
sg4
g68
sg6
S'1971'
p6490
sg8
g9
sg10
S'Actor'
p6491
sg12
S'Raoul_Bova'
p6492
sg14
S'Italy'
p6493
sg16
S'181'
p6494
ssI958
(dp6495
g2
S'958'
p6496
sg4
g5
sg6
S'1957'
p6497
sg8
g9
sg10
S'Actor'
p6498
sg12
S'Ray_Winstone'
p6499
sg14
S'UK'
p6500
sg16
S'178'
p6501
ssI959
(dp6502
g2
S'959'
p6503
sg4
g68
sg6
S'1955'
p6504
sg8
g47
sg10
S'Musician'
p6505
sg12
S'Reba_McEntire'
p6506
sg14
S'USA'
p6507
sg16
S'170'
p6508
ssI960
(dp6509
g2
S'960'
p6510
sg4
g68
sg6
S'1977'
p6511
sg8
g47
sg10
S'Actor'
p6512
sg12
S'Rebecca_Mader'
p6513
sg14
S'UK'
p6514
sg16
S'170'
p6515
ssI961
(dp6516
g2
S'961'
p6517
sg4
g68
sg6
S'1980'
p6518
sg8
g47
sg10
S'Actor'
p6519
sg12
S'Rebel_Wilson'
p6520
sg14
S'Austrailia'
p6521
sg16
S'159'
p6522
ssI962
(dp6523
g2
S'962'
p6524
sg4
g68
sg6
S'1986'
p6525
sg8
g9
sg10
S'Actor'
p6526
sg12
S'Reece_Ritchie'
p6527
sg14
S'UK'
p6528
sg16
g17
ssI963
(dp6529
g2
S'963'
p6530
sg4
g68
sg6
S'1975'
p6531
sg8
g9
sg10
S'Actor'
p6532
sg12
S'Reggie_Lee'
p6533
sg14
S'Philippines '
p6534
sg16
S'174'
p6535
ssI964
(dp6536
g2
S'964'
p6537
sg4
g68
sg6
S'1970'
p6538
sg8
g47
sg10
S'Actor'
p6539
sg12
S'Regina_Hall'
p6540
sg14
S'USA'
p6541
sg16
S'163'
p6542
ssI965
(dp6543
g2
S'965'
p6544
sg4
g68
sg6
S'1977'
p6545
sg8
g9
sg10
S'Actor'
p6546
sg12
S'Reid_Scott'
p6547
sg14
S'USA'
p6548
sg16
g17
ssI966
(dp6549
g2
S'966'
p6550
sg4
g68
sg6
S'1940'
p6551
sg8
g9
sg10
S'Actor'
p6552
sg12
S'Rene_Auberjonois'
p6553
sg14
S'USA'
p6554
sg16
g17
ssI967
(dp6555
g2
S'967'
p6556
sg4
g5
sg6
S'1970'
p6557
sg8
g47
sg10
S'Comedian'
p6558
sg12
S'Retta'
p6559
sg14
S'USA'
p6560
sg16
g17
ssI968
(dp6561
g2
S'968'
p6562
sg4
g5
sg6
S'1974'
p6563
sg8
g9
sg10
S'Actor'
p6564
sg12
S'Rhys_Darby'
p6565
sg14
S'New Zealand '
p6566
sg16
S'177'
p6567
ssI969
(dp6568
g2
S'969'
p6569
sg4
g68
sg6
S'1967'
p6570
sg8
g9
sg10
S'Actor'
p6571
sg12
S'Rhys_Ifans'
p6572
sg14
S'UK'
p6573
sg16
S'188'
p6574
ssI970
(dp6575
g2
S'970'
p6576
sg4
g68
sg6
S'1977'
p6577
sg8
g9
sg10
S'Actor'
p6578
sg12
S'Richard_Ayoade'
p6579
sg14
S'UK'
p6580
sg16
S'188'
p6581
ssI971
(dp6582
g2
S'971'
p6583
sg4
g68
sg6
S'1950'
p6584
sg8
g9
sg10
S'Actor'
p6585
sg12
S'Richard_Dean_Anderson'
p6586
sg14
S'USA'
p6587
sg16
S'185'
p6588
ssI972
(dp6589
g2
S'972'
p6590
sg4
g5
sg6
S'1957'
p6591
sg8
g9
sg10
S'Actor'
p6592
sg12
S'Richard_E._Grant'
p6593
sg14
S'UK'
p6594
sg16
g17
ssI973
(dp6595
g2
S'973'
p6596
sg4
g68
sg6
S'1969'
p6597
sg8
g9
sg10
S'Broadcaster '
p6598
sg12
S'Richard_Hammond'
p6599
sg14
S'UK'
p6600
sg16
S'170'
p6601
ssI974
(dp6602
g2
S'974'
p6603
sg4
g68
sg6
S'1956'
p6604
sg8
g9
sg10
S'Actor'
p6605
sg12
S'Richard_Kind'
p6606
sg14
S'USA'
p6607
sg16
g17
ssI975
(dp6608
g2
S'975'
p6609
sg4
g68
sg6
S'1986'
p6610
sg8
g9
sg10
S'Actor'
p6611
sg12
S'Richard_Madden'
p6612
sg14
S'UK'
p6613
sg16
S'177'
p6614
ssI976
(dp6615
g2
S'976'
p6616
sg4
g68
sg6
S'1961'
p6617
sg8
g9
sg10
S'Actor'
p6618
sg12
S'Ricky_Gervais'
p6619
sg14
S'UK'
p6620
sg16
S'173'
p6621
ssI977
(dp6622
g2
S'977'
p6623
sg4
g68
sg6
S'1998'
p6624
sg8
g9
sg10
S'Actor'
p6625
sg12
S'Rico_Rodriguez'
p6626
sg14
S'USA'
p6627
sg16
S'175'
p6628
ssI978
(dp6629
g2
S'978'
p6630
sg4
g68
sg6
S'1958'
p6631
sg8
g9
sg10
S'Actor'
p6632
sg12
S'Rik_Mayall'
p6633
sg14
S'UK'
p6634
sg16
S'182'
p6635
ssI979
(dp6636
g2
S'979'
p6637
sg4
g68
sg6
S'1978'
p6638
sg8
g9
sg10
S'Actor'
p6639
sg12
S'Riley_Smith'
p6640
sg14
S'USA'
p6641
sg16
g17
ssI980
(dp6642
g2
S'980'
p6643
sg4
g68
sg6
S'1990'
p6644
sg8
g47
sg10
S'Musician'
p6645
sg12
S'Rita_Ora'
p6646
sg14
S'UK'
p6647
sg16
S'166'
p6648
ssI981
(dp6649
g2
S'981'
p6650
sg4
g68
sg6
S'1982'
p6651
sg8
g9
sg10
S'Actor'
p6652
sg12
S'Riz_Ahmed'
p6653
sg14
S'UK'
p6654
sg16
S'172'
p6655
ssI982
(dp6656
g2
S'982'
p6657
sg4
g68
sg6
S'1965'
p6658
sg8
g9
sg10
S'Actor'
p6659
sg12
S'Rob_Brydon'
p6660
sg14
S'UK'
p6661
sg16
S'170'
p6662
ssI983
(dp6663
g2
S'983'
p6664
sg4
g68
sg6
S'1971'
p6665
sg8
g9
sg10
S'Actor'
p6666
sg12
S'Rob_Corddry'
p6667
sg14
S'USA'
p6668
sg16
S'180'
p6669
ssI984
(dp6670
g2
S'984'
p6671
sg4
g68
sg6
S'1974'
p6672
sg8
g9
sg10
S'Actor'
p6673
sg12
S'Rob_Dyrdek'
p6674
sg14
S'USA'
p6675
sg16
S'171'
p6676
ssI985
(dp6677
g2
S'985'
p6678
sg4
g68
sg6
S'1947'
p6679
sg8
g9
sg10
S'Director'
p6680
sg12
S'Rob_Reiner'
p6681
sg14
S'USA'
p6682
sg16
S'188'
p6683
ssI986
(dp6684
g2
S'986'
p6685
sg4
g68
sg6
S'1970'
p6686
sg8
g9
sg10
S'Actor'
p6687
sg12
S'Rob_Riggle'
p6688
sg14
S'USA'
p6689
sg16
S'191'
p6690
ssI987
(dp6691
g2
S'987'
p6692
sg4
g68
sg6
S'1988'
p6693
sg8
g9
sg10
S'Actor'
p6694
sg12
S'Robbie_Amell'
p6695
sg14
S'Canada'
p6696
sg16
S'180'
p6697
ssI988
(dp6698
g2
S'988'
p6699
sg4
g68
sg6
S'1995'
p6700
sg8
g9
sg10
S'Actor'
p6701
sg12
S'Robbie_Kay'
p6702
sg14
S'UK'
p6703
sg16
S'175'
p6704
ssI989
(dp6705
g2
S'989'
p6706
sg4
g68
sg6
S'1961'
p6707
sg8
g9
sg10
S'Actor'
p6708
sg12
S'Robert_Carlyle'
p6709
sg14
S'UK'
p6710
sg16
S'173'
p6711
ssI990
(dp6712
g2
S'990'
p6713
sg4
g68
sg6
S'1951'
p6714
sg8
g9
sg10
S'Actor'
p6715
sg12
S'Robert_Davi'
p6716
sg14
S'USA'
p6717
sg16
g17
ssI991
(dp6718
g2
S'991'
p6719
sg4
g68
sg6
S'1986'
p6720
sg8
g9
sg10
S'Actor'
p6721
sg12
S'Robert_Pattinson'
p6722
sg14
S'UK'
p6723
sg16
S'185'
p6724
ssI992
(dp6725
g2
S'992'
p6726
sg4
g68
sg6
S'1953'
p6727
sg8
g9
sg10
S'Actor'
p6728
sg12
S'Robert_Picardo'
p6729
sg14
S'USA'
p6730
sg16
S'178'
p6731
ssI993
(dp6732
g2
S'993'
p6733
sg4
g68
sg6
S'1988'
p6734
sg8
g9
sg10
S'Actor'
p6735
sg12
S'Robert_Sheehan'
p6736
sg14
S'Ireland'
p6737
sg16
S'183'
p6738
ssI994
(dp6739
g2
S'994'
p6740
sg4
g5
sg6
S'1932'
p6741
sg8
g9
sg10
S'Actor'
p6742
sg12
S'Robert_Vaughn'
p6743
sg14
S'USA'
p6744
sg16
S'178'
p6745
ssI995
(dp6746
g2
S'995'
p6747
sg4
g68
sg6
S'1942'
p6748
sg8
g9
sg10
S'Writer'
p6749
sg12
S'Roger_Ebert'
p6750
sg14
S'USA'
p6751
sg16
g17
ssI996
(dp6752
g2
S'996'
p6753
sg4
g68
sg6
S'1960'
p6754
sg8
g47
sg10
S'Actor'
p6755
sg12
S'Roma_Downey'
p6756
sg14
S'Ireland'
p6757
sg16
g17
ssI997
(dp6758
g2
S'997'
p6759
sg4
g68
sg6
S'1989'
p6760
sg8
g9
sg10
S'Musician'
p6761
sg12
S'Romeo_Miller'
p6762
sg14
S'USA'
p6763
sg16
g17
ssI998
(dp6764
g2
S'998'
p6765
sg4
g5
sg6
S'1953'
p6766
sg8
g9
sg10
S'Actor'
p6767
sg12
S'Ron_Jeremy'
p6768
sg14
S'USA'
p6769
sg16
S'168'
p6770
ssI999
(dp6771
g2
S'999'
p6772
sg4
g68
sg6
S'1967'
p6773
sg8
g9
sg10
S'Actor'
p6774
sg12
S'Ron_Livingston'
p6775
sg14
S'USA'
p6776
sg16
S'179'
p6777
ssI1000
(dp6778
g2
S'1000'
p6779
sg4
g68
sg6
S'1950'
p6780
sg8
g9
sg10
S'Actor'
p6781
sg12
S'Ron_Perlman'
p6782
sg14
S'USA'
p6783
sg16
S'185'
p6784
ssI1001
(dp6785
g2
S'1001'
p6786
sg4
g68
sg6
S'1987'
p6787
sg8
g47
sg10
S'Player'
p6788
sg12
S'Ronda_Rousey'
p6789
sg14
S'USA'
p6790
sg16
S'170'
p6791
ssI1002
(dp6792
g2
S'1002'
p6793
sg4
g68
sg6
S'1985'
p6794
sg8
g47
sg10
S'Actor'
p6795
sg12
S'Rooney_Mara'
p6796
sg14
S'USA'
p6797
sg16
S'160'
p6798
ssI1003
(dp6799
g2
S'1003'
p6800
sg4
g68
sg6
S'1968'
p6801
sg8
g47
sg10
S'Producer'
p6802
sg12
S'Rory_Kennedy'
p6803
sg14
S'USA'
p6804
sg16
g17
ssI1004
(dp6805
g2
S'1004'
p6806
sg4
g68
sg6
S'1988'
p6807
sg8
g47
sg10
S'Actor'
p6808
sg12
S'Rose_McIver'
p6809
sg14
S'New Zealand '
p6810
sg16
S'162'
p6811
ssI1005
(dp6812
g2
S'1005'
p6813
sg4
g68
sg6
S'1991'
p6814
sg8
g9
sg10
S'Actor'
p6815
sg12
S'Roshon_Fegan'
p6816
sg14
S'USA'
p6817
sg16
S'173'
p6818
ssI1006
(dp6819
g2
S'1006'
p6820
sg4
g5
sg6
S'1987'
p6821
sg8
g47
sg10
S'Model'
p6822
sg12
S'Rosie_Huntington-Whiteley'
p6823
sg14
S'UK'
p6824
sg16
S'175'
p6825
ssI1007
(dp6826
g2
S'1007'
p6827
sg4
g68
sg6
S'1955'
p6828
sg8
g9
sg10
S'Actor'
p6829
sg12
S'Rowan_Atkinson'
p6830
sg14
S'UK'
p6831
sg16
S'180'
p6832
ssI1008
(dp6833
g2
S'1008'
p6834
sg4
g68
sg6
S'1922'
p6835
sg8
g47
sg10
S'Actor'
p6836
sg12
S'Ruby_Dee'
p6837
sg14
S'USA'
p6838
sg16
g17
ssI1009
(dp6839
g2
S'1009'
p6840
sg4
g68
sg6
S'1934'
p6841
sg8
g47
sg10
S'Actor'
p6842
sg12
S'Rue_McClanahan'
p6843
sg14
S'USA'
p6844
sg16
S'160'
p6845
ssI1010
(dp6846
g2
S'1010'
p6847
sg4
g68
sg6
S'1970'
p6848
sg8
g9
sg10
S'Actor'
p6849
sg12
S'Russell_Peters'
p6850
sg14
S'Canada'
p6851
sg16
S'180'
p6852
ssI1011
(dp6853
g2
S'1011'
p6854
sg4
g68
sg6
S'1981'
p6855
sg8
g9
sg10
S'Actor'
p6856
sg12
S'Russell_Tovey'
p6857
sg14
S'UK'
p6858
sg16
S'177'
p6859
ssI1012
(dp6860
g2
S'1012'
p6861
sg4
g68
sg6
S'1935'
p6862
sg8
g47
sg10
S'Actor'
p6863
sg12
S'Ruta_Lee'
p6864
sg14
S'Canada'
p6865
sg16
g17
ssI1013
(dp6866
g2
S'1013'
p6867
sg4
g68
sg6
S'1944'
p6868
sg8
g9
sg10
S'Actor'
p6869
sg12
S'Rutger_Hauer'
p6870
sg14
S'Netherlands'
p6871
sg16
S'185'
p6872
ssI1014
(dp6873
g2
S'1014'
p6874
sg4
g68
sg6
S'1966'
p6875
sg8
g47
sg10
S'Actor'
p6876
sg12
S'Ruth_Jones'
p6877
sg14
S'UK'
p6878
sg16
g17
ssI1015
(dp6879
g2
S'1015'
p6880
sg4
g68
sg6
S'1982'
p6881
sg8
g47
sg10
S'Actor'
p6882
sg12
S'Ruth_Wilson'
p6883
sg14
S'UK'
p6884
sg16
S'168'
p6885
ssI1016
(dp6886
g2
S'1016'
p6887
sg4
g68
sg6
S'1976'
p6888
sg8
g9
sg10
S'Actor'
p6889
sg12
S'Ryan_Kwanten'
p6890
sg14
S'Austrailia'
p6891
sg16
S'178'
p6892
ssI1017
(dp6893
g2
S'1017'
p6894
sg4
g68
sg6
S'1975'
p6895
sg8
g9
sg10
S'Actor'
p6896
sg12
S'Ryan_McPartlin'
p6897
sg14
S'USA'
p6898
sg16
S'190'
p6899
ssI1018
(dp6900
g2
S'1018'
p6901
sg4
g5
sg6
S'1996'
p6902
sg8
g9
sg10
S'Actor'
p6903
sg12
S'Ryan_Ochoa'
p6904
sg14
S'USA'
p6905
sg16
S'165'
p6906
ssI1019
(dp6907
g2
S'1019'
p6908
sg4
g68
sg6
S'1974'
p6909
sg8
g9
sg10
S'Actor'
p6910
sg12
S'Ryan_Phillippe'
p6911
sg14
S'USA'
p6912
sg16
S'175'
p6913
ssI1020
(dp6914
g2
S'1020'
p6915
sg4
g68
sg6
S'1995'
p6916
sg8
g9
sg10
S'Actor'
p6917
sg12
S'Ryan_Potter'
p6918
sg14
S'USA'
p6919
sg16
S'173'
p6920
ssI1021
(dp6921
g2
S'1021'
p6922
sg4
g68
sg6
S'1952'
p6923
sg8
g47
sg10
S'Actor'
p6924
sg12
S'S._Epatha_Merkerson'
p6925
sg14
S'USA'
p6926
sg16
g17
ssI1022
(dp6927
g2
S'1022'
p6928
sg4
g68
sg6
S'1976'
p6929
sg8
g47
sg10
S'Actor'
p6930
sg12
S'Sally_Hawkins'
p6931
sg14
S'UK'
p6932
sg16
S'157'
p6933
ssI1023
(dp6934
g2
S'1023'
p6935
sg4
g68
sg6
S'1980'
p6936
sg8
g9
sg10
S'Actor'
p6937
sg12
S'Sam_Heughan'
p6938
sg14
S'UK'
p6939
sg16
S'191'
p6940
ssI1024
(dp6941
g2
S'1024'
p6942
sg4
g68
sg6
S'1947'
p6943
sg8
g9
sg10
S'Actor'
p6944
sg12
S'Sam_Neill'
p6945
sg14
S'New Zealand '
p6946
sg16
S'182'
p6947
ssI1025
(dp6948
g2
S'1025'
p6949
sg4
g68
sg6
S'1986'
p6950
sg8
g9
sg10
S'Actor'
p6951
sg12
S'Sam_Palladio'
p6952
sg14
S'UK'
p6953
sg16
S'188'
p6954
ssI1026
(dp6955
g2
S'1026'
p6956
sg4
g68
sg6
S'1959'
p6957
sg8
g9
sg10
S'Director'
p6958
sg12
S'Sam_Raimi'
p6959
sg14
S'USA'
p6960
sg16
g17
ssI1027
(dp6961
g2
S'1027'
p6962
sg4
g68
sg6
S'1980'
p6963
sg8
g9
sg10
S'Actor'
p6964
sg12
S'Sam_Riley'
p6965
sg14
S'UK'
p6966
sg16
S'185'
p6967
ssI1028
(dp6968
g2
S'1028'
p6969
sg4
g68
sg6
S'1969'
p6970
sg8
g9
sg10
S'Actor'
p6971
sg12
S'Sam_Trammell'
p6972
sg14
S'USA'
p6973
sg16
g17
ssI1029
(dp6974
g2
S'1029'
p6975
sg4
g68
sg6
S'1940'
p6976
sg8
g9
sg10
S'Actor'
p6977
sg12
S'Sam_Waterston'
p6978
sg14
S'USA'
p6979
sg16
S'185'
p6980
ssI1030
(dp6981
g2
S'1030'
p6982
sg4
g68
sg6
S'1976'
p6983
sg8
g9
sg10
S'Actor'
p6984
sg12
S'Sam_Worthington'
p6985
sg14
S'UK'
p6986
sg16
S'178'
p6987
ssI1031
(dp6988
g2
S'1031'
p6989
sg4
g68
sg6
S'1990'
p6990
sg8
g47
sg10
S'Musician'
p6991
sg12
S'Samantha_Barks'
p6992
sg14
S'UK'
p6993
sg16
S'170'
p6994
ssI1032
(dp6995
g2
S'1032'
p6996
sg4
g68
sg6
S'1987'
p6997
sg8
g47
sg10
S'Actor'
p6998
sg12
S'Samira_Wiley'
p6999
sg14
S'USA'
p7000
sg16
S'161'
p7001
ssI1033
(dp7002
g2
S'1033'
p7003
sg4
g68
sg6
S'1995'
p7004
sg8
g47
sg10
S'Actor'
p7005
sg12
S'Sammi_Hanratty'
p7006
sg14
S'USA'
p7007
sg16
g17
ssI1034
(dp7008
g2
S'1034'
p7009
sg4
g68
sg6
S'1925'
p7010
sg8
g9
sg10
S'Actor'
p7011
sg12
S'Sammy_Davis_Jr.'
p7012
sg14
S'USA'
p7013
sg16
S'165'
p7014
ssI1035
(dp7015
g2
S'1035'
p7016
sg4
g68
sg6
S'1948'
p7017
sg8
g9
sg10
S'Actor'
p7018
sg12
S'Samuel_L._Jackson'
p7019
sg14
S'USA'
p7020
sg16
S'189'
p7021
ssI1036
(dp7022
g2
S'1036'
p7023
sg4
g68
sg6
S'1971'
p7024
sg8
g47
sg10
S'Actor'
p7025
sg12
S'Sanaa_Lathan'
p7026
sg14
S'USA'
p7027
sg16
S'170'
p7028
ssI1037
(dp7029
g2
S'1037'
p7030
sg4
g68
sg6
S'1955'
p7031
sg8
g47
sg10
S'Comedian'
p7032
sg12
S'Sandra_Bernhard'
p7033
sg14
S'USA'
p7034
sg16
S'178'
p7035
ssI1038
(dp7036
g2
S'1038'
p7037
sg4
g68
sg6
S'1971'
p7038
sg8
g47
sg10
S'Actor'
p7039
sg12
S'Sandra_Oh'
p7040
sg14
S'Canada'
p7041
sg16
S'168'
p7042
ssI1039
(dp7043
g2
S'1039'
p7044
sg4
g68
sg6
S'1978'
p7045
sg8
g9
sg10
S'Actor'
p7046
sg12
S'Santiago_Cabrera'
p7047
sg14
S'Chile '
p7048
sg16
S'183'
p7049
ssI1040
(dp7050
g2
S'1040'
p7051
sg4
g68
sg6
S'1975'
p7052
sg8
g47
sg10
S'Actor'
p7053
sg12
S'Sara_Gilbert'
p7054
sg14
S'USA'
p7055
sg16
g17
ssI1041
(dp7056
g2
S'1041'
p7057
sg4
g68
sg6
S'1975'
p7058
sg8
g47
sg10
S'Actor'
p7059
sg12
S'Sara_Ramirez'
p7060
sg14
S'Mexico'
p7061
sg16
S'175'
p7062
ssI1042
(dp7063
g2
S'1042'
p7064
sg4
g68
sg6
S'1991'
p7065
sg8
g47
sg10
S'Actor'
p7066
sg12
S'Sarah_Bolger'
p7067
sg14
S'Ireland'
p7068
sg16
S'159'
p7069
ssI1043
(dp7070
g2
S'1043'
p7071
sg4
g5
sg6
S'1980'
p7072
sg8
g47
sg10
S'Actor'
p7073
sg12
S'Sarah_Drew'
p7074
sg14
S'USA'
p7075
sg16
S'164'
p7076
ssI1044
(dp7077
g2
S'1044'
p7078
sg4
g68
sg6
S'1987'
p7079
sg8
g47
sg10
S'Actor'
p7080
sg12
S'Sarah_Gadon'
p7081
sg14
S'Canada'
p7082
sg16
S'160'
p7083
ssI1045
(dp7084
g2
S'1045'
p7085
sg4
g68
sg6
S'1990'
p7086
sg8
g47
sg10
S'Actor'
p7087
sg12
S'Sarah_Hyland'
p7088
sg14
S'USA'
p7089
sg16
S'157'
p7090
ssI1046
(dp7091
g2
S'1046'
p7092
sg4
g68
sg6
S'1964'
p7093
sg8
g47
sg10
S'Politician'
p7094
sg12
S'Sarah_Palin'
p7095
sg14
S'USA'
p7096
sg16
S'165'
p7097
ssI1047
(dp7098
g2
S'1047'
p7099
sg4
g68
sg6
S'1974'
p7100
sg8
g47
sg10
S'Actor'
p7101
sg12
S'Sarah_Paulson'
p7102
sg14
S'USA'
p7103
sg16
S'168'
p7104
ssI1048
(dp7105
g2
S'1048'
p7106
sg4
g68
sg6
S'1977'
p7107
sg8
g47
sg10
S'Actor'
p7108
sg12
S'Sarah_Wayne_Callies'
p7109
sg14
S'USA'
p7110
sg16
S'174'
p7111
ssI1049
(dp7112
g2
S'1049'
p7113
sg4
g68
sg6
S'1996'
p7114
sg8
g47
sg10
S'Actor'
p7115
sg12
S'Sasha_Pieterse'
p7116
sg14
S'USA'
p7117
sg16
S'168'
p7118
ssI1050
(dp7119
g2
S'1050'
p7120
sg4
g68
sg6
S'1954'
p7121
sg8
g9
sg10
S'Actor'
p7122
sg12
S'Scott_Bakula'
p7123
sg14
S'USA'
p7124
sg16
S'183'
p7125
ssI1051
(dp7126
g2
S'1051'
p7127
sg4
g68
sg6
S'1979'
p7128
sg8
g9
sg10
S'Actor'
p7129
sg12
S'Scott_Porter'
p7130
sg14
S'USA'
p7131
sg16
S'182'
p7132
ssI1052
(dp7133
g2
S'1052'
p7134
sg4
g68
sg6
S'1975'
p7135
sg8
g9
sg10
S'Actor'
p7136
sg12
S'Scott_Speedman'
p7137
sg14
S'Canada'
p7138
sg16
S'180'
p7139
ssI1053
(dp7140
g2
S'1053'
p7141
sg4
g68
sg6
S'1959'
p7142
sg8
g9
sg10
S'Actor'
p7143
sg12
S'Sean_Bean'
p7144
sg14
S'UK'
p7145
sg16
S'179'
p7146
ssI1054
(dp7147
g2
S'1054'
p7148
sg4
g68
sg6
S'1930'
p7149
sg8
g9
sg10
S'Director'
p7150
sg12
S'Sean_Connery'
p7151
sg14
S'UK'
p7152
sg16
S'189'
p7153
ssI1055
(dp7154
g2
S'1055'
p7155
sg4
g5
sg6
S'1966'
p7156
sg8
g9
sg10
S'Actor'
p7157
sg12
S'Sean_Kanan'
p7158
sg14
S'USA'
p7159
sg16
S'180'
p7160
ssI1056
(dp7161
g2
S'1056'
p7162
sg4
g68
sg6
S'1975'
p7163
sg8
g9
sg10
S'Actor'
p7164
sg12
S'Sean_Maher'
p7165
sg14
S'USA'
p7166
sg16
g17
ssI1057
(dp7167
g2
S'1057'
p7168
sg4
g68
sg6
S'1965'
p7169
sg8
g9
sg10
S'Actor'
p7170
sg12
S'Sean_Patrick_Flanery'
p7171
sg14
S'USA'
p7172
sg16
g17
ssI1058
(dp7173
g2
S'1058'
p7174
sg4
g68
sg6
S'1964'
p7175
sg8
g9
sg10
S'Actor'
p7176
sg12
S'Sean_Pertwee'
p7177
sg14
S'UK'
p7178
sg16
S'183'
p7179
ssI1059
(dp7180
g2
S'1059'
p7181
sg4
g68
sg6
S'1976'
p7182
sg8
g9
sg10
S'Actor'
p7183
sg12
S'Seann_William_Scott'
p7184
sg14
S'USA'
p7185
sg16
S'180'
p7186
ssI1060
(dp7187
g2
S'1060'
p7188
sg4
g68
sg6
S'1993'
p7189
sg8
g9
sg10
S'Actor'
p7190
sg12
S'Sebastian_De_Souza'
p7191
sg14
S'UK'
p7192
sg16
S'175'
p7193
ssI1061
(dp7194
g2
S'1061'
p7195
sg4
g68
sg6
S'1956'
p7196
sg8
g47
sg10
S'Actor'
p7197
sg12
S'Sela_Ward'
p7198
sg14
S'USA'
p7199
sg16
S'171'
p7200
ssI1062
(dp7201
g2
S'1062'
p7202
sg4
g68
sg6
S'1972'
p7203
sg8
g47
sg10
S'Actor'
p7204
sg12
S'Selma_Blair'
p7205
sg14
S'USA'
p7206
sg16
S'160'
p7207
ssI1063
(dp7208
g2
S'1063'
p7209
sg4
g68
sg6
S'1974'
p7210
sg8
g9
sg10
S'Actor'
p7211
sg12
S'Sendhil_Ramamurthy'
p7212
sg14
S'USA'
p7213
sg16
g17
ssI1064
(dp7214
g2
S'1064'
p7215
sg4
g68
sg6
S'1941'
p7216
sg8
g47
sg10
S'Actor'
p7217
sg12
S'Senta_Berger'
p7218
sg14
S'Austrailia'
p7219
sg16
S'163'
p7220
ssI1065
(dp7221
g2
S'1065'
p7222
sg4
g68
sg6
S'1984'
p7223
sg8
g47
sg10
S'Actor'
p7224
sg12
S'Serinda_Swan'
p7225
sg14
S'Canada'
p7226
sg16
S'170'
p7227
ssI1066
(dp7228
g2
S'1066'
p7229
sg4
g68
sg6
S'1974'
p7230
sg8
g9
sg10
S'Actor'
p7231
sg12
S'Seth_Green'
p7232
sg14
S'USA'
p7233
sg16
S'163'
p7234
ssI1067
(dp7235
g2
S'1067'
p7236
sg4
g68
sg6
S'1973'
p7237
sg8
g9
sg10
S'Actor'
p7238
sg12
S'Seth_MacFarlane'
p7239
sg14
S'USA'
p7240
sg16
S'178'
p7241
ssI1068
(dp7242
g2
S'1068'
p7243
sg4
g68
sg6
S'1973'
p7244
sg8
g9
sg10
S'Actor'
p7245
sg12
S'Seth_Meyers'
p7246
sg14
S'USA'
p7247
sg16
S'183'
p7248
ssI1069
(dp7249
g2
S'1069'
p7250
sg4
g68
sg6
S'1982'
p7251
sg8
g9
sg10
S'Actor'
p7252
sg12
S'Seth_Rogen'
p7253
sg14
S'Canada'
p7254
sg16
S'180'
p7255
ssI1070
(dp7256
g2
S'1070'
p7257
sg4
g68
sg6
S'1981'
p7258
sg8
g9
sg10
S'Actor'
p7259
sg12
S'Shahid_Kapoor'
p7260
sg14
S'India'
p7261
sg16
S'174'
p7262
ssI1071
(dp7263
g2
S'1071'
p7264
sg4
g68
sg6
S'1991'
p7265
sg8
g47
sg10
S'Actor'
p7266
sg12
S'Shailene_Woodley'
p7267
sg14
S'USA'
p7268
sg16
S'173'
p7269
ssI1072
(dp7270
g2
S'1072'
p7271
sg4
g68
sg6
S'1978'
p7272
sg8
g9
sg10
S'Actor'
p7273
sg12
S'Shane_West'
p7274
sg14
S'USA'
p7275
sg16
S'182'
p7276
ssI1073
(dp7277
g2
S'1073'
p7278
sg4
g68
sg6
S'1971'
p7279
sg8
g47
sg10
S'Actor'
p7280
sg12
S'Shannen_Doherty'
p7281
sg14
S'USA'
p7282
sg16
S'160'
p7283
ssI1074
(dp7284
g2
S'1074'
p7285
sg4
g68
sg6
S'1973'
p7286
sg8
g9
sg10
S'Actor'
p7287
sg12
S'Sharlto_Copley'
p7288
sg14
S'South Africa'
p7289
sg16
S'183'
p7290
ssI1075
(dp7291
g2
S'1075'
p7292
sg4
g68
sg6
S'1983'
p7293
sg8
g47
sg10
S'Actor'
p7294
sg12
S'Sharni_Vinson'
p7295
sg14
S'Austrailia'
p7296
sg16
g17
ssI1076
(dp7297
g2
S'1076'
p7298
sg4
g5
sg6
S'1943'
p7299
sg8
g47
sg10
S'Actor'
p7300
sg12
S'Sharon_Gless'
p7301
sg14
S'USA'
p7302
sg16
g17
ssI1077
(dp7303
g2
S'1077'
p7304
sg4
g68
sg6
S'1987'
p7305
sg8
g47
sg10
S'Actor'
p7306
sg12
S'Shay_Mitchell'
p7307
sg14
S'Canada'
p7308
sg16
S'171'
p7309
ssI1078
(dp7310
g2
S'1078'
p7311
sg4
g5
sg6
S'1970'
p7312
sg8
g9
sg10
S'Actor'
p7313
sg12
S'Shemar_Moore'
p7314
sg14
S'USA'
p7315
sg16
S'185'
p7316
ssI1079
(dp7317
g2
S'1079'
p7318
sg4
g68
sg6
S'1981'
p7319
sg8
g47
sg10
S'Actor'
p7320
sg12
S'Sheridan_Smith'
p7321
sg14
S'UK'
p7322
sg16
S'157'
p7323
ssI1080
(dp7324
g2
S'1080'
p7325
sg4
g68
sg6
S'1974'
p7326
sg8
g47
sg10
S'Actor'
p7327
sg12
S'Sherri_Saum'
p7328
sg14
S'USA'
p7329
sg16
S'170'
p7330
ssI1081
(dp7331
g2
S'1081'
p7332
sg4
g68
sg6
S'1967'
p7333
sg8
g47
sg10
S'Actor'
p7334
sg12
S'Sherri_Shepherd'
p7335
sg14
S'USA'
p7336
sg16
S'155'
p7337
ssI1082
(dp7338
g2
S'1082'
p7339
sg4
g68
sg6
S'1956'
p7340
sg8
g47
sg10
S'Actor'
p7341
sg12
S'Sheryl_Lee_Ralph'
p7342
sg14
S'USA'
p7343
sg16
g17
ssI1083
(dp7344
g2
S'1083'
p7345
sg4
g68
sg6
S'1985'
p7346
sg8
g9
sg10
S'Actor'
p7347
sg12
S'Shiloh_Fernandez'
p7348
sg14
S'USA'
p7349
sg16
g17
ssI1084
(dp7350
g2
S'1084'
p7351
sg4
g68
sg6
S'1978'
p7352
sg8
g47
sg10
S'Actor'
p7353
sg12
S'Shiri_Appleby'
p7354
sg14
S'USA'
p7355
sg16
S'159'
p7356
ssI1085
(dp7357
g2
S'1085'
p7358
sg4
g5
sg6
S'1966'
p7359
sg8
g47
sg10
S'Musician'
p7360
sg12
S'Shirley_Manson'
p7361
sg14
S'UK'
p7362
sg16
S'170'
p7363
ssI1086
(dp7364
g2
S'1086'
p7365
sg4
g68
sg6
S'1952'
p7366
sg8
g47
sg10
S'Actor'
p7367
sg12
S'Shohreh_Aghdashloo'
p7368
sg14
S'Iran'
p7369
sg16
g17
ssI1087
(dp7370
g2
S'1087'
p7371
sg4
g68
sg6
S'1970'
p7372
sg8
g47
sg10
S'Producer'
p7373
sg12
S'Shonda_Rhimes'
p7374
sg14
S'USA'
p7375
sg16
g17
ssI1088
(dp7376
g2
S'1088'
p7377
sg4
g68
sg6
S'1987'
p7378
sg8
g47
sg10
S'Actor'
p7379
sg12
S'Shraddha_Kapoor'
p7380
sg14
S'India'
p7381
sg16
S'168'
p7382
ssI1089
(dp7383
g2
S'1089'
p7384
sg4
g68
sg6
S'1985'
p7385
sg8
g9
sg10
S'Actor'
p7386
sg12
S'Sidharth_Malhotra'
p7387
sg14
S'India'
p7388
sg16
S'185'
p7389
ssI1090
(dp7390
g2
S'1090'
p7391
sg4
g68
sg6
S'1968'
p7392
sg8
g47
sg10
S'Actor'
p7393
sg12
S'Sidse_Babett_Knudsen'
p7394
sg14
S'Denmark'
p7395
sg16
g17
ssI1091
(dp7396
g2
S'1091'
p7397
sg4
g5
sg6
S'1975'
p7398
sg8
g47
sg10
S'Actor'
p7399
sg12
S'Sienna_Guillory'
p7400
sg14
S'UK'
p7401
sg16
g17
ssI1092
(dp7402
g2
S'1092'
p7403
sg4
g68
sg6
S'1829'
p7404
sg8
g9
sg10
S'Doctor'
p7405
sg12
S'Silas_Weir_Mitchell'
p7406
sg14
S'USA'
p7407
sg16
g17
ssI1093
(dp7408
g2
S'1093'
p7409
sg4
g5
sg6
S'1969'
p7410
sg8
g9
sg10
S'Actor'
p7411
sg12
S'Simon_Baker'
p7412
sg14
S'Austrailia'
p7413
sg16
S'178'
p7414
ssI1094
(dp7415
g2
S'1094'
p7416
sg4
g5
sg6
S'1949'
p7417
sg8
g9
sg10
S'Actor'
p7418
sg12
S'Simon_Callow'
p7419
sg14
S'UK'
p7420
sg16
g17
ssI1095
(dp7421
g2
S'1095'
p7422
sg4
g68
sg6
S'1970'
p7423
sg8
g9
sg10
S'Actor'
p7424
sg12
S'Simon_Pegg'
p7425
sg14
S'UK'
p7426
sg16
S'178'
p7427
ssI1096
(dp7428
g2
S'1096'
p7429
sg4
g68
sg6
S'1987'
p7430
sg8
g9
sg10
S'Actor'
p7431
sg12
S'Skylar_Astin'
p7432
sg14
S'USA'
p7433
sg16
S'178'
p7434
ssI1097
(dp7435
g2
S'1097'
p7436
sg4
g68
sg6
S'1940'
p7437
sg8
g9
sg10
S'Musician'
p7438
sg12
S'Smokey_Robinson'
p7439
sg14
S'USA'
p7440
sg16
g17
ssI1098
(dp7441
g2
S'1098'
p7442
sg4
g68
sg6
S'1971'
p7443
sg8
g47
sg10
S'Director'
p7444
sg12
S'Sofia_Coppola'
p7445
sg14
S'USA'
p7446
sg16
S'164'
p7447
ssI1099
(dp7448
g2
S'1099'
p7449
sg4
g68
sg6
S'1985'
p7450
sg8
g47
sg10
S'Actor'
p7451
sg12
S'Sonam_Kapoor'
p7452
sg14
S'India'
p7453
sg16
S'177'
p7454
ssI1100
(dp7455
g2
S'1100'
p7456
sg4
g68
sg6
S'1964'
p7457
sg8
g47
sg10
S'Actor'
p7458
sg12
S'Sonja_Sohn'
p7459
sg14
S'USA'
p7460
sg16
g17
ssI1101
(dp7461
g2
S'1101'
p7462
sg4
g68
sg6
S'1968'
p7463
sg8
g47
sg10
S'Actor'
p7464
sg12
S'Sophie_Okonedo'
p7465
sg14
S'UK'
p7466
sg16
g17
ssI1102
(dp7467
g2
S'1102'
p7468
sg4
g68
sg6
S'1992'
p7469
sg8
g9
sg10
S'Actor'
p7470
sg12
S'Spencer_Boldman'
p7471
sg14
S'USA'
p7472
sg16
S'188'
p7473
ssI1103
(dp7474
g2
S'1103'
p7475
sg4
g68
sg6
S'1941'
p7476
sg8
g9
sg10
S'Actor'
p7477
sg12
S'Stacy_Keach'
p7478
sg14
S'USA'
p7479
sg16
S'182'
p7480
ssI1104
(dp7481
g2
S'1104'
p7482
sg4
g68
sg6
S'1922'
p7483
sg8
g9
sg10
S'Writer'
p7484
sg12
S'Stan_Lee'
p7485
sg14
S'USA'
p7486
sg16
S'180'
p7487
ssI1105
(dp7488
g2
S'1105'
p7489
sg4
g68
sg6
S'1978'
p7490
sg8
g47
sg10
S'Actor'
p7491
sg12
S'Stana_Katic'
p7492
sg14
S'Canada'
p7493
sg16
S'175'
p7494
ssI1106
(dp7495
g2
S'1106'
p7496
sg4
g68
sg6
S'1960'
p7497
sg8
g9
sg10
S'Actor'
p7498
sg12
S'Stanley_Tucci'
p7499
sg14
S'USA'
p7500
sg16
S'172'
p7501
ssI1107
(dp7502
g2
S'1107'
p7503
sg4
g68
sg6
S'1942'
p7504
sg8
g47
sg10
S'Actor'
p7505
sg12
S'Stefanie_Powers'
p7506
sg14
S'USA'
p7507
sg16
S'170'
p7508
ssI1108
(dp7509
g2
S'1108'
p7510
sg4
g68
sg6
S'1966'
p7511
sg8
g9
sg10
S'Actor'
p7512
sg12
S'Stephen_Baldwin'
p7513
sg14
S'USA'
p7514
sg16
S'178'
p7515
ssI1109
(dp7516
g2
S'1109'
p7517
sg4
g68
sg6
S'1964'
p7518
sg8
g9
sg10
S'Comedian'
p7519
sg12
S'Stephen_Colbert'
p7520
sg14
S'USA'
p7521
sg16
S'180'
p7522
ssI1110
(dp7523
g2
S'1110'
p7524
sg4
g68
sg6
S'1957'
p7525
sg8
g9
sg10
S'Actor'
p7526
sg12
S'Stephen_Fry'
p7527
sg14
S'UK'
p7528
sg16
S'196'
p7529
ssI1111
(dp7530
g2
S'1111'
p7531
sg4
g68
sg6
S'1952'
p7532
sg8
g9
sg10
S'Actor'
p7533
sg12
S'Stephen_Lang'
p7534
sg14
S'USA'
p7535
sg16
S'179'
p7536
ssI1112
(dp7537
g2
S'1112'
p7538
sg4
g68
sg6
S'1968'
p7539
sg8
g9
sg10
S'Actor'
p7540
sg12
S'Stephen_Mangan'
p7541
sg14
S'UK'
p7542
sg16
g17
ssI1113
(dp7543
g2
S'1113'
p7544
sg4
g68
sg6
S'1974'
p7545
sg8
g9
sg10
S'Writer'
p7546
sg12
S'Stephen_Merchant'
p7547
sg14
S'UK'
p7548
sg16
S'201'
p7549
ssI1114
(dp7550
g2
S'1114'
p7551
sg4
g68
sg6
S'1989'
p7552
sg8
g9
sg10
S'Actor'
p7553
sg12
S'Sterling_Knight'
p7554
sg14
S'USA'
p7555
sg16
S'177'
p7556
ssI1115
(dp7557
g2
S'1115'
p7558
sg4
g68
sg6
S'1970'
p7559
sg8
g9
sg10
S'Actor'
p7560
sg12
S'Steve_Burton'
p7561
sg14
S'USA'
p7562
sg16
S'180'
p7563
ssI1116
(dp7564
g2
S'1116'
p7565
sg4
g68
sg6
S'1962'
p7566
sg8
g9
sg10
S'Comedian'
p7567
sg12
S'Steve_Carell'
p7568
sg14
S'USA'
p7569
sg16
S'175'
p7570
ssI1117
(dp7571
g2
S'1117'
p7572
sg4
g68
sg6
S'1957'
p7573
sg8
g9
sg10
S'Comedian'
p7574
sg12
S'Steve_Harvey'
p7575
sg14
S'USA'
p7576
sg16
S'188'
p7577
ssI1118
(dp7578
g2
S'1118'
p7579
sg4
g68
sg6
S'1955'
p7580
sg8
g9
sg10
S'Entrepreneur'
p7581
sg12
S'Steve_Jobs'
p7582
sg14
S'USA'
p7583
sg16
g17
ssI1119
(dp7584
g2
S'1119'
p7585
sg4
g68
sg6
S'1945'
p7586
sg8
g9
sg10
S'Actor'
p7587
sg12
S'Steve_Martin'
p7588
sg14
S'USA'
p7589
sg16
S'183'
p7590
ssI1120
(dp7591
g2
S'1120'
p7592
sg4
g68
sg6
S'1956'
p7593
sg8
g9
sg10
S'Actor'
p7594
sg12
S'Steven_Bauer'
p7595
sg14
S'USA'
p7596
sg16
S'185'
p7597
ssI1121
(dp7598
g2
S'1121'
p7599
sg4
g68
sg6
S'1937'
p7600
sg8
g9
sg10
S'Actor'
p7601
sg12
S'Steven_Berkoff'
p7602
sg14
S'UK'
p7603
sg16
g17
ssI1122
(dp7604
g2
S'1122'
p7605
sg4
g68
sg6
S'1961'
p7606
sg8
g9
sg10
S'Writer'
p7607
sg12
S'Steven_Moffat'
p7608
sg14
S'UK'
p7609
sg16
g17
ssI1123
(dp7610
g2
S'1123'
p7611
sg4
g68
sg6
S'1988'
p7612
sg8
g9
sg10
S'Actor'
p7613
sg12
S'Steven_R._McQueen'
p7614
sg14
S'USA'
p7615
sg16
S'183'
p7616
ssI1124
(dp7617
g2
S'1124'
p7618
sg4
g68
sg6
S'1963'
p7619
sg8
g9
sg10
S'Director'
p7620
sg12
S'Steven_Soderbergh'
p7621
sg14
S'USA'
p7622
sg16
g17
ssI1125
(dp7623
g2
S'1125'
p7624
sg4
g68
sg6
S'1983'
p7625
sg8
g9
sg10
S'Actor'
p7626
sg12
S'Steven_Yeun'
p7627
sg14
S'Korea'
p7628
sg16
S'175'
p7629
ssI1126
(dp7630
g2
S'1126'
p7631
sg4
g68
sg6
S'1950'
p7632
sg8
g9
sg10
S'Musician'
p7633
sg12
S'Stevie_Wonder'
p7634
sg14
S'USA'
p7635
sg16
g17
ssI1127
(dp7636
g2
S'1127'
p7637
sg4
g68
sg6
S'1972'
p7638
sg8
g9
sg10
S'Actor'
p7639
sg12
S'Sung_Kang'
p7640
sg14
S'Korea'
p7641
sg16
S'183'
p7642
ssI1128
(dp7643
g2
S'1128'
p7644
sg4
g68
sg6
S'1981'
p7645
sg8
g47
sg10
S'Actor'
p7646
sg12
S'Sunny_Leone'
p7647
sg14
S'Canada'
p7648
sg16
S'163'
p7649
ssI1129
(dp7650
g2
S'1129'
p7651
sg4
g68
sg6
S'1994'
p7652
sg8
g9
sg10
S'Actor'
p7653
sg12
S'Suraj_Sharma'
p7654
sg14
S'India'
p7655
sg16
g17
ssI1130
(dp7656
g2
S'1130'
p7657
sg4
g68
sg6
S'1946'
p7658
sg8
g47
sg10
S'Actor'
p7659
sg12
S'Susan_Lucci'
p7660
sg14
S'USA'
p7661
sg16
S'155'
p7662
ssI1131
(dp7663
g2
S'1131'
p7664
sg4
g68
sg6
S'1960'
p7665
sg8
g47
sg10
S'Director'
p7666
sg12
S'Susanne_Bier'
p7667
sg14
S'Denmark'
p7668
sg16
g17
ssI1132
(dp7669
g2
S'1132'
p7670
sg4
g68
sg6
S'1937'
p7671
sg8
g47
sg10
S'Actor'
p7672
sg12
S'Suzanne_Pleshette'
p7673
sg14
S'USA'
p7674
sg16
g17
ssI1133
(dp7675
g2
S'1133'
p7676
sg4
g68
sg6
S'1934'
p7677
sg8
g9
sg10
S'Director'
p7678
sg12
S'Sydney_Pollack'
p7679
sg14
S'USA'
p7680
sg16
g17
ssI1134
(dp7681
g2
S'1134'
p7682
sg4
g68
sg6
S'1981'
p7683
sg8
g9
sg10
S'Actor'
p7684
sg12
S'T.J._Miller'
p7685
sg14
S'USA'
p7686
sg16
S'188'
p7687
ssI1135
(dp7688
g2
S'1135'
p7689
sg4
g68
sg6
S'1971'
p7690
sg8
g47
sg10
S'Actor'
p7691
sg12
S'Tabu'
p7692
sg14
S'India'
p7693
sg16
S'174'
p7694
ssI1136
(dp7695
g2
S'1136'
p7696
sg4
g68
sg6
S'1986'
p7697
sg8
g9
sg10
S'Actor'
p7698
sg12
S'Tahj_Mowry'
p7699
sg14
S'USA'
p7700
sg16
S'168'
p7701
ssI1137
(dp7702
g2
S'1137'
p7703
sg4
g5
sg6
S'1975'
p7704
sg8
g9
sg10
S'Actor'
p7705
sg12
S'Tahmoh_Penikett'
p7706
sg14
S'Canada'
p7707
sg16
g17
ssI1138
(dp7708
g2
S'1138'
p7709
sg4
g68
sg6
S'1974'
p7710
sg8
g47
sg10
S'Actor'
p7711
sg12
S'Tamala_Jones'
p7712
sg14
S'USA'
p7713
sg16
g17
ssI1139
(dp7714
g2
S'1139'
p7715
sg4
g5
sg6
S'1970'
p7716
sg8
g47
sg10
S'Actor'
p7717
sg12
S'Tamara_Taylor'
p7718
sg14
S'Canada'
p7719
sg16
g17
ssI1140
(dp7720
g2
S'1140'
p7721
sg4
g68
sg6
S'1959'
p7722
sg8
g47
sg10
S'Actor'
p7723
sg12
S'Tamara_Tunie'
p7724
sg14
S'USA'
p7725
sg16
g17
ssI1141
(dp7726
g2
S'1141'
p7727
sg4
g68
sg6
S'1968'
p7728
sg8
g9
sg10
S'Actor'
p7729
sg12
S'Tamer_Hassan'
p7730
sg14
S'UK'
p7731
sg16
S'190'
p7732
ssI1142
(dp7733
g2
S'1142'
p7734
sg4
g68
sg6
S'1978'
p7735
sg8
g47
sg10
S'Actor'
p7736
sg12
S'Tamera_Mowry-Housley'
p7737
sg14
S'USA'
p7738
sg16
S'164'
p7739
ssI1143
(dp7740
g2
S'1143'
p7741
sg4
g68
sg6
S'1966'
p7742
sg8
g47
sg10
S'Actor'
p7743
sg12
S'Tamsin_Greig'
p7744
sg14
S'UK'
p7745
sg16
g17
ssI1144
(dp7746
g2
S'1144'
p7747
sg4
g68
sg6
S'1979'
p7748
sg8
g47
sg10
S'Model'
p7749
sg12
S'Tanya_Tate'
p7750
sg14
S'UK'
p7751
sg16
g17
ssI1145
(dp7752
g2
S'1145'
p7753
sg4
g68
sg6
S'1970'
p7754
sg8
g47
sg10
S'Actor'
p7755
sg12
S'Taraji_P._Henson'
p7756
sg14
S'USA'
p7757
sg16
S'165'
p7758
ssI1146
(dp7759
g2
S'1146'
p7760
sg4
g68
sg6
S'1978'
p7761
sg8
g47
sg10
S'Actor'
p7762
sg12
S'Taryn_Manning'
p7763
sg14
S'USA'
p7764
sg16
S'158'
p7765
ssI1147
(dp7766
g2
S'1147'
p7767
sg4
g68
sg6
S'1985'
p7768
sg8
g47
sg10
S'Actor'
p7769
sg12
S'Tatiana_Maslany'
p7770
sg14
S'Canada'
p7771
sg16
S'163'
p7772
ssI1148
(dp7773
g2
S'1148'
p7774
sg4
g68
sg6
S'1979'
p7775
sg8
g47
sg10
S'Actor'
p7776
sg12
S'Tatyana_Ali'
p7777
sg14
S'USA'
p7778
sg16
S'162'
p7779
ssI1149
(dp7780
g2
S'1149'
p7781
sg4
g5
sg6
S'1996'
p7782
sg8
g47
sg10
S'Writer'
p7783
sg12
S'Tavi_Gevinson'
p7784
sg14
S'USA'
p7785
sg16
g17
ssI1150
(dp7786
g2
S'1150'
p7787
sg4
g68
sg6
S'1981'
p7788
sg8
g9
sg10
S'Actor'
p7789
sg12
S'Taylor_Kitsch'
p7790
sg14
S'Canada'
p7791
sg16
S'181'
p7792
ssI1151
(dp7793
g2
S'1151'
p7794
sg4
g68
sg6
S'1992'
p7795
sg8
g9
sg10
S'Actor'
p7796
sg12
S'Taylor_Lautner'
p7797
sg14
S'USA'
p7798
sg16
S'174'
p7799
ssI1152
(dp7800
g2
S'1152'
p7801
sg4
g5
sg6
S'1993'
p7802
sg8
g47
sg10
S'Musician'
p7803
sg12
S'Taylor_Momsen'
p7804
sg14
S'USA'
p7805
sg16
S'173'
p7806
ssI1153
(dp7807
g2
S'1153'
p7808
sg4
g68
sg6
S'1989'
p7809
sg8
g47
sg10
S'Musician'
p7810
sg12
S'Taylor_Swift'
p7811
sg14
S'USA'
p7812
sg16
S'178'
p7813
ssI1154
(dp7814
g2
S'1154'
p7815
sg4
g68
sg6
S'1996'
p7816
sg8
g47
sg10
S'Actor'
p7817
sg12
S'Teala_Dunn'
p7818
sg14
S'USA'
p7819
sg16
S'159'
p7820
ssI1155
(dp7821
g2
S'1155'
p7822
sg4
g68
sg6
S'1947'
p7823
sg8
g9
sg10
S'Actor'
p7824
sg12
S'Ted_Danson'
p7825
sg14
S'USA'
p7826
sg16
S'188'
p7827
ssI1156
(dp7828
g2
S'1156'
p7829
sg4
g68
sg6
S'1938'
p7830
sg8
g9
sg10
S'Actor'
p7831
sg12
S'Terence_Stamp'
p7832
sg14
S'UK'
p7833
sg16
S'183'
p7834
ssI1157
(dp7835
g2
S'1157'
p7836
sg4
g68
sg6
S'1964'
p7837
sg8
g47
sg10
S'Actor'
p7838
sg12
S'Teri_Hatcher'
p7839
sg14
S'USA'
p7840
sg16
S'168'
p7841
ssI1158
(dp7842
g2
S'1158'
p7843
sg4
g68
sg6
S'1969'
p7844
sg8
g9
sg10
S'Actor'
p7845
sg12
S'Terrence_Howard'
p7846
sg14
S'USA'
p7847
sg16
S'184'
p7848
ssI1159
(dp7849
g2
S'1159'
p7850
sg4
g5
sg6
S'1972'
p7851
sg8
g47
sg10
S'Actor'
p7852
sg12
S'Thandie_Newton'
p7853
sg14
S'UK'
p7854
sg16
S'160'
p7855
ssI1160
(dp7856
g2
S'1160'
p7857
sg4
g68
sg6
S'1984'
p7858
sg8
g9
sg10
S'Actor'
p7859
sg12
S'Theo_James'
p7860
sg14
S'UK'
p7861
sg16
S'183'
p7862
ssI1161
(dp7863
g2
S'1161'
p7864
sg4
g5
sg6
S'1975'
p7865
sg8
g9
sg10
S'Actor'
p7866
sg12
S'Theo_Rossi'
p7867
sg14
S'USA'
p7868
sg16
S'180'
p7869
ssI1162
(dp7870
g2
S'1162'
p7871
sg4
g68
sg6
S'1987'
p7872
sg8
g9
sg10
S'Actor'
p7873
sg12
S'Thomas_Dekker'
p7874
sg14
S'USA'
p7875
sg16
S'175'
p7876
ssI1163
(dp7877
g2
S'1163'
p7878
sg4
g5
sg6
S'1962'
p7879
sg8
g9
sg10
S'Actor'
p7880
sg12
S'Thomas_Gibson'
p7881
sg14
S'USA'
p7882
sg16
S'187'
p7883
ssI1164
(dp7884
g2
S'1164'
p7885
sg4
g68
sg6
S'1960'
p7886
sg8
g9
sg10
S'Actor'
p7887
sg12
S'Thomas_Haden_Church'
p7888
sg14
S'USA'
p7889
sg16
S'183'
p7890
ssI1165
(dp7891
g2
S'1165'
p7892
sg4
g68
sg6
S'1980'
p7893
sg8
g9
sg10
S'Actor'
p7894
sg12
S'Thomas_Ian_Nicholas'
p7895
sg14
S'USA'
p7896
sg16
S'173'
p7897
ssI1166
(dp7898
g2
S'1166'
p7899
sg4
g68
sg6
S'1969'
p7900
sg8
g9
sg10
S'Actor'
p7901
sg12
S'Thomas_Jane'
p7902
sg14
S'USA'
p7903
sg16
S'180'
p7904
ssI1167
(dp7905
g2
S'1167'
p7906
sg4
g5
sg6
S'1970'
p7907
sg8
g9
sg10
S'Actor'
p7908
sg12
S'Thomas_Lennon'
p7909
sg14
S'USA'
p7910
sg16
g17
ssI1168
(dp7911
g2
S'1168'
p7912
sg4
g68
sg6
S'1960'
p7913
sg8
g47
sg10
S'Actor'
p7914
sg12
S'Tilda_Swinton'
p7915
sg14
S'UK'
p7916
sg16
S'179'
p7917
ssI1169
(dp7918
g2
S'1169'
p7919
sg4
g68
sg6
S'1958'
p7920
sg8
g9
sg10
S'Director'
p7921
sg12
S'Tim_Burton'
p7922
sg14
S'USA'
p7923
sg16
g17
ssI1170
(dp7924
g2
S'1170'
p7925
sg4
g68
sg6
S'1956'
p7926
sg8
g9
sg10
S'Actor'
p7927
sg12
S'Tim_Daly'
p7928
sg14
S'USA'
p7929
sg16
S'185'
p7930
ssI1171
(dp7931
g2
S'1171'
p7932
sg4
g68
sg6
S'1953'
p7933
sg8
g9
sg10
S'Broadcaster '
p7934
sg12
S'Tim_Gunn'
p7935
sg14
S'USA'
p7936
sg16
S'188'
p7937
ssI1172
(dp7938
g2
S'1172'
p7939
sg4
g68
sg6
S'1975'
p7940
sg8
g9
sg10
S'Comedian'
p7941
sg12
S'Tim_Minchin'
p7942
sg14
S'Austrailia'
p7943
sg16
g17
ssI1173
(dp7944
g2
S'1173'
p7945
sg4
g68
sg6
S'1957'
p7946
sg8
g9
sg10
S'Actor'
p7947
sg12
S'Timothy_Spall'
p7948
sg14
S'UK'
p7949
sg16
g17
ssI1174
(dp7950
g2
S'1174'
p7951
sg4
g68
sg6
S'1980'
p7952
sg8
g47
sg10
S'Actor'
p7953
sg12
S'Tinsel_Korey'
p7954
sg14
S'Canada'
p7955
sg16
g17
ssI1175
(dp7956
g2
S'1175'
p7957
sg4
g68
sg6
S'1961'
p7958
sg8
g9
sg10
S'Actor'
p7959
sg12
S'Titus_Welliver'
p7960
sg14
S'USA'
p7961
sg16
S'182'
p7962
ssI1176
(dp7963
g2
S'1176'
p7964
sg4
g68
sg6
S'1966'
p7965
sg8
g9
sg10
S'Actor'
p7966
sg12
S'Toby_Jones'
p7967
sg14
S'UK'
p7968
sg16
S'165'
p7969
ssI1177
(dp7970
g2
S'1177'
p7971
sg4
g68
sg6
S'1969'
p7972
sg8
g9
sg10
S'Actor'
p7973
sg12
S'Toby_Stephens'
p7974
sg14
S'UK'
p7975
sg16
S'180'
p7976
ssI1178
(dp7977
g2
S'1178'
p7978
sg4
g68
sg6
S'1985'
p7979
sg8
g9
sg10
S'Actor'
p7980
sg12
S'Todd_Lasance'
p7981
sg14
S'Austrailia'
p7982
sg16
g17
ssI1179
(dp7983
g2
S'1179'
p7984
sg4
g68
sg6
S'1959'
p7985
sg8
g9
sg10
S'Actor'
p7986
sg12
S'Tom_Arnold'
p7987
sg14
S'USA'
p7988
sg16
g17
ssI1180
(dp7989
g2
S'1180'
p7990
sg4
g68
sg6
S'1955'
p7991
sg8
g9
sg10
S'Broadcaster '
p7992
sg12
S'Tom_Bergeron'
p7993
sg14
S'USA'
p7994
sg16
S'175'
p7995
ssI1181
(dp7996
g2
S'1181'
p7997
sg4
g68
sg6
S'1961'
p7998
sg8
g9
sg10
S'Director'
p7999
sg12
S'Tom_Ford'
p8000
sg14
S'USA'
p8001
sg16
S'183'
p8002
ssI1182
(dp8003
g2
S'1182'
p8004
sg4
g68
sg6
S'1981'
p8005
sg8
g9
sg10
S'Actor'
p8006
sg12
S'Tom_Hiddleston'
p8007
sg14
S'UK'
p8008
sg16
S'188'
p8009
ssI1183
(dp8010
g2
S'1183'
p8011
sg4
g68
sg6
S'1972'
p8012
sg8
g9
sg10
S'Director'
p8013
sg12
S'Tom_Hooper'
p8014
sg14
S'UK'
p8015
sg16
g17
ssI1184
(dp8016
g2
S'1184'
p8017
sg4
g68
sg6
S'1962'
p8018
sg8
g9
sg10
S'Actor'
p8019
sg12
S'Tom_Kenny'
p8020
sg14
S'USA'
p8021
sg16
S'180'
p8022
ssI1185
(dp8023
g2
S'1185'
p8024
sg4
g68
sg6
S'1982'
p8025
sg8
g9
sg10
S'Actor'
p8026
sg12
S'Tom_Mison'
p8027
sg14
S'UK'
p8028
sg16
S'185'
p8029
ssI1186
(dp8030
g2
S'1186'
p8031
sg4
g68
sg6
S'1945'
p8032
sg8
g9
sg10
S'Actor'
p8033
sg12
S'Tom_Selleck'
p8034
sg14
S'USA'
p8035
sg16
S'192'
p8036
ssI1187
(dp8037
g2
S'1187'
p8038
sg4
g68
sg6
S'1969'
p8039
sg8
g9
sg10
S'Actor'
p8040
sg12
S'Tony_Curran'
p8041
sg14
S'UK'
p8042
sg16
g17
ssI1188
(dp8043
g2
S'1188'
p8044
sg4
g68
sg6
S'1969'
p8045
sg8
g47
sg10
S'Actor'
p8046
sg12
S'Tracey_Gold'
p8047
sg14
S'USA'
p8048
sg16
g17
ssI1189
(dp8049
g2
S'1189'
p8050
sg4
g68
sg6
S'1968'
p8051
sg8
g9
sg10
S'Comedian'
p8052
sg12
S'Tracy_Morgan'
p8053
sg14
S'USA'
p8054
sg16
S'178'
p8055
ssI1190
(dp8056
g2
S'1190'
p8057
sg4
g68
sg6
S'1989'
p8058
sg8
g9
sg10
S'Actor'
p8059
sg12
S'Tristan_Wilds'
p8060
sg14
S'USA'
p8061
sg16
S'182'
p8062
ssI1191
(dp8063
g2
S'1191'
p8064
sg4
g5
sg6
S'1995'
p8065
sg8
g9
sg10
S'Actor'
p8066
sg12
S'Troye_Sivan'
p8067
sg14
S'Austrailia'
p8068
sg16
S'174'
p8069
ssI1192
(dp8070
g2
S'1192'
p8071
sg4
g5
sg6
S'1971'
p8072
sg8
g9
sg10
S'Musician'
p8073
sg12
S'Tupac_Shakur'
p8074
sg14
S'USA'
p8075
sg16
g17
ssI1193
(dp8076
g2
S'1193'
p8077
sg4
g5
sg6
S'1964'
p8078
sg8
g9
sg10
S'Actor'
p8079
sg12
S'Ty_Pennington'
p8080
sg14
S'USA'
p8081
sg16
S'183'
p8082
ssI1194
(dp8083
g2
S'1194'
p8084
sg4
g5
sg6
S'1996'
p8085
sg8
g9
sg10
S'Actor'
p8086
sg12
S'Tye_Sheridan'
p8087
sg14
S'USA'
p8088
sg16
S'171'
p8089
ssI1195
(dp8090
g2
S'1195'
p8091
sg4
g5
sg6
S'1986'
p8092
sg8
g9
sg10
S'Actor'
p8093
sg12
S'Tyler_Blackburn'
p8094
sg14
S'USA'
p8095
sg16
S'179'
p8096
ssI1196
(dp8097
g2
S'1196'
p8098
sg4
g5
sg6
S'1987'
p8099
sg8
g9
sg10
S'Actor'
p8100
sg12
S'Tyler_Hoechlin'
p8101
sg14
S'USA'
p8102
sg16
S'183'
p8103
ssI1197
(dp8104
g2
S'1197'
p8105
sg4
g5
sg6
S'1992'
p8106
sg8
g9
sg10
S'Actor'
p8107
sg12
S'Tyler_James_Williams'
p8108
sg14
S'USA'
p8109
sg16
S'173'
p8110
ssI1198
(dp8111
g2
S'1198'
p8112
sg4
g5
sg6
S'1978'
p8113
sg8
g9
sg10
S'Musician'
p8114
sg12
S'Usher_Raymond'
p8115
sg14
S'USA'
p8116
sg16
S'171'
p8117
ssI1199
(dp8118
g2
S'1199'
p8119
sg4
g5
sg6
S'1981'
p8120
sg8
g47
sg10
S'Actor'
p8121
sg12
S'Uzo_Aduba'
p8122
sg14
S'USA'
p8123
sg16
g17
ssI1200
(dp8124
g2
S'1200'
p8125
sg4
g5
sg6
S'1988'
p8126
sg8
g47
sg10
S'Actor'
p8127
sg12
S'Vanessa_Hudgens'
p8128
sg14
S'USA'
p8129
sg16
S'155'
p8130
ssI1201
(dp8131
g2
S'1201'
p8132
sg4
g5
sg6
S'1980'
p8133
sg8
g47
sg10
S'Model'
p8134
sg12
S'Vanessa_Lachey'
p8135
sg14
S'USA'
p8136
sg16
g17
ssI1202
(dp8137
g2
S'1202'
p8138
sg4
g5
sg6
S'1968'
p8139
sg8
g47
sg10
S'Actor'
p8140
sg12
S'Vanessa_Marcil'
p8141
sg14
S'USA'
p8142
sg16
S'163'
p8143
ssI1203
(dp8144
g2
S'1203'
p8145
sg4
g5
sg6
S'1967'
p8146
sg8
g9
sg10
S'Musician'
p8147
sg12
S'Vanilla_Ice'
p8148
sg14
S'USA'
p8149
sg16
S'180'
p8150
ssI1204
(dp8151
g2
S'1204'
p8152
sg4
g5
sg6
S'1965'
p8153
sg8
g47
sg10
S'Actor'
p8154
sg12
S'Veronica_Ferres'
p8155
sg14
S'Germany'
p8156
sg16
S'178'
p8157
ssI1205
(dp8158
g2
S'1205'
p8159
sg4
g5
sg6
S'1983'
p8160
sg8
g47
sg10
S'Actor'
p8161
sg12
S'Vicky_McClure'
p8162
sg14
S'England'
p8163
sg16
g17
ssI1206
(dp8164
g2
S'1206'
p8165
sg4
g5
sg6
S'1993'
p8166
sg8
g47
sg10
S'Musician'
p8167
sg12
S'Victoria_Justice'
p8168
sg14
S'USA'
p8169
sg16
S'166'
p8170
ssI1207
(dp8171
g2
S'1207'
p8172
sg4
g5
sg6
S'1959'
p8173
sg8
g47
sg10
S'Actor'
p8174
sg12
S'Victoria_Rowell'
p8175
sg14
S'USA'
p8176
sg16
S'170'
p8177
ssI1208
(dp8178
g2
S'1208'
p8179
sg4
g5
sg6
S'1979'
p8180
sg8
g47
sg10
S'Actor'
p8181
sg12
S'Vidya_Balan'
p8182
sg14
S'India'
p8183
sg16
S'163'
p8184
ssI1209
(dp8185
g2
S'1209'
p8186
sg4
g5
sg6
S'1958'
p8187
sg8
g9
sg10
S'Actor'
p8188
sg12
S'Viggo_Mortensen'
p8189
sg14
S'Denmark'
p8190
sg16
S'180'
p8191
ssI1210
(dp8192
g2
S'1210'
p8193
sg4
g5
sg6
S'1967'
p8194
sg8
g9
sg10
S'Writer'
p8195
sg12
S'Vince_Gilligan'
p8196
sg14
S'USA'
p8197
sg16
g17
ssI1211
(dp8198
g2
S'1211'
p8199
sg4
g5
sg6
S'1966'
p8200
sg8
g9
sg10
S'Actor'
p8201
sg12
S'Vincent_Cassel'
p8202
sg14
S'France'
p8203
sg16
S'187'
p8204
ssI1212
(dp8205
g2
S'1212'
p8206
sg4
g5
sg6
S'1992'
p8207
sg8
g9
sg10
S'Actor'
p8208
sg12
S'Vincent_Martella'
p8209
sg14
S'USA'
p8210
sg16
g17
ssI1213
(dp8211
g2
S'1213'
p8212
sg4
g5
sg6
S'1946'
p8213
sg8
g9
sg10
S'Actor'
p8214
sg12
S'Vincent_Pastore'
p8215
sg14
S'USA'
p8216
sg16
g17
ssI1214
(dp8217
g2
S'1214'
p8218
sg4
g5
sg6
S'1976'
p8219
sg8
g47
sg10
S'Musician'
p8220
sg12
S'Violante_Placido'
p8221
sg14
S'Italy'
p8222
sg16
g17
ssI1215
(dp8223
g2
S'1215'
p8224
sg4
g5
sg6
S'1961'
p8225
sg8
g47
sg10
S'Actor'
p8226
sg12
S'Virginia_Madsen'
p8227
sg14
S'USA'
p8228
sg16
g17
ssI1216
(dp8229
g2
S'1216'
p8230
sg4
g5
sg6
S'1920'
p8231
sg8
g9
sg10
S'Actor'
p8232
sg12
S'Walter_Matthau'
p8233
sg14
S'USA'
p8234
sg16
S'189'
p8235
ssI1217
(dp8236
g2
S'1217'
p8237
sg4
g5
sg6
S'1971'
p8238
sg8
g9
sg10
S'Actor'
p8239
sg12
S'Walton_Goggins'
p8240
sg14
S'USA'
p8241
sg16
S'178'
p8242
ssI1218
(dp8243
g2
S'1218'
p8244
sg4
g5
sg6
S'1964'
p8245
sg8
g47
sg10
S'Actor'
p8246
sg12
S'Wanda_Sykes'
p8247
sg14
S'USA'
p8248
sg16
g17
ssI1219
(dp8249
g2
S'1219'
p8250
sg4
g5
sg6
S'1963'
p8251
sg8
g9
sg10
S'Actor'
p8252
sg12
S'Wendell_Pierce'
p8253
sg14
S'USA'
p8254
sg16
g17
ssI1220
(dp8255
g2
S'1220'
p8256
sg4
g5
sg6
S'1969'
p8257
sg8
g47
sg10
S'Actor'
p8258
sg12
S'Wendi_McLendon-Covey'
p8259
sg14
S'USA'
p8260
sg16
S'172'
p8261
ssI1221
(dp8262
g2
S'1221'
p8263
sg4
g5
sg6
S'1964'
p8264
sg8
g47
sg10
S'Actor'
p8265
sg12
S'Wendy_Williams'
p8266
sg14
S'USA'
p8267
sg16
S'180'
p8268
ssI1222
(dp8269
g2
S'1222'
p8270
sg4
g5
sg6
S'1972'
p8271
sg8
g9
sg10
S'Actor'
p8272
sg12
S'Wentworth_Miller'
p8273
sg14
S'England'
p8274
sg16
S'185'
p8275
ssI1223
(dp8276
g2
S'1223'
p8277
sg4
g5
sg6
S'1978'
p8278
sg8
g9
sg10
S'Actor'
p8279
sg12
S'Wes_Bentley'
p8280
sg14
S'USA'
p8281
sg16
S'180'
p8282
ssI1224
(dp8283
g2
S'1224'
p8284
sg4
g5
sg6
S'1962'
p8285
sg8
g9
sg10
S'Actor'
p8286
sg12
S'Wesley_Snipes'
p8287
sg14
S'USA'
p8288
sg16
S'175'
p8289
ssI1225
(dp8290
g2
S'1225'
p8291
sg4
g68
sg6
S'1982'
p8292
sg8
g47
sg10
S'Actor'
p8293
sg12
S'Whitney_Cummings'
p8294
sg14
S'USA'
p8295
sg16
S'180'
p8296
ssI1226
(dp8297
g2
S'1226'
p8298
sg4
g5
sg6
S'1970'
p8299
sg8
g9
sg10
S'Actor'
p8300
sg12
S'Will_Arnett'
p8301
sg14
S'Canada'
p8302
sg16
S'189'
p8303
ssI1227
(dp8304
g2
S'1227'
p8305
sg4
g5
sg6
S'1970'
p8306
sg8
g9
sg10
S'Actor'
p8307
sg12
S'Will_Forte'
p8308
sg14
S'USA'
p8309
sg16
S'175'
p8310
ssI1228
(dp8311
g2
S'1228'
p8312
sg4
g5
sg6
S'1976'
p8313
sg8
g9
sg10
S'Actor'
p8314
sg12
S'Will_Mellor'
p8315
sg14
S'England'
p8316
sg16
g17
ssI1229
(dp8317
g2
S'1229'
p8318
sg4
g5
sg6
S'1993'
p8319
sg8
g9
sg10
S'Actor'
p8320
sg12
S'Will_Poulter'
p8321
sg14
S'England'
p8322
sg16
S'188'
p8323
ssI1230
(dp8324
g2
S'1230'
p8325
sg4
g5
sg6
S'1971'
p8326
sg8
g9
sg10
S'Actor'
p8327
sg12
S'Will_Yun_Lee'
p8328
sg14
S'USA'
p8329
sg16
g17
ssI1231
(dp8330
g2
S'1231'
p8331
sg4
g5
sg6
S'1955'
p8332
sg8
g9
sg10
S'Actor'
p8333
sg12
S'Willem_Dafoe'
p8334
sg14
S'USA'
p8335
sg16
S'178'
p8336
ssI1232
(dp8337
g2
S'1232'
p8338
sg4
g5
sg6
S'1963'
p8339
sg8
g9
sg10
S'Actor'
p8340
sg12
S'William_Baldwin'
p8341
sg14
S'USA'
p8342
sg16
S'187'
p8343
ssI1233
(dp8344
g2
S'1233'
p8345
sg4
g5
sg6
S'1956'
p8346
sg8
g9
sg10
S'Actor'
p8347
sg12
S'William_Fichtner'
p8348
sg14
S'USA'
p8349
sg16
S'184'
p8350
ssI1234
(dp8351
g2
S'1234'
p8352
sg4
g5
sg6
S'1980'
p8353
sg8
g9
sg10
S'Actor'
p8354
sg12
S'William_Levy'
p8355
sg14
S'USA'
p8356
sg16
S'183'
p8357
ssI1235
(dp8358
g2
S'1235'
p8359
sg4
g5
sg6
S'1973'
p8360
sg8
g9
sg10
S'Actor'
p8361
sg12
S'Wilson_Cruz'
p8362
sg14
S'USA'
p8363
sg16
g17
ssI1236
(dp8364
g2
S'1236'
p8365
sg4
g5
sg6
S'1945'
p8366
sg8
g9
sg10
S'Director'
p8367
sg12
S'Wim_Wenders'
p8368
sg14
S'Germany'
p8369
sg16
g17
ssI1237
(dp8370
g2
S'1237'
p8371
sg4
g5
sg6
S'1993'
p8372
sg8
g47
sg10
S'Dancer'
p8373
sg12
S'Witney_Carson'
p8374
sg14
S'USA'
p8375
sg16
S'160'
p8376
ssI1238
(dp8377
g2
S'1238'
p8378
sg4
g5
sg6
S'1961'
p8379
sg8
g9
sg10
S'Actor'
p8380
sg12
S'Woody_Harrelson'
p8381
sg14
S'USA'
p8382
sg16
S'178'
p8383
ssI1239
(dp8384
g2
S'1239'
p8385
sg4
g5
sg6
S'1983'
p8386
sg8
g9
sg10
S'Actor'
p8387
sg12
S'Xavier_Samuel'
p8388
sg14
S'Austrailia'
p8389
sg16
S'179'
p8390
ssI1240
(dp8391
g2
S'1240'
p8392
sg4
g5
sg6
S'1964'
p8393
sg8
g47
sg10
S'Actor'
p8394
sg12
S'Yeardley_Smith'
p8395
sg14
S'USA'
p8396
sg16
g17
ssI1241
(dp8397
g2
S'1241'
p8398
sg4
g5
sg6
S'1971'
p8399
sg8
g47
sg10
S'Actor'
p8400
sg12
S'Yvette_Nicole_Brown'
p8401
sg14
S'USA'
p8402
sg16
g17
ssI1242
(dp8403
g2
S'1242'
p8404
sg4
g5
sg6
S'1987'
p8405
sg8
g9
sg10
S'Actor'
p8406
sg12
S'Zac_Efron'
p8407
sg14
S'USA'
p8408
sg16
S'173'
p8409
ssI1243
(dp8410
g2
S'1243'
p8411
sg4
g5
sg6
S'1975'
p8412
sg8
g9
sg10
S'Actor'
p8413
sg12
S'Zach_Braff'
p8414
sg14
S'USA'
p8415
sg16
S'183'
p8416
ssI1244
(dp8417
g2
S'1244'
p8418
sg4
g5
sg6
S'1969'
p8419
sg8
g9
sg10
S'Actor'
p8420
sg12
S'Zach_Galifianakis'
p8421
sg14
S'USA'
p8422
sg16
S'170'
p8423
ssI1245
(dp8424
g2
S'1245'
p8425
sg4
g5
sg6
S'1998'
p8426
sg8
g9
sg10
S'Actor'
p8427
sg12
S'Zachary_Gordon'
p8428
sg14
S'USA'
p8429
sg16
S'175'
p8430
ssI1246
(dp8431
g2
S'1246'
p8432
sg4
g5
sg6
S'1980'
p8433
sg8
g9
sg10
S'Actor'
p8434
sg12
S'Zachary_Levi'
p8435
sg14
S'USA'
p8436
sg16
S'191'
p8437
ssI1247
(dp8438
g2
S'1247'
p8439
sg4
g5
sg6
S'1977'
p8440
sg8
g9
sg10
S'Actor'
p8441
sg12
S'Zachary_Quinto'
p8442
sg14
S'USA'
p8443
sg16
S'188'
p8444
ssI1248
(dp8445
g2
S'1248'
p8446
sg4
g68
sg6
S'1966'
p8447
sg8
g9
sg10
S'Actor'
p8448
sg12
S'Zack_Snyder'
p8449
sg14
S'USA'
p8450
sg16
S'170'
p8451
ssI1249
(dp8452
g2
S'1249'
p8453
sg4
g5
sg6
S'1978'
p8454
sg8
g47
sg10
S'Actor'
p8455
sg12
S'Zoe_Saldana'
p8456
sg14
S'USA'
p8457
sg16
S'170'
p8458
ssI1250
(dp8459
g2
S'1250'
p8460
sg4
g5
sg6
S'1979'
p8461
sg8
g47
sg10
S'Actor'
p8462
sg12
S'Zulay_Henao'
p8463
sg14
S'Columbia'
p8464
sg16
S'165'
p8465
ss.